

Microchip MPLAB XC8 Assembler V2.40 build 20220703182018 
                                                                                               Sat Mar 09 15:49:35 2024

Microchip MPLAB XC8 C Compiler v2.40 (Free license) build 20220703182018 Og9 
     1                           	processor	16LF1574
     2                           	pagewidth 120
     3                           	opt	flic
     4                           	psect	idataCOMMON,global,class=CODE,delta=2,noexec
     5                           	psect	idataBANK0,global,class=CODE,delta=2,noexec
     6                           	psect	nvBANK0,global,class=BANK0,space=1,delta=1,noexec
     7                           	psect	nvBANK1,global,class=BANK1,space=1,delta=1,noexec
     8                           	psect	stringtext1,global,class=STRCODE,delta=2,noexec
     9                           	psect	stringtext2,global,class=STRCODE,delta=2,noexec
    10                           	psect	stringtext3,global,class=STRCODE,delta=2,noexec
    11                           	psect	stringtext4,global,class=STRCODE,delta=2,noexec
    12                           	psect	cinit,global,class=CODE,merge=1,delta=2
    13                           	psect	bssCOMMON,global,class=COMMON,space=1,delta=1,noexec
    14                           	psect	dataCOMMON,global,class=COMMON,space=1,delta=1,noexec
    15                           	psect	bssBANK0,global,class=BANK0,space=1,delta=1,noexec
    16                           	psect	dataBANK0,global,class=BANK0,space=1,delta=1,noexec
    17                           	psect	bssBANK1,global,class=BANK1,space=1,delta=1,noexec
    18                           	psect	bssBANK2,global,class=BANK2,space=1,delta=1,noexec
    19                           	psect	clrtext,global,class=CODE,delta=2
    20                           	psect	cstackBANK1,global,class=BANK1,space=1,delta=1,noexec
    21                           	psect	cstackCOMMON,global,class=COMMON,space=1,delta=1,noexec
    22                           	psect	cstackBANK0,global,class=BANK0,space=1,delta=1,noexec
    23                           	psect	maintext,global,class=CODE,merge=1,split=1,delta=2
    24                           	psect	text1,local,class=CODE,merge=1,delta=2
    25                           	psect	text2,local,class=CODE,merge=1,delta=2
    26                           	psect	text3,local,class=CODE,merge=1,delta=2
    27                           	psect	text4,local,class=CODE,merge=1,delta=2
    28                           	psect	text5,local,class=CODE,merge=1,delta=2
    29                           	psect	text6,local,class=CODE,merge=1,delta=2
    30                           	psect	text7,local,class=CODE,merge=1,delta=2
    31                           	psect	text8,local,class=CODE,merge=1,delta=2
    32                           	psect	text9,local,class=CODE,merge=1,delta=2
    33                           	psect	text10,local,class=CODE,merge=1,delta=2
    34                           	psect	text11,local,class=CODE,merge=1,delta=2
    35                           	psect	text12,local,class=CODE,merge=1,delta=2
    36                           	psect	text13,local,class=CODE,merge=1,delta=2
    37                           	psect	text14,local,class=CODE,merge=1,delta=2
    38                           	psect	text15,local,class=CODE,merge=1,delta=2
    39                           	psect	text16,local,class=CODE,merge=1,delta=2
    40                           	psect	text17,local,class=CODE,merge=1,delta=2
    41                           	psect	text18,local,class=CODE,merge=1,delta=2
    42                           	psect	text19,local,class=CODE,merge=1,delta=2
    43                           	psect	text20,local,class=CODE,merge=1,delta=2
    44                           	psect	text21,local,class=CODE,merge=1,delta=2
    45                           	psect	text22,local,class=CODE,merge=1,delta=2
    46                           	psect	text23,local,class=CODE,merge=1,delta=2
    47                           	psect	text24,local,class=CODE,merge=1,delta=2
    48                           	psect	text25,local,class=CODE,merge=1,delta=2
    49                           	psect	text26,local,class=CODE,merge=1,delta=2
    50                           	psect	text27,local,class=CODE,merge=1,delta=2
    51                           	psect	text28,local,class=CODE,merge=1,delta=2,group=3
    52                           	psect	text29,local,class=CODE,merge=1,delta=2,group=1
    53                           	psect	text30,local,class=CODE,merge=1,delta=2,group=1
    54                           	psect	text31,local,class=CODE,merge=1,delta=2,group=3
    55                           	psect	text32,local,class=CODE,merge=1,delta=2
    56                           	psect	text33,local,class=CODE,merge=1,delta=2
    57                           	psect	text34,local,class=CODE,merge=1,delta=2
    58                           	psect	text35,local,class=CODE,merge=1,delta=2
    59                           	psect	text36,local,class=CODE,merge=1,delta=2
    60                           	psect	text37,local,class=CODE,merge=1,delta=2
    61                           	psect	text38,local,class=CODE,merge=1,delta=2
    62                           	psect	text39,local,class=CODE,merge=1,delta=2
    63                           	psect	text40,local,class=CODE,merge=1,delta=2
    64                           	psect	text41,local,class=CODE,merge=1,delta=2
    65                           	psect	text42,local,class=CODE,merge=1,delta=2
    66                           	psect	text43,local,class=CODE,merge=1,delta=2
    67                           	psect	text44,local,class=CODE,merge=1,delta=2
    68                           	psect	text45,local,class=CODE,merge=1,delta=2
    69                           	psect	text46,local,class=CODE,merge=1,delta=2
    70                           	psect	text47,local,class=CODE,merge=1,delta=2
    71                           	psect	text48,local,class=CODE,merge=1,delta=2
    72                           	psect	text49,local,class=CODE,merge=1,delta=2
    73                           	psect	text50,local,class=CODE,merge=1,delta=2
    74                           	psect	text51,local,class=CODE,merge=1,delta=2
    75                           	psect	text52,local,class=CODE,merge=1,delta=2
    76                           	psect	text53,local,class=CODE,merge=1,delta=2
    77                           	psect	text54,local,class=CODE,merge=1,delta=2
    78                           	psect	text55,local,class=CODE,merge=1,delta=2
    79                           	psect	text56,local,class=CODE,merge=1,delta=2
    80                           	psect	intentry,global,class=CODE,delta=2
    81                           	psect	text58,local,class=CODE,merge=1,delta=2
    82                           	psect	text59,local,class=CODE,merge=1,delta=2
    83                           	psect	text60,local,class=CODE,merge=1,delta=2
    84                           	psect	text61,local,class=CODE,merge=1,delta=2
    85                           	psect	text62,local,class=CODE,merge=1,delta=2
    86                           	psect	text63,local,class=CODE,merge=1,delta=2
    87                           	psect	text64,local,class=CODE,merge=1,delta=2
    88                           	psect	text65,local,class=CODE,merge=1,delta=2
    89                           	psect	text66,local,class=CODE,merge=1,delta=2
    90                           	psect	text67,local,class=CODE,merge=1,delta=2
    91                           	psect	text68,local,class=CODE,merge=1,delta=2
    92                           	psect	text69,local,class=CODE,merge=1,delta=2
    93                           	psect	idloc,global,abs,ovrld,class=IDLOC,space=5,delta=2,noexec
    94                           	psect	config,global,abs,ovrld,class=CONFIG,space=4,delta=2,noexec
    95                           	dabs	1,0x7E,2
    96     0000                     
    97                           ; Generated 28/03/2023 GMT
    98                           ; 
    99                           ; Copyright © 2023, Microchip Technology Inc. and its subsidiaries ("Microchip")
   100                           ; All rights reserved.
   101                           ; 
   102                           ; This software is developed by Microchip Technology Inc. and its subsidiaries ("Microch
      +                          ip").
   103                           ; 
   104                           ; Redistribution and use in source and binary forms, with or without modification, are
   105                           ; permitted provided that the following conditions are met:
   106                           ; 
   107                           ;     1. Redistributions of source code must retain the above copyright notice, this lis
      +                          t of
   108                           ;        conditions and the following disclaimer.
   109                           ; 
   110                           ;     2. Redistributions in binary form must reproduce the above copyright notice, this 
      +                          list
   111                           ;        of conditions and the following disclaimer in the documentation and/or other
   112                           ;        materials provided with the distribution. Publication is not required when
   113                           ;        this file is used in an embedded application.
   114                           ; 
   115                           ;     3. Microchip's name may not be used to endorse or promote products derived from th
      +                          is
   116                           ;        software without specific prior written permission.
   117                           ; 
   118                           ; THIS SOFTWARE IS PROVIDED BY MICROCHIP "AS IS" AND ANY EXPRESS OR IMPLIED WARRANTIES,
   119                           ; INCLUDING, BUT NOT LIMITED TO, THE IMPLIED WARRANTIES OF MERCHANTABILITY AND FITNESS F
      +                          OR
   120                           ; PURPOSE ARE DISCLAIMED.  IN NO EVENT SHALL MICROCHIP BE LIABLE FOR ANY DIRECT, INDIREC
      +                          T,
   121                           ; INCIDENTAL, SPECIAL, EXEMPLARY, OR CONSEQUENTIAL DAMAGES (INCLUDING BUT NOT LIMITED TO
   122                           ; PROCUREMENT OF SUBSTITUTE GOODS OR SERVICES; LOSS OF USE, DATA OR PROFITS; OR BUSINESS
   123                           ; INTERRUPTION) HOWSOEVER CAUSED AND ON ANY THEORY OF LIABILITY, WHETHER IN CONTRACT, ST
      +                          RICT
   124                           ; LIABILITY, OR TORT (INCLUDING NEGLIGENCE OR OTHERWISE) ARISING IN ANY WAY OUT OF THE U
      +                          SE OF
   125                           ; THIS SOFTWARE, EVEN IF ADVISED OF THE POSSIBILITY OF SUCH DAMAGE.
   126                           ; 
   127                           ; 
   128                           ; Code-generator required, PIC16LF1574 Definitions
   129                           ; 
   130                           ; SFR Addresses
   131     0000                     	;# 
   132     0001                     	;# 
   133     0002                     	;# 
   134     0003                     	;# 
   135     0004                     	;# 
   136     0005                     	;# 
   137     0006                     	;# 
   138     0007                     	;# 
   139     0008                     	;# 
   140     0009                     	;# 
   141     000A                     	;# 
   142     000B                     	;# 
   143     000C                     	;# 
   144     000E                     	;# 
   145     0011                     	;# 
   146     0012                     	;# 
   147     0013                     	;# 
   148     0015                     	;# 
   149     0016                     	;# 
   150     0016                     	;# 
   151     0017                     	;# 
   152     0018                     	;# 
   153     0019                     	;# 
   154     001A                     	;# 
   155     001B                     	;# 
   156     001C                     	;# 
   157     008C                     	;# 
   158     008E                     	;# 
   159     0091                     	;# 
   160     0092                     	;# 
   161     0093                     	;# 
   162     0095                     	;# 
   163     0096                     	;# 
   164     0097                     	;# 
   165     0098                     	;# 
   166     0099                     	;# 
   167     009A                     	;# 
   168     009B                     	;# 
   169     009B                     	;# 
   170     009C                     	;# 
   171     009D                     	;# 
   172     009E                     	;# 
   173     009F                     	;# 
   174     010C                     	;# 
   175     010E                     	;# 
   176     0111                     	;# 
   177     0112                     	;# 
   178     0113                     	;# 
   179     0114                     	;# 
   180     0115                     	;# 
   181     0116                     	;# 
   182     0117                     	;# 
   183     0118                     	;# 
   184     0119                     	;# 
   185     018C                     	;# 
   186     018E                     	;# 
   187     0191                     	;# 
   188     0191                     	;# 
   189     0192                     	;# 
   190     0193                     	;# 
   191     0193                     	;# 
   192     0194                     	;# 
   193     0195                     	;# 
   194     0196                     	;# 
   195     0199                     	;# 
   196     019A                     	;# 
   197     019B                     	;# 
   198     019B                     	;# 
   199     019C                     	;# 
   200     019D                     	;# 
   201     019E                     	;# 
   202     019F                     	;# 
   203     020C                     	;# 
   204     020E                     	;# 
   205     028C                     	;# 
   206     028E                     	;# 
   207     030C                     	;# 
   208     030E                     	;# 
   209     038C                     	;# 
   210     038E                     	;# 
   211     0391                     	;# 
   212     0392                     	;# 
   213     0393                     	;# 
   214     0397                     	;# 
   215     0398                     	;# 
   216     0399                     	;# 
   217     0691                     	;# 
   218     0692                     	;# 
   219     0693                     	;# 
   220     0694                     	;# 
   221     0695                     	;# 
   222     0D8E                     	;# 
   223     0D8F                     	;# 
   224     0D90                     	;# 
   225     0D91                     	;# 
   226     0D91                     	;# 
   227     0D92                     	;# 
   228     0D93                     	;# 
   229     0D93                     	;# 
   230     0D94                     	;# 
   231     0D95                     	;# 
   232     0D95                     	;# 
   233     0D96                     	;# 
   234     0D97                     	;# 
   235     0D97                     	;# 
   236     0D98                     	;# 
   237     0D99                     	;# 
   238     0D99                     	;# 
   239     0D9A                     	;# 
   240     0D9B                     	;# 
   241     0D9C                     	;# 
   242     0D9C                     	;# 
   243     0D9D                     	;# 
   244     0D9D                     	;# 
   245     0D9E                     	;# 
   246     0D9F                     	;# 
   247     0DA0                     	;# 
   248     0DA1                     	;# 
   249     0DA1                     	;# 
   250     0DA2                     	;# 
   251     0DA3                     	;# 
   252     0DA3                     	;# 
   253     0DA4                     	;# 
   254     0DA5                     	;# 
   255     0DA5                     	;# 
   256     0DA6                     	;# 
   257     0DA7                     	;# 
   258     0DA7                     	;# 
   259     0DA8                     	;# 
   260     0DA9                     	;# 
   261     0DA9                     	;# 
   262     0DAA                     	;# 
   263     0DAB                     	;# 
   264     0DAC                     	;# 
   265     0DAC                     	;# 
   266     0DAD                     	;# 
   267     0DAD                     	;# 
   268     0DAE                     	;# 
   269     0DAF                     	;# 
   270     0DB0                     	;# 
   271     0DB1                     	;# 
   272     0DB1                     	;# 
   273     0DB2                     	;# 
   274     0DB3                     	;# 
   275     0DB3                     	;# 
   276     0DB4                     	;# 
   277     0DB5                     	;# 
   278     0DB5                     	;# 
   279     0DB6                     	;# 
   280     0DB7                     	;# 
   281     0DB7                     	;# 
   282     0DB8                     	;# 
   283     0DB9                     	;# 
   284     0DB9                     	;# 
   285     0DBA                     	;# 
   286     0DBB                     	;# 
   287     0DBC                     	;# 
   288     0DBC                     	;# 
   289     0DBD                     	;# 
   290     0DBD                     	;# 
   291     0DBE                     	;# 
   292     0DBF                     	;# 
   293     0DC0                     	;# 
   294     0DC1                     	;# 
   295     0DC1                     	;# 
   296     0DC2                     	;# 
   297     0DC3                     	;# 
   298     0DC3                     	;# 
   299     0DC4                     	;# 
   300     0DC5                     	;# 
   301     0DC5                     	;# 
   302     0DC6                     	;# 
   303     0DC7                     	;# 
   304     0DC7                     	;# 
   305     0DC8                     	;# 
   306     0DC9                     	;# 
   307     0DC9                     	;# 
   308     0DCA                     	;# 
   309     0DCB                     	;# 
   310     0DCC                     	;# 
   311     0DCC                     	;# 
   312     0DCD                     	;# 
   313     0DCD                     	;# 
   314     0DCE                     	;# 
   315     0DCF                     	;# 
   316     0DD0                     	;# 
   317     0E0F                     	;# 
   318     0E10                     	;# 
   319     0E11                     	;# 
   320     0E12                     	;# 
   321     0E13                     	;# 
   322     0E14                     	;# 
   323     0E15                     	;# 
   324     0E16                     	;# 
   325     0E17                     	;# 
   326     0E90                     	;# 
   327     0E91                     	;# 
   328     0E92                     	;# 
   329     0E94                     	;# 
   330     0E95                     	;# 
   331     0EA0                     	;# 
   332     0EA1                     	;# 
   333     0EA2                     	;# 
   334     0EA3                     	;# 
   335     0EA4                     	;# 
   336     0EA5                     	;# 
   337     0FE4                     	;# 
   338     0FE5                     	;# 
   339     0FE6                     	;# 
   340     0FE7                     	;# 
   341     0FE8                     	;# 
   342     0FE8                     	;# 
   343     0FE9                     	;# 
   344     0FEA                     	;# 
   345     0FEA                     	;# 
   346     0FEB                     	;# 
   347     0FED                     	;# 
   348     0FEE                     	;# 
   349     0FEE                     	;# 
   350     0FEF                     	;# 
   351     0000                     	;# 
   352     0001                     	;# 
   353     0002                     	;# 
   354     0003                     	;# 
   355     0004                     	;# 
   356     0005                     	;# 
   357     0006                     	;# 
   358     0007                     	;# 
   359     0008                     	;# 
   360     0009                     	;# 
   361     000A                     	;# 
   362     000B                     	;# 
   363     000C                     	;# 
   364     000E                     	;# 
   365     0011                     	;# 
   366     0012                     	;# 
   367     0013                     	;# 
   368     0015                     	;# 
   369     0016                     	;# 
   370     0016                     	;# 
   371     0017                     	;# 
   372     0018                     	;# 
   373     0019                     	;# 
   374     001A                     	;# 
   375     001B                     	;# 
   376     001C                     	;# 
   377     008C                     	;# 
   378     008E                     	;# 
   379     0091                     	;# 
   380     0092                     	;# 
   381     0093                     	;# 
   382     0095                     	;# 
   383     0096                     	;# 
   384     0097                     	;# 
   385     0098                     	;# 
   386     0099                     	;# 
   387     009A                     	;# 
   388     009B                     	;# 
   389     009B                     	;# 
   390     009C                     	;# 
   391     009D                     	;# 
   392     009E                     	;# 
   393     009F                     	;# 
   394     010C                     	;# 
   395     010E                     	;# 
   396     0111                     	;# 
   397     0112                     	;# 
   398     0113                     	;# 
   399     0114                     	;# 
   400     0115                     	;# 
   401     0116                     	;# 
   402     0117                     	;# 
   403     0118                     	;# 
   404     0119                     	;# 
   405     018C                     	;# 
   406     018E                     	;# 
   407     0191                     	;# 
   408     0191                     	;# 
   409     0192                     	;# 
   410     0193                     	;# 
   411     0193                     	;# 
   412     0194                     	;# 
   413     0195                     	;# 
   414     0196                     	;# 
   415     0199                     	;# 
   416     019A                     	;# 
   417     019B                     	;# 
   418     019B                     	;# 
   419     019C                     	;# 
   420     019D                     	;# 
   421     019E                     	;# 
   422     019F                     	;# 
   423     020C                     	;# 
   424     020E                     	;# 
   425     028C                     	;# 
   426     028E                     	;# 
   427     030C                     	;# 
   428     030E                     	;# 
   429     038C                     	;# 
   430     038E                     	;# 
   431     0391                     	;# 
   432     0392                     	;# 
   433     0393                     	;# 
   434     0397                     	;# 
   435     0398                     	;# 
   436     0399                     	;# 
   437     0691                     	;# 
   438     0692                     	;# 
   439     0693                     	;# 
   440     0694                     	;# 
   441     0695                     	;# 
   442     0D8E                     	;# 
   443     0D8F                     	;# 
   444     0D90                     	;# 
   445     0D91                     	;# 
   446     0D91                     	;# 
   447     0D92                     	;# 
   448     0D93                     	;# 
   449     0D93                     	;# 
   450     0D94                     	;# 
   451     0D95                     	;# 
   452     0D95                     	;# 
   453     0D96                     	;# 
   454     0D97                     	;# 
   455     0D97                     	;# 
   456     0D98                     	;# 
   457     0D99                     	;# 
   458     0D99                     	;# 
   459     0D9A                     	;# 
   460     0D9B                     	;# 
   461     0D9C                     	;# 
   462     0D9C                     	;# 
   463     0D9D                     	;# 
   464     0D9D                     	;# 
   465     0D9E                     	;# 
   466     0D9F                     	;# 
   467     0DA0                     	;# 
   468     0DA1                     	;# 
   469     0DA1                     	;# 
   470     0DA2                     	;# 
   471     0DA3                     	;# 
   472     0DA3                     	;# 
   473     0DA4                     	;# 
   474     0DA5                     	;# 
   475     0DA5                     	;# 
   476     0DA6                     	;# 
   477     0DA7                     	;# 
   478     0DA7                     	;# 
   479     0DA8                     	;# 
   480     0DA9                     	;# 
   481     0DA9                     	;# 
   482     0DAA                     	;# 
   483     0DAB                     	;# 
   484     0DAC                     	;# 
   485     0DAC                     	;# 
   486     0DAD                     	;# 
   487     0DAD                     	;# 
   488     0DAE                     	;# 
   489     0DAF                     	;# 
   490     0DB0                     	;# 
   491     0DB1                     	;# 
   492     0DB1                     	;# 
   493     0DB2                     	;# 
   494     0DB3                     	;# 
   495     0DB3                     	;# 
   496     0DB4                     	;# 
   497     0DB5                     	;# 
   498     0DB5                     	;# 
   499     0DB6                     	;# 
   500     0DB7                     	;# 
   501     0DB7                     	;# 
   502     0DB8                     	;# 
   503     0DB9                     	;# 
   504     0DB9                     	;# 
   505     0DBA                     	;# 
   506     0DBB                     	;# 
   507     0DBC                     	;# 
   508     0DBC                     	;# 
   509     0DBD                     	;# 
   510     0DBD                     	;# 
   511     0DBE                     	;# 
   512     0DBF                     	;# 
   513     0DC0                     	;# 
   514     0DC1                     	;# 
   515     0DC1                     	;# 
   516     0DC2                     	;# 
   517     0DC3                     	;# 
   518     0DC3                     	;# 
   519     0DC4                     	;# 
   520     0DC5                     	;# 
   521     0DC5                     	;# 
   522     0DC6                     	;# 
   523     0DC7                     	;# 
   524     0DC7                     	;# 
   525     0DC8                     	;# 
   526     0DC9                     	;# 
   527     0DC9                     	;# 
   528     0DCA                     	;# 
   529     0DCB                     	;# 
   530     0DCC                     	;# 
   531     0DCC                     	;# 
   532     0DCD                     	;# 
   533     0DCD                     	;# 
   534     0DCE                     	;# 
   535     0DCF                     	;# 
   536     0DD0                     	;# 
   537     0E0F                     	;# 
   538     0E10                     	;# 
   539     0E11                     	;# 
   540     0E12                     	;# 
   541     0E13                     	;# 
   542     0E14                     	;# 
   543     0E15                     	;# 
   544     0E16                     	;# 
   545     0E17                     	;# 
   546     0E90                     	;# 
   547     0E91                     	;# 
   548     0E92                     	;# 
   549     0E94                     	;# 
   550     0E95                     	;# 
   551     0EA0                     	;# 
   552     0EA1                     	;# 
   553     0EA2                     	;# 
   554     0EA3                     	;# 
   555     0EA4                     	;# 
   556     0EA5                     	;# 
   557     0FE4                     	;# 
   558     0FE5                     	;# 
   559     0FE6                     	;# 
   560     0FE7                     	;# 
   561     0FE8                     	;# 
   562     0FE8                     	;# 
   563     0FE9                     	;# 
   564     0FEA                     	;# 
   565     0FEA                     	;# 
   566     0FEB                     	;# 
   567     0FED                     	;# 
   568     0FEE                     	;# 
   569     0FEE                     	;# 
   570     0FEF                     	;# 
   571     0000                     	;# 
   572     0001                     	;# 
   573     0002                     	;# 
   574     0003                     	;# 
   575     0004                     	;# 
   576     0005                     	;# 
   577     0006                     	;# 
   578     0007                     	;# 
   579     0008                     	;# 
   580     0009                     	;# 
   581     000A                     	;# 
   582     000B                     	;# 
   583     000C                     	;# 
   584     000E                     	;# 
   585     0011                     	;# 
   586     0012                     	;# 
   587     0013                     	;# 
   588     0015                     	;# 
   589     0016                     	;# 
   590     0016                     	;# 
   591     0017                     	;# 
   592     0018                     	;# 
   593     0019                     	;# 
   594     001A                     	;# 
   595     001B                     	;# 
   596     001C                     	;# 
   597     008C                     	;# 
   598     008E                     	;# 
   599     0091                     	;# 
   600     0092                     	;# 
   601     0093                     	;# 
   602     0095                     	;# 
   603     0096                     	;# 
   604     0097                     	;# 
   605     0098                     	;# 
   606     0099                     	;# 
   607     009A                     	;# 
   608     009B                     	;# 
   609     009B                     	;# 
   610     009C                     	;# 
   611     009D                     	;# 
   612     009E                     	;# 
   613     009F                     	;# 
   614     010C                     	;# 
   615     010E                     	;# 
   616     0111                     	;# 
   617     0112                     	;# 
   618     0113                     	;# 
   619     0114                     	;# 
   620     0115                     	;# 
   621     0116                     	;# 
   622     0117                     	;# 
   623     0118                     	;# 
   624     0119                     	;# 
   625     018C                     	;# 
   626     018E                     	;# 
   627     0191                     	;# 
   628     0191                     	;# 
   629     0192                     	;# 
   630     0193                     	;# 
   631     0193                     	;# 
   632     0194                     	;# 
   633     0195                     	;# 
   634     0196                     	;# 
   635     0199                     	;# 
   636     019A                     	;# 
   637     019B                     	;# 
   638     019B                     	;# 
   639     019C                     	;# 
   640     019D                     	;# 
   641     019E                     	;# 
   642     019F                     	;# 
   643     020C                     	;# 
   644     020E                     	;# 
   645     028C                     	;# 
   646     028E                     	;# 
   647     030C                     	;# 
   648     030E                     	;# 
   649     038C                     	;# 
   650     038E                     	;# 
   651     0391                     	;# 
   652     0392                     	;# 
   653     0393                     	;# 
   654     0397                     	;# 
   655     0398                     	;# 
   656     0399                     	;# 
   657     0691                     	;# 
   658     0692                     	;# 
   659     0693                     	;# 
   660     0694                     	;# 
   661     0695                     	;# 
   662     0D8E                     	;# 
   663     0D8F                     	;# 
   664     0D90                     	;# 
   665     0D91                     	;# 
   666     0D91                     	;# 
   667     0D92                     	;# 
   668     0D93                     	;# 
   669     0D93                     	;# 
   670     0D94                     	;# 
   671     0D95                     	;# 
   672     0D95                     	;# 
   673     0D96                     	;# 
   674     0D97                     	;# 
   675     0D97                     	;# 
   676     0D98                     	;# 
   677     0D99                     	;# 
   678     0D99                     	;# 
   679     0D9A                     	;# 
   680     0D9B                     	;# 
   681     0D9C                     	;# 
   682     0D9C                     	;# 
   683     0D9D                     	;# 
   684     0D9D                     	;# 
   685     0D9E                     	;# 
   686     0D9F                     	;# 
   687     0DA0                     	;# 
   688     0DA1                     	;# 
   689     0DA1                     	;# 
   690     0DA2                     	;# 
   691     0DA3                     	;# 
   692     0DA3                     	;# 
   693     0DA4                     	;# 
   694     0DA5                     	;# 
   695     0DA5                     	;# 
   696     0DA6                     	;# 
   697     0DA7                     	;# 
   698     0DA7                     	;# 
   699     0DA8                     	;# 
   700     0DA9                     	;# 
   701     0DA9                     	;# 
   702     0DAA                     	;# 
   703     0DAB                     	;# 
   704     0DAC                     	;# 
   705     0DAC                     	;# 
   706     0DAD                     	;# 
   707     0DAD                     	;# 
   708     0DAE                     	;# 
   709     0DAF                     	;# 
   710     0DB0                     	;# 
   711     0DB1                     	;# 
   712     0DB1                     	;# 
   713     0DB2                     	;# 
   714     0DB3                     	;# 
   715     0DB3                     	;# 
   716     0DB4                     	;# 
   717     0DB5                     	;# 
   718     0DB5                     	;# 
   719     0DB6                     	;# 
   720     0DB7                     	;# 
   721     0DB7                     	;# 
   722     0DB8                     	;# 
   723     0DB9                     	;# 
   724     0DB9                     	;# 
   725     0DBA                     	;# 
   726     0DBB                     	;# 
   727     0DBC                     	;# 
   728     0DBC                     	;# 
   729     0DBD                     	;# 
   730     0DBD                     	;# 
   731     0DBE                     	;# 
   732     0DBF                     	;# 
   733     0DC0                     	;# 
   734     0DC1                     	;# 
   735     0DC1                     	;# 
   736     0DC2                     	;# 
   737     0DC3                     	;# 
   738     0DC3                     	;# 
   739     0DC4                     	;# 
   740     0DC5                     	;# 
   741     0DC5                     	;# 
   742     0DC6                     	;# 
   743     0DC7                     	;# 
   744     0DC7                     	;# 
   745     0DC8                     	;# 
   746     0DC9                     	;# 
   747     0DC9                     	;# 
   748     0DCA                     	;# 
   749     0DCB                     	;# 
   750     0DCC                     	;# 
   751     0DCC                     	;# 
   752     0DCD                     	;# 
   753     0DCD                     	;# 
   754     0DCE                     	;# 
   755     0DCF                     	;# 
   756     0DD0                     	;# 
   757     0E0F                     	;# 
   758     0E10                     	;# 
   759     0E11                     	;# 
   760     0E12                     	;# 
   761     0E13                     	;# 
   762     0E14                     	;# 
   763     0E15                     	;# 
   764     0E16                     	;# 
   765     0E17                     	;# 
   766     0E90                     	;# 
   767     0E91                     	;# 
   768     0E92                     	;# 
   769     0E94                     	;# 
   770     0E95                     	;# 
   771     0EA0                     	;# 
   772     0EA1                     	;# 
   773     0EA2                     	;# 
   774     0EA3                     	;# 
   775     0EA4                     	;# 
   776     0EA5                     	;# 
   777     0FE4                     	;# 
   778     0FE5                     	;# 
   779     0FE6                     	;# 
   780     0FE7                     	;# 
   781     0FE8                     	;# 
   782     0FE8                     	;# 
   783     0FE9                     	;# 
   784     0FEA                     	;# 
   785     0FEA                     	;# 
   786     0FEB                     	;# 
   787     0FED                     	;# 
   788     0FEE                     	;# 
   789     0FEE                     	;# 
   790     0FEF                     	;# 
   791     0000                     	;# 
   792     0001                     	;# 
   793     0002                     	;# 
   794     0003                     	;# 
   795     0004                     	;# 
   796     0005                     	;# 
   797     0006                     	;# 
   798     0007                     	;# 
   799     0008                     	;# 
   800     0009                     	;# 
   801     000A                     	;# 
   802     000B                     	;# 
   803     000C                     	;# 
   804     000E                     	;# 
   805     0011                     	;# 
   806     0012                     	;# 
   807     0013                     	;# 
   808     0015                     	;# 
   809     0016                     	;# 
   810     0016                     	;# 
   811     0017                     	;# 
   812     0018                     	;# 
   813     0019                     	;# 
   814     001A                     	;# 
   815     001B                     	;# 
   816     001C                     	;# 
   817     008C                     	;# 
   818     008E                     	;# 
   819     0091                     	;# 
   820     0092                     	;# 
   821     0093                     	;# 
   822     0095                     	;# 
   823     0096                     	;# 
   824     0097                     	;# 
   825     0098                     	;# 
   826     0099                     	;# 
   827     009A                     	;# 
   828     009B                     	;# 
   829     009B                     	;# 
   830     009C                     	;# 
   831     009D                     	;# 
   832     009E                     	;# 
   833     009F                     	;# 
   834     010C                     	;# 
   835     010E                     	;# 
   836     0111                     	;# 
   837     0112                     	;# 
   838     0113                     	;# 
   839     0114                     	;# 
   840     0115                     	;# 
   841     0116                     	;# 
   842     0117                     	;# 
   843     0118                     	;# 
   844     0119                     	;# 
   845     018C                     	;# 
   846     018E                     	;# 
   847     0191                     	;# 
   848     0191                     	;# 
   849     0192                     	;# 
   850     0193                     	;# 
   851     0193                     	;# 
   852     0194                     	;# 
   853     0195                     	;# 
   854     0196                     	;# 
   855     0199                     	;# 
   856     019A                     	;# 
   857     019B                     	;# 
   858     019B                     	;# 
   859     019C                     	;# 
   860     019D                     	;# 
   861     019E                     	;# 
   862     019F                     	;# 
   863     020C                     	;# 
   864     020E                     	;# 
   865     028C                     	;# 
   866     028E                     	;# 
   867     030C                     	;# 
   868     030E                     	;# 
   869     038C                     	;# 
   870     038E                     	;# 
   871     0391                     	;# 
   872     0392                     	;# 
   873     0393                     	;# 
   874     0397                     	;# 
   875     0398                     	;# 
   876     0399                     	;# 
   877     0691                     	;# 
   878     0692                     	;# 
   879     0693                     	;# 
   880     0694                     	;# 
   881     0695                     	;# 
   882     0D8E                     	;# 
   883     0D8F                     	;# 
   884     0D90                     	;# 
   885     0D91                     	;# 
   886     0D91                     	;# 
   887     0D92                     	;# 
   888     0D93                     	;# 
   889     0D93                     	;# 
   890     0D94                     	;# 
   891     0D95                     	;# 
   892     0D95                     	;# 
   893     0D96                     	;# 
   894     0D97                     	;# 
   895     0D97                     	;# 
   896     0D98                     	;# 
   897     0D99                     	;# 
   898     0D99                     	;# 
   899     0D9A                     	;# 
   900     0D9B                     	;# 
   901     0D9C                     	;# 
   902     0D9C                     	;# 
   903     0D9D                     	;# 
   904     0D9D                     	;# 
   905     0D9E                     	;# 
   906     0D9F                     	;# 
   907     0DA0                     	;# 
   908     0DA1                     	;# 
   909     0DA1                     	;# 
   910     0DA2                     	;# 
   911     0DA3                     	;# 
   912     0DA3                     	;# 
   913     0DA4                     	;# 
   914     0DA5                     	;# 
   915     0DA5                     	;# 
   916     0DA6                     	;# 
   917     0DA7                     	;# 
   918     0DA7                     	;# 
   919     0DA8                     	;# 
   920     0DA9                     	;# 
   921     0DA9                     	;# 
   922     0DAA                     	;# 
   923     0DAB                     	;# 
   924     0DAC                     	;# 
   925     0DAC                     	;# 
   926     0DAD                     	;# 
   927     0DAD                     	;# 
   928     0DAE                     	;# 
   929     0DAF                     	;# 
   930     0DB0                     	;# 
   931     0DB1                     	;# 
   932     0DB1                     	;# 
   933     0DB2                     	;# 
   934     0DB3                     	;# 
   935     0DB3                     	;# 
   936     0DB4                     	;# 
   937     0DB5                     	;# 
   938     0DB5                     	;# 
   939     0DB6                     	;# 
   940     0DB7                     	;# 
   941     0DB7                     	;# 
   942     0DB8                     	;# 
   943     0DB9                     	;# 
   944     0DB9                     	;# 
   945     0DBA                     	;# 
   946     0DBB                     	;# 
   947     0DBC                     	;# 
   948     0DBC                     	;# 
   949     0DBD                     	;# 
   950     0DBD                     	;# 
   951     0DBE                     	;# 
   952     0DBF                     	;# 
   953     0DC0                     	;# 
   954     0DC1                     	;# 
   955     0DC1                     	;# 
   956     0DC2                     	;# 
   957     0DC3                     	;# 
   958     0DC3                     	;# 
   959     0DC4                     	;# 
   960     0DC5                     	;# 
   961     0DC5                     	;# 
   962     0DC6                     	;# 
   963     0DC7                     	;# 
   964     0DC7                     	;# 
   965     0DC8                     	;# 
   966     0DC9                     	;# 
   967     0DC9                     	;# 
   968     0DCA                     	;# 
   969     0DCB                     	;# 
   970     0DCC                     	;# 
   971     0DCC                     	;# 
   972     0DCD                     	;# 
   973     0DCD                     	;# 
   974     0DCE                     	;# 
   975     0DCF                     	;# 
   976     0DD0                     	;# 
   977     0E0F                     	;# 
   978     0E10                     	;# 
   979     0E11                     	;# 
   980     0E12                     	;# 
   981     0E13                     	;# 
   982     0E14                     	;# 
   983     0E15                     	;# 
   984     0E16                     	;# 
   985     0E17                     	;# 
   986     0E90                     	;# 
   987     0E91                     	;# 
   988     0E92                     	;# 
   989     0E94                     	;# 
   990     0E95                     	;# 
   991     0EA0                     	;# 
   992     0EA1                     	;# 
   993     0EA2                     	;# 
   994     0EA3                     	;# 
   995     0EA4                     	;# 
   996     0EA5                     	;# 
   997     0FE4                     	;# 
   998     0FE5                     	;# 
   999     0FE6                     	;# 
  1000     0FE7                     	;# 
  1001     0FE8                     	;# 
  1002     0FE8                     	;# 
  1003     0FE9                     	;# 
  1004     0FEA                     	;# 
  1005     0FEA                     	;# 
  1006     0FEB                     	;# 
  1007     0FED                     	;# 
  1008     0FEE                     	;# 
  1009     0FEE                     	;# 
  1010     0FEF                     	;# 
  1011     0000                     	;# 
  1012     0001                     	;# 
  1013     0002                     	;# 
  1014     0003                     	;# 
  1015     0004                     	;# 
  1016     0005                     	;# 
  1017     0006                     	;# 
  1018     0007                     	;# 
  1019     0008                     	;# 
  1020     0009                     	;# 
  1021     000A                     	;# 
  1022     000B                     	;# 
  1023     000C                     	;# 
  1024     000E                     	;# 
  1025     0011                     	;# 
  1026     0012                     	;# 
  1027     0013                     	;# 
  1028     0015                     	;# 
  1029     0016                     	;# 
  1030     0016                     	;# 
  1031     0017                     	;# 
  1032     0018                     	;# 
  1033     0019                     	;# 
  1034     001A                     	;# 
  1035     001B                     	;# 
  1036     001C                     	;# 
  1037     008C                     	;# 
  1038     008E                     	;# 
  1039     0091                     	;# 
  1040     0092                     	;# 
  1041     0093                     	;# 
  1042     0095                     	;# 
  1043     0096                     	;# 
  1044     0097                     	;# 
  1045     0098                     	;# 
  1046     0099                     	;# 
  1047     009A                     	;# 
  1048     009B                     	;# 
  1049     009B                     	;# 
  1050     009C                     	;# 
  1051     009D                     	;# 
  1052     009E                     	;# 
  1053     009F                     	;# 
  1054     010C                     	;# 
  1055     010E                     	;# 
  1056     0111                     	;# 
  1057     0112                     	;# 
  1058     0113                     	;# 
  1059     0114                     	;# 
  1060     0115                     	;# 
  1061     0116                     	;# 
  1062     0117                     	;# 
  1063     0118                     	;# 
  1064     0119                     	;# 
  1065     018C                     	;# 
  1066     018E                     	;# 
  1067     0191                     	;# 
  1068     0191                     	;# 
  1069     0192                     	;# 
  1070     0193                     	;# 
  1071     0193                     	;# 
  1072     0194                     	;# 
  1073     0195                     	;# 
  1074     0196                     	;# 
  1075     0199                     	;# 
  1076     019A                     	;# 
  1077     019B                     	;# 
  1078     019B                     	;# 
  1079     019C                     	;# 
  1080     019D                     	;# 
  1081     019E                     	;# 
  1082     019F                     	;# 
  1083     020C                     	;# 
  1084     020E                     	;# 
  1085     028C                     	;# 
  1086     028E                     	;# 
  1087     030C                     	;# 
  1088     030E                     	;# 
  1089     038C                     	;# 
  1090     038E                     	;# 
  1091     0391                     	;# 
  1092     0392                     	;# 
  1093     0393                     	;# 
  1094     0397                     	;# 
  1095     0398                     	;# 
  1096     0399                     	;# 
  1097     0691                     	;# 
  1098     0692                     	;# 
  1099     0693                     	;# 
  1100     0694                     	;# 
  1101     0695                     	;# 
  1102     0D8E                     	;# 
  1103     0D8F                     	;# 
  1104     0D90                     	;# 
  1105     0D91                     	;# 
  1106     0D91                     	;# 
  1107     0D92                     	;# 
  1108     0D93                     	;# 
  1109     0D93                     	;# 
  1110     0D94                     	;# 
  1111     0D95                     	;# 
  1112     0D95                     	;# 
  1113     0D96                     	;# 
  1114     0D97                     	;# 
  1115     0D97                     	;# 
  1116     0D98                     	;# 
  1117     0D99                     	;# 
  1118     0D99                     	;# 
  1119     0D9A                     	;# 
  1120     0D9B                     	;# 
  1121     0D9C                     	;# 
  1122     0D9C                     	;# 
  1123     0D9D                     	;# 
  1124     0D9D                     	;# 
  1125     0D9E                     	;# 
  1126     0D9F                     	;# 
  1127     0DA0                     	;# 
  1128     0DA1                     	;# 
  1129     0DA1                     	;# 
  1130     0DA2                     	;# 
  1131     0DA3                     	;# 
  1132     0DA3                     	;# 
  1133     0DA4                     	;# 
  1134     0DA5                     	;# 
  1135     0DA5                     	;# 
  1136     0DA6                     	;# 
  1137     0DA7                     	;# 
  1138     0DA7                     	;# 
  1139     0DA8                     	;# 
  1140     0DA9                     	;# 
  1141     0DA9                     	;# 
  1142     0DAA                     	;# 
  1143     0DAB                     	;# 
  1144     0DAC                     	;# 
  1145     0DAC                     	;# 
  1146     0DAD                     	;# 
  1147     0DAD                     	;# 
  1148     0DAE                     	;# 
  1149     0DAF                     	;# 
  1150     0DB0                     	;# 
  1151     0DB1                     	;# 
  1152     0DB1                     	;# 
  1153     0DB2                     	;# 
  1154     0DB3                     	;# 
  1155     0DB3                     	;# 
  1156     0DB4                     	;# 
  1157     0DB5                     	;# 
  1158     0DB5                     	;# 
  1159     0DB6                     	;# 
  1160     0DB7                     	;# 
  1161     0DB7                     	;# 
  1162     0DB8                     	;# 
  1163     0DB9                     	;# 
  1164     0DB9                     	;# 
  1165     0DBA                     	;# 
  1166     0DBB                     	;# 
  1167     0DBC                     	;# 
  1168     0DBC                     	;# 
  1169     0DBD                     	;# 
  1170     0DBD                     	;# 
  1171     0DBE                     	;# 
  1172     0DBF                     	;# 
  1173     0DC0                     	;# 
  1174     0DC1                     	;# 
  1175     0DC1                     	;# 
  1176     0DC2                     	;# 
  1177     0DC3                     	;# 
  1178     0DC3                     	;# 
  1179     0DC4                     	;# 
  1180     0DC5                     	;# 
  1181     0DC5                     	;# 
  1182     0DC6                     	;# 
  1183     0DC7                     	;# 
  1184     0DC7                     	;# 
  1185     0DC8                     	;# 
  1186     0DC9                     	;# 
  1187     0DC9                     	;# 
  1188     0DCA                     	;# 
  1189     0DCB                     	;# 
  1190     0DCC                     	;# 
  1191     0DCC                     	;# 
  1192     0DCD                     	;# 
  1193     0DCD                     	;# 
  1194     0DCE                     	;# 
  1195     0DCF                     	;# 
  1196     0DD0                     	;# 
  1197     0E0F                     	;# 
  1198     0E10                     	;# 
  1199     0E11                     	;# 
  1200     0E12                     	;# 
  1201     0E13                     	;# 
  1202     0E14                     	;# 
  1203     0E15                     	;# 
  1204     0E16                     	;# 
  1205     0E17                     	;# 
  1206     0E90                     	;# 
  1207     0E91                     	;# 
  1208     0E92                     	;# 
  1209     0E94                     	;# 
  1210     0E95                     	;# 
  1211     0EA0                     	;# 
  1212     0EA1                     	;# 
  1213     0EA2                     	;# 
  1214     0EA3                     	;# 
  1215     0EA4                     	;# 
  1216     0EA5                     	;# 
  1217     0FE4                     	;# 
  1218     0FE5                     	;# 
  1219     0FE6                     	;# 
  1220     0FE7                     	;# 
  1221     0FE8                     	;# 
  1222     0FE8                     	;# 
  1223     0FE9                     	;# 
  1224     0FEA                     	;# 
  1225     0FEA                     	;# 
  1226     0FEB                     	;# 
  1227     0FED                     	;# 
  1228     0FEE                     	;# 
  1229     0FEE                     	;# 
  1230     0FEF                     	;# 
  1231     0000                     	;# 
  1232     0001                     	;# 
  1233     0002                     	;# 
  1234     0003                     	;# 
  1235     0004                     	;# 
  1236     0005                     	;# 
  1237     0006                     	;# 
  1238     0007                     	;# 
  1239     0008                     	;# 
  1240     0009                     	;# 
  1241     000A                     	;# 
  1242     000B                     	;# 
  1243     000C                     	;# 
  1244     000E                     	;# 
  1245     0011                     	;# 
  1246     0012                     	;# 
  1247     0013                     	;# 
  1248     0015                     	;# 
  1249     0016                     	;# 
  1250     0016                     	;# 
  1251     0017                     	;# 
  1252     0018                     	;# 
  1253     0019                     	;# 
  1254     001A                     	;# 
  1255     001B                     	;# 
  1256     001C                     	;# 
  1257     008C                     	;# 
  1258     008E                     	;# 
  1259     0091                     	;# 
  1260     0092                     	;# 
  1261     0093                     	;# 
  1262     0095                     	;# 
  1263     0096                     	;# 
  1264     0097                     	;# 
  1265     0098                     	;# 
  1266     0099                     	;# 
  1267     009A                     	;# 
  1268     009B                     	;# 
  1269     009B                     	;# 
  1270     009C                     	;# 
  1271     009D                     	;# 
  1272     009E                     	;# 
  1273     009F                     	;# 
  1274     010C                     	;# 
  1275     010E                     	;# 
  1276     0111                     	;# 
  1277     0112                     	;# 
  1278     0113                     	;# 
  1279     0114                     	;# 
  1280     0115                     	;# 
  1281     0116                     	;# 
  1282     0117                     	;# 
  1283     0118                     	;# 
  1284     0119                     	;# 
  1285     018C                     	;# 
  1286     018E                     	;# 
  1287     0191                     	;# 
  1288     0191                     	;# 
  1289     0192                     	;# 
  1290     0193                     	;# 
  1291     0193                     	;# 
  1292     0194                     	;# 
  1293     0195                     	;# 
  1294     0196                     	;# 
  1295     0199                     	;# 
  1296     019A                     	;# 
  1297     019B                     	;# 
  1298     019B                     	;# 
  1299     019C                     	;# 
  1300     019D                     	;# 
  1301     019E                     	;# 
  1302     019F                     	;# 
  1303     020C                     	;# 
  1304     020E                     	;# 
  1305     028C                     	;# 
  1306     028E                     	;# 
  1307     030C                     	;# 
  1308     030E                     	;# 
  1309     038C                     	;# 
  1310     038E                     	;# 
  1311     0391                     	;# 
  1312     0392                     	;# 
  1313     0393                     	;# 
  1314     0397                     	;# 
  1315     0398                     	;# 
  1316     0399                     	;# 
  1317     0691                     	;# 
  1318     0692                     	;# 
  1319     0693                     	;# 
  1320     0694                     	;# 
  1321     0695                     	;# 
  1322     0D8E                     	;# 
  1323     0D8F                     	;# 
  1324     0D90                     	;# 
  1325     0D91                     	;# 
  1326     0D91                     	;# 
  1327     0D92                     	;# 
  1328     0D93                     	;# 
  1329     0D93                     	;# 
  1330     0D94                     	;# 
  1331     0D95                     	;# 
  1332     0D95                     	;# 
  1333     0D96                     	;# 
  1334     0D97                     	;# 
  1335     0D97                     	;# 
  1336     0D98                     	;# 
  1337     0D99                     	;# 
  1338     0D99                     	;# 
  1339     0D9A                     	;# 
  1340     0D9B                     	;# 
  1341     0D9C                     	;# 
  1342     0D9C                     	;# 
  1343     0D9D                     	;# 
  1344     0D9D                     	;# 
  1345     0D9E                     	;# 
  1346     0D9F                     	;# 
  1347     0DA0                     	;# 
  1348     0DA1                     	;# 
  1349     0DA1                     	;# 
  1350     0DA2                     	;# 
  1351     0DA3                     	;# 
  1352     0DA3                     	;# 
  1353     0DA4                     	;# 
  1354     0DA5                     	;# 
  1355     0DA5                     	;# 
  1356     0DA6                     	;# 
  1357     0DA7                     	;# 
  1358     0DA7                     	;# 
  1359     0DA8                     	;# 
  1360     0DA9                     	;# 
  1361     0DA9                     	;# 
  1362     0DAA                     	;# 
  1363     0DAB                     	;# 
  1364     0DAC                     	;# 
  1365     0DAC                     	;# 
  1366     0DAD                     	;# 
  1367     0DAD                     	;# 
  1368     0DAE                     	;# 
  1369     0DAF                     	;# 
  1370     0DB0                     	;# 
  1371     0DB1                     	;# 
  1372     0DB1                     	;# 
  1373     0DB2                     	;# 
  1374     0DB3                     	;# 
  1375     0DB3                     	;# 
  1376     0DB4                     	;# 
  1377     0DB5                     	;# 
  1378     0DB5                     	;# 
  1379     0DB6                     	;# 
  1380     0DB7                     	;# 
  1381     0DB7                     	;# 
  1382     0DB8                     	;# 
  1383     0DB9                     	;# 
  1384     0DB9                     	;# 
  1385     0DBA                     	;# 
  1386     0DBB                     	;# 
  1387     0DBC                     	;# 
  1388     0DBC                     	;# 
  1389     0DBD                     	;# 
  1390     0DBD                     	;# 
  1391     0DBE                     	;# 
  1392     0DBF                     	;# 
  1393     0DC0                     	;# 
  1394     0DC1                     	;# 
  1395     0DC1                     	;# 
  1396     0DC2                     	;# 
  1397     0DC3                     	;# 
  1398     0DC3                     	;# 
  1399     0DC4                     	;# 
  1400     0DC5                     	;# 
  1401     0DC5                     	;# 
  1402     0DC6                     	;# 
  1403     0DC7                     	;# 
  1404     0DC7                     	;# 
  1405     0DC8                     	;# 
  1406     0DC9                     	;# 
  1407     0DC9                     	;# 
  1408     0DCA                     	;# 
  1409     0DCB                     	;# 
  1410     0DCC                     	;# 
  1411     0DCC                     	;# 
  1412     0DCD                     	;# 
  1413     0DCD                     	;# 
  1414     0DCE                     	;# 
  1415     0DCF                     	;# 
  1416     0DD0                     	;# 
  1417     0E0F                     	;# 
  1418     0E10                     	;# 
  1419     0E11                     	;# 
  1420     0E12                     	;# 
  1421     0E13                     	;# 
  1422     0E14                     	;# 
  1423     0E15                     	;# 
  1424     0E16                     	;# 
  1425     0E17                     	;# 
  1426     0E90                     	;# 
  1427     0E91                     	;# 
  1428     0E92                     	;# 
  1429     0E94                     	;# 
  1430     0E95                     	;# 
  1431     0EA0                     	;# 
  1432     0EA1                     	;# 
  1433     0EA2                     	;# 
  1434     0EA3                     	;# 
  1435     0EA4                     	;# 
  1436     0EA5                     	;# 
  1437     0FE4                     	;# 
  1438     0FE5                     	;# 
  1439     0FE6                     	;# 
  1440     0FE7                     	;# 
  1441     0FE8                     	;# 
  1442     0FE8                     	;# 
  1443     0FE9                     	;# 
  1444     0FEA                     	;# 
  1445     0FEA                     	;# 
  1446     0FEB                     	;# 
  1447     0FED                     	;# 
  1448     0FEE                     	;# 
  1449     0FEE                     	;# 
  1450     0FEF                     	;# 
  1451     0000                     	;# 
  1452     0001                     	;# 
  1453     0002                     	;# 
  1454     0003                     	;# 
  1455     0004                     	;# 
  1456     0005                     	;# 
  1457     0006                     	;# 
  1458     0007                     	;# 
  1459     0008                     	;# 
  1460     0009                     	;# 
  1461     000A                     	;# 
  1462     000B                     	;# 
  1463     000C                     	;# 
  1464     000E                     	;# 
  1465     0011                     	;# 
  1466     0012                     	;# 
  1467     0013                     	;# 
  1468     0015                     	;# 
  1469     0016                     	;# 
  1470     0016                     	;# 
  1471     0017                     	;# 
  1472     0018                     	;# 
  1473     0019                     	;# 
  1474     001A                     	;# 
  1475     001B                     	;# 
  1476     001C                     	;# 
  1477     008C                     	;# 
  1478     008E                     	;# 
  1479     0091                     	;# 
  1480     0092                     	;# 
  1481     0093                     	;# 
  1482     0095                     	;# 
  1483     0096                     	;# 
  1484     0097                     	;# 
  1485     0098                     	;# 
  1486     0099                     	;# 
  1487     009A                     	;# 
  1488     009B                     	;# 
  1489     009B                     	;# 
  1490     009C                     	;# 
  1491     009D                     	;# 
  1492     009E                     	;# 
  1493     009F                     	;# 
  1494     010C                     	;# 
  1495     010E                     	;# 
  1496     0111                     	;# 
  1497     0112                     	;# 
  1498     0113                     	;# 
  1499     0114                     	;# 
  1500     0115                     	;# 
  1501     0116                     	;# 
  1502     0117                     	;# 
  1503     0118                     	;# 
  1504     0119                     	;# 
  1505     018C                     	;# 
  1506     018E                     	;# 
  1507     0191                     	;# 
  1508     0191                     	;# 
  1509     0192                     	;# 
  1510     0193                     	;# 
  1511     0193                     	;# 
  1512     0194                     	;# 
  1513     0195                     	;# 
  1514     0196                     	;# 
  1515     0199                     	;# 
  1516     019A                     	;# 
  1517     019B                     	;# 
  1518     019B                     	;# 
  1519     019C                     	;# 
  1520     019D                     	;# 
  1521     019E                     	;# 
  1522     019F                     	;# 
  1523     020C                     	;# 
  1524     020E                     	;# 
  1525     028C                     	;# 
  1526     028E                     	;# 
  1527     030C                     	;# 
  1528     030E                     	;# 
  1529     038C                     	;# 
  1530     038E                     	;# 
  1531     0391                     	;# 
  1532     0392                     	;# 
  1533     0393                     	;# 
  1534     0397                     	;# 
  1535     0398                     	;# 
  1536     0399                     	;# 
  1537     0691                     	;# 
  1538     0692                     	;# 
  1539     0693                     	;# 
  1540     0694                     	;# 
  1541     0695                     	;# 
  1542     0D8E                     	;# 
  1543     0D8F                     	;# 
  1544     0D90                     	;# 
  1545     0D91                     	;# 
  1546     0D91                     	;# 
  1547     0D92                     	;# 
  1548     0D93                     	;# 
  1549     0D93                     	;# 
  1550     0D94                     	;# 
  1551     0D95                     	;# 
  1552     0D95                     	;# 
  1553     0D96                     	;# 
  1554     0D97                     	;# 
  1555     0D97                     	;# 
  1556     0D98                     	;# 
  1557     0D99                     	;# 
  1558     0D99                     	;# 
  1559     0D9A                     	;# 
  1560     0D9B                     	;# 
  1561     0D9C                     	;# 
  1562     0D9C                     	;# 
  1563     0D9D                     	;# 
  1564     0D9D                     	;# 
  1565     0D9E                     	;# 
  1566     0D9F                     	;# 
  1567     0DA0                     	;# 
  1568     0DA1                     	;# 
  1569     0DA1                     	;# 
  1570     0DA2                     	;# 
  1571     0DA3                     	;# 
  1572     0DA3                     	;# 
  1573     0DA4                     	;# 
  1574     0DA5                     	;# 
  1575     0DA5                     	;# 
  1576     0DA6                     	;# 
  1577     0DA7                     	;# 
  1578     0DA7                     	;# 
  1579     0DA8                     	;# 
  1580     0DA9                     	;# 
  1581     0DA9                     	;# 
  1582     0DAA                     	;# 
  1583     0DAB                     	;# 
  1584     0DAC                     	;# 
  1585     0DAC                     	;# 
  1586     0DAD                     	;# 
  1587     0DAD                     	;# 
  1588     0DAE                     	;# 
  1589     0DAF                     	;# 
  1590     0DB0                     	;# 
  1591     0DB1                     	;# 
  1592     0DB1                     	;# 
  1593     0DB2                     	;# 
  1594     0DB3                     	;# 
  1595     0DB3                     	;# 
  1596     0DB4                     	;# 
  1597     0DB5                     	;# 
  1598     0DB5                     	;# 
  1599     0DB6                     	;# 
  1600     0DB7                     	;# 
  1601     0DB7                     	;# 
  1602     0DB8                     	;# 
  1603     0DB9                     	;# 
  1604     0DB9                     	;# 
  1605     0DBA                     	;# 
  1606     0DBB                     	;# 
  1607     0DBC                     	;# 
  1608     0DBC                     	;# 
  1609     0DBD                     	;# 
  1610     0DBD                     	;# 
  1611     0DBE                     	;# 
  1612     0DBF                     	;# 
  1613     0DC0                     	;# 
  1614     0DC1                     	;# 
  1615     0DC1                     	;# 
  1616     0DC2                     	;# 
  1617     0DC3                     	;# 
  1618     0DC3                     	;# 
  1619     0DC4                     	;# 
  1620     0DC5                     	;# 
  1621     0DC5                     	;# 
  1622     0DC6                     	;# 
  1623     0DC7                     	;# 
  1624     0DC7                     	;# 
  1625     0DC8                     	;# 
  1626     0DC9                     	;# 
  1627     0DC9                     	;# 
  1628     0DCA                     	;# 
  1629     0DCB                     	;# 
  1630     0DCC                     	;# 
  1631     0DCC                     	;# 
  1632     0DCD                     	;# 
  1633     0DCD                     	;# 
  1634     0DCE                     	;# 
  1635     0DCF                     	;# 
  1636     0DD0                     	;# 
  1637     0E0F                     	;# 
  1638     0E10                     	;# 
  1639     0E11                     	;# 
  1640     0E12                     	;# 
  1641     0E13                     	;# 
  1642     0E14                     	;# 
  1643     0E15                     	;# 
  1644     0E16                     	;# 
  1645     0E17                     	;# 
  1646     0E90                     	;# 
  1647     0E91                     	;# 
  1648     0E92                     	;# 
  1649     0E94                     	;# 
  1650     0E95                     	;# 
  1651     0EA0                     	;# 
  1652     0EA1                     	;# 
  1653     0EA2                     	;# 
  1654     0EA3                     	;# 
  1655     0EA4                     	;# 
  1656     0EA5                     	;# 
  1657     0FE4                     	;# 
  1658     0FE5                     	;# 
  1659     0FE6                     	;# 
  1660     0FE7                     	;# 
  1661     0FE8                     	;# 
  1662     0FE8                     	;# 
  1663     0FE9                     	;# 
  1664     0FEA                     	;# 
  1665     0FEA                     	;# 
  1666     0FEB                     	;# 
  1667     0FED                     	;# 
  1668     0FEE                     	;# 
  1669     0FEE                     	;# 
  1670     0FEF                     	;# 
  1671     0000                     	;# 
  1672     0001                     	;# 
  1673     0002                     	;# 
  1674     0003                     	;# 
  1675     0004                     	;# 
  1676     0005                     	;# 
  1677     0006                     	;# 
  1678     0007                     	;# 
  1679     0008                     	;# 
  1680     0009                     	;# 
  1681     000A                     	;# 
  1682     000B                     	;# 
  1683     000C                     	;# 
  1684     000E                     	;# 
  1685     0011                     	;# 
  1686     0012                     	;# 
  1687     0013                     	;# 
  1688     0015                     	;# 
  1689     0016                     	;# 
  1690     0016                     	;# 
  1691     0017                     	;# 
  1692     0018                     	;# 
  1693     0019                     	;# 
  1694     001A                     	;# 
  1695     001B                     	;# 
  1696     001C                     	;# 
  1697     008C                     	;# 
  1698     008E                     	;# 
  1699     0091                     	;# 
  1700     0092                     	;# 
  1701     0093                     	;# 
  1702     0095                     	;# 
  1703     0096                     	;# 
  1704     0097                     	;# 
  1705     0098                     	;# 
  1706     0099                     	;# 
  1707     009A                     	;# 
  1708     009B                     	;# 
  1709     009B                     	;# 
  1710     009C                     	;# 
  1711     009D                     	;# 
  1712     009E                     	;# 
  1713     009F                     	;# 
  1714     010C                     	;# 
  1715     010E                     	;# 
  1716     0111                     	;# 
  1717     0112                     	;# 
  1718     0113                     	;# 
  1719     0114                     	;# 
  1720     0115                     	;# 
  1721     0116                     	;# 
  1722     0117                     	;# 
  1723     0118                     	;# 
  1724     0119                     	;# 
  1725     018C                     	;# 
  1726     018E                     	;# 
  1727     0191                     	;# 
  1728     0191                     	;# 
  1729     0192                     	;# 
  1730     0193                     	;# 
  1731     0193                     	;# 
  1732     0194                     	;# 
  1733     0195                     	;# 
  1734     0196                     	;# 
  1735     0199                     	;# 
  1736     019A                     	;# 
  1737     019B                     	;# 
  1738     019B                     	;# 
  1739     019C                     	;# 
  1740     019D                     	;# 
  1741     019E                     	;# 
  1742     019F                     	;# 
  1743     020C                     	;# 
  1744     020E                     	;# 
  1745     028C                     	;# 
  1746     028E                     	;# 
  1747     030C                     	;# 
  1748     030E                     	;# 
  1749     038C                     	;# 
  1750     038E                     	;# 
  1751     0391                     	;# 
  1752     0392                     	;# 
  1753     0393                     	;# 
  1754     0397                     	;# 
  1755     0398                     	;# 
  1756     0399                     	;# 
  1757     0691                     	;# 
  1758     0692                     	;# 
  1759     0693                     	;# 
  1760     0694                     	;# 
  1761     0695                     	;# 
  1762     0D8E                     	;# 
  1763     0D8F                     	;# 
  1764     0D90                     	;# 
  1765     0D91                     	;# 
  1766     0D91                     	;# 
  1767     0D92                     	;# 
  1768     0D93                     	;# 
  1769     0D93                     	;# 
  1770     0D94                     	;# 
  1771     0D95                     	;# 
  1772     0D95                     	;# 
  1773     0D96                     	;# 
  1774     0D97                     	;# 
  1775     0D97                     	;# 
  1776     0D98                     	;# 
  1777     0D99                     	;# 
  1778     0D99                     	;# 
  1779     0D9A                     	;# 
  1780     0D9B                     	;# 
  1781     0D9C                     	;# 
  1782     0D9C                     	;# 
  1783     0D9D                     	;# 
  1784     0D9D                     	;# 
  1785     0D9E                     	;# 
  1786     0D9F                     	;# 
  1787     0DA0                     	;# 
  1788     0DA1                     	;# 
  1789     0DA1                     	;# 
  1790     0DA2                     	;# 
  1791     0DA3                     	;# 
  1792     0DA3                     	;# 
  1793     0DA4                     	;# 
  1794     0DA5                     	;# 
  1795     0DA5                     	;# 
  1796     0DA6                     	;# 
  1797     0DA7                     	;# 
  1798     0DA7                     	;# 
  1799     0DA8                     	;# 
  1800     0DA9                     	;# 
  1801     0DA9                     	;# 
  1802     0DAA                     	;# 
  1803     0DAB                     	;# 
  1804     0DAC                     	;# 
  1805     0DAC                     	;# 
  1806     0DAD                     	;# 
  1807     0DAD                     	;# 
  1808     0DAE                     	;# 
  1809     0DAF                     	;# 
  1810     0DB0                     	;# 
  1811     0DB1                     	;# 
  1812     0DB1                     	;# 
  1813     0DB2                     	;# 
  1814     0DB3                     	;# 
  1815     0DB3                     	;# 
  1816     0DB4                     	;# 
  1817     0DB5                     	;# 
  1818     0DB5                     	;# 
  1819     0DB6                     	;# 
  1820     0DB7                     	;# 
  1821     0DB7                     	;# 
  1822     0DB8                     	;# 
  1823     0DB9                     	;# 
  1824     0DB9                     	;# 
  1825     0DBA                     	;# 
  1826     0DBB                     	;# 
  1827     0DBC                     	;# 
  1828     0DBC                     	;# 
  1829     0DBD                     	;# 
  1830     0DBD                     	;# 
  1831     0DBE                     	;# 
  1832     0DBF                     	;# 
  1833     0DC0                     	;# 
  1834     0DC1                     	;# 
  1835     0DC1                     	;# 
  1836     0DC2                     	;# 
  1837     0DC3                     	;# 
  1838     0DC3                     	;# 
  1839     0DC4                     	;# 
  1840     0DC5                     	;# 
  1841     0DC5                     	;# 
  1842     0DC6                     	;# 
  1843     0DC7                     	;# 
  1844     0DC7                     	;# 
  1845     0DC8                     	;# 
  1846     0DC9                     	;# 
  1847     0DC9                     	;# 
  1848     0DCA                     	;# 
  1849     0DCB                     	;# 
  1850     0DCC                     	;# 
  1851     0DCC                     	;# 
  1852     0DCD                     	;# 
  1853     0DCD                     	;# 
  1854     0DCE                     	;# 
  1855     0DCF                     	;# 
  1856     0DD0                     	;# 
  1857     0E0F                     	;# 
  1858     0E10                     	;# 
  1859     0E11                     	;# 
  1860     0E12                     	;# 
  1861     0E13                     	;# 
  1862     0E14                     	;# 
  1863     0E15                     	;# 
  1864     0E16                     	;# 
  1865     0E17                     	;# 
  1866     0E90                     	;# 
  1867     0E91                     	;# 
  1868     0E92                     	;# 
  1869     0E94                     	;# 
  1870     0E95                     	;# 
  1871     0EA0                     	;# 
  1872     0EA1                     	;# 
  1873     0EA2                     	;# 
  1874     0EA3                     	;# 
  1875     0EA4                     	;# 
  1876     0EA5                     	;# 
  1877     0FE4                     	;# 
  1878     0FE5                     	;# 
  1879     0FE6                     	;# 
  1880     0FE7                     	;# 
  1881     0FE8                     	;# 
  1882     0FE8                     	;# 
  1883     0FE9                     	;# 
  1884     0FEA                     	;# 
  1885     0FEA                     	;# 
  1886     0FEB                     	;# 
  1887     0FED                     	;# 
  1888     0FEE                     	;# 
  1889     0FEE                     	;# 
  1890     0FEF                     	;# 
  1891     0000                     	;# 
  1892     0001                     	;# 
  1893     0002                     	;# 
  1894     0003                     	;# 
  1895     0004                     	;# 
  1896     0005                     	;# 
  1897     0006                     	;# 
  1898     0007                     	;# 
  1899     0008                     	;# 
  1900     0009                     	;# 
  1901     000A                     	;# 
  1902     000B                     	;# 
  1903     000C                     	;# 
  1904     000E                     	;# 
  1905     0011                     	;# 
  1906     0012                     	;# 
  1907     0013                     	;# 
  1908     0015                     	;# 
  1909     0016                     	;# 
  1910     0016                     	;# 
  1911     0017                     	;# 
  1912     0018                     	;# 
  1913     0019                     	;# 
  1914     001A                     	;# 
  1915     001B                     	;# 
  1916     001C                     	;# 
  1917     008C                     	;# 
  1918     008E                     	;# 
  1919     0091                     	;# 
  1920     0092                     	;# 
  1921     0093                     	;# 
  1922     0095                     	;# 
  1923     0096                     	;# 
  1924     0097                     	;# 
  1925     0098                     	;# 
  1926     0099                     	;# 
  1927     009A                     	;# 
  1928     009B                     	;# 
  1929     009B                     	;# 
  1930     009C                     	;# 
  1931     009D                     	;# 
  1932     009E                     	;# 
  1933     009F                     	;# 
  1934     010C                     	;# 
  1935     010E                     	;# 
  1936     0111                     	;# 
  1937     0112                     	;# 
  1938     0113                     	;# 
  1939     0114                     	;# 
  1940     0115                     	;# 
  1941     0116                     	;# 
  1942     0117                     	;# 
  1943     0118                     	;# 
  1944     0119                     	;# 
  1945     018C                     	;# 
  1946     018E                     	;# 
  1947     0191                     	;# 
  1948     0191                     	;# 
  1949     0192                     	;# 
  1950     0193                     	;# 
  1951     0193                     	;# 
  1952     0194                     	;# 
  1953     0195                     	;# 
  1954     0196                     	;# 
  1955     0199                     	;# 
  1956     019A                     	;# 
  1957     019B                     	;# 
  1958     019B                     	;# 
  1959     019C                     	;# 
  1960     019D                     	;# 
  1961     019E                     	;# 
  1962     019F                     	;# 
  1963     020C                     	;# 
  1964     020E                     	;# 
  1965     028C                     	;# 
  1966     028E                     	;# 
  1967     030C                     	;# 
  1968     030E                     	;# 
  1969     038C                     	;# 
  1970     038E                     	;# 
  1971     0391                     	;# 
  1972     0392                     	;# 
  1973     0393                     	;# 
  1974     0397                     	;# 
  1975     0398                     	;# 
  1976     0399                     	;# 
  1977     0691                     	;# 
  1978     0692                     	;# 
  1979     0693                     	;# 
  1980     0694                     	;# 
  1981     0695                     	;# 
  1982     0D8E                     	;# 
  1983     0D8F                     	;# 
  1984     0D90                     	;# 
  1985     0D91                     	;# 
  1986     0D91                     	;# 
  1987     0D92                     	;# 
  1988     0D93                     	;# 
  1989     0D93                     	;# 
  1990     0D94                     	;# 
  1991     0D95                     	;# 
  1992     0D95                     	;# 
  1993     0D96                     	;# 
  1994     0D97                     	;# 
  1995     0D97                     	;# 
  1996     0D98                     	;# 
  1997     0D99                     	;# 
  1998     0D99                     	;# 
  1999     0D9A                     	;# 
  2000     0D9B                     	;# 
  2001     0D9C                     	;# 
  2002     0D9C                     	;# 
  2003     0D9D                     	;# 
  2004     0D9D                     	;# 
  2005     0D9E                     	;# 
  2006     0D9F                     	;# 
  2007     0DA0                     	;# 
  2008     0DA1                     	;# 
  2009     0DA1                     	;# 
  2010     0DA2                     	;# 
  2011     0DA3                     	;# 
  2012     0DA3                     	;# 
  2013     0DA4                     	;# 
  2014     0DA5                     	;# 
  2015     0DA5                     	;# 
  2016     0DA6                     	;# 
  2017     0DA7                     	;# 
  2018     0DA7                     	;# 
  2019     0DA8                     	;# 
  2020     0DA9                     	;# 
  2021     0DA9                     	;# 
  2022     0DAA                     	;# 
  2023     0DAB                     	;# 
  2024     0DAC                     	;# 
  2025     0DAC                     	;# 
  2026     0DAD                     	;# 
  2027     0DAD                     	;# 
  2028     0DAE                     	;# 
  2029     0DAF                     	;# 
  2030     0DB0                     	;# 
  2031     0DB1                     	;# 
  2032     0DB1                     	;# 
  2033     0DB2                     	;# 
  2034     0DB3                     	;# 
  2035     0DB3                     	;# 
  2036     0DB4                     	;# 
  2037     0DB5                     	;# 
  2038     0DB5                     	;# 
  2039     0DB6                     	;# 
  2040     0DB7                     	;# 
  2041     0DB7                     	;# 
  2042     0DB8                     	;# 
  2043     0DB9                     	;# 
  2044     0DB9                     	;# 
  2045     0DBA                     	;# 
  2046     0DBB                     	;# 
  2047     0DBC                     	;# 
  2048     0DBC                     	;# 
  2049     0DBD                     	;# 
  2050     0DBD                     	;# 
  2051     0DBE                     	;# 
  2052     0DBF                     	;# 
  2053     0DC0                     	;# 
  2054     0DC1                     	;# 
  2055     0DC1                     	;# 
  2056     0DC2                     	;# 
  2057     0DC3                     	;# 
  2058     0DC3                     	;# 
  2059     0DC4                     	;# 
  2060     0DC5                     	;# 
  2061     0DC5                     	;# 
  2062     0DC6                     	;# 
  2063     0DC7                     	;# 
  2064     0DC7                     	;# 
  2065     0DC8                     	;# 
  2066     0DC9                     	;# 
  2067     0DC9                     	;# 
  2068     0DCA                     	;# 
  2069     0DCB                     	;# 
  2070     0DCC                     	;# 
  2071     0DCC                     	;# 
  2072     0DCD                     	;# 
  2073     0DCD                     	;# 
  2074     0DCE                     	;# 
  2075     0DCF                     	;# 
  2076     0DD0                     	;# 
  2077     0E0F                     	;# 
  2078     0E10                     	;# 
  2079     0E11                     	;# 
  2080     0E12                     	;# 
  2081     0E13                     	;# 
  2082     0E14                     	;# 
  2083     0E15                     	;# 
  2084     0E16                     	;# 
  2085     0E17                     	;# 
  2086     0E90                     	;# 
  2087     0E91                     	;# 
  2088     0E92                     	;# 
  2089     0E94                     	;# 
  2090     0E95                     	;# 
  2091     0EA0                     	;# 
  2092     0EA1                     	;# 
  2093     0EA2                     	;# 
  2094     0EA3                     	;# 
  2095     0EA4                     	;# 
  2096     0EA5                     	;# 
  2097     0FE4                     	;# 
  2098     0FE5                     	;# 
  2099     0FE6                     	;# 
  2100     0FE7                     	;# 
  2101     0FE8                     	;# 
  2102     0FE8                     	;# 
  2103     0FE9                     	;# 
  2104     0FEA                     	;# 
  2105     0FEA                     	;# 
  2106     0FEB                     	;# 
  2107     0FED                     	;# 
  2108     0FEE                     	;# 
  2109     0FEE                     	;# 
  2110     0FEF                     	;# 
  2111     0000                     	;# 
  2112     0001                     	;# 
  2113     0002                     	;# 
  2114     0003                     	;# 
  2115     0004                     	;# 
  2116     0005                     	;# 
  2117     0006                     	;# 
  2118     0007                     	;# 
  2119     0008                     	;# 
  2120     0009                     	;# 
  2121     000A                     	;# 
  2122     000B                     	;# 
  2123     000C                     	;# 
  2124     000E                     	;# 
  2125     0011                     	;# 
  2126     0012                     	;# 
  2127     0013                     	;# 
  2128     0015                     	;# 
  2129     0016                     	;# 
  2130     0016                     	;# 
  2131     0017                     	;# 
  2132     0018                     	;# 
  2133     0019                     	;# 
  2134     001A                     	;# 
  2135     001B                     	;# 
  2136     001C                     	;# 
  2137     008C                     	;# 
  2138     008E                     	;# 
  2139     0091                     	;# 
  2140     0092                     	;# 
  2141     0093                     	;# 
  2142     0095                     	;# 
  2143     0096                     	;# 
  2144     0097                     	;# 
  2145     0098                     	;# 
  2146     0099                     	;# 
  2147     009A                     	;# 
  2148     009B                     	;# 
  2149     009B                     	;# 
  2150     009C                     	;# 
  2151     009D                     	;# 
  2152     009E                     	;# 
  2153     009F                     	;# 
  2154     010C                     	;# 
  2155     010E                     	;# 
  2156     0111                     	;# 
  2157     0112                     	;# 
  2158     0113                     	;# 
  2159     0114                     	;# 
  2160     0115                     	;# 
  2161     0116                     	;# 
  2162     0117                     	;# 
  2163     0118                     	;# 
  2164     0119                     	;# 
  2165     018C                     	;# 
  2166     018E                     	;# 
  2167     0191                     	;# 
  2168     0191                     	;# 
  2169     0192                     	;# 
  2170     0193                     	;# 
  2171     0193                     	;# 
  2172     0194                     	;# 
  2173     0195                     	;# 
  2174     0196                     	;# 
  2175     0199                     	;# 
  2176     019A                     	;# 
  2177     019B                     	;# 
  2178     019B                     	;# 
  2179     019C                     	;# 
  2180     019D                     	;# 
  2181     019E                     	;# 
  2182     019F                     	;# 
  2183     020C                     	;# 
  2184     020E                     	;# 
  2185     028C                     	;# 
  2186     028E                     	;# 
  2187     030C                     	;# 
  2188     030E                     	;# 
  2189     038C                     	;# 
  2190     038E                     	;# 
  2191     0391                     	;# 
  2192     0392                     	;# 
  2193     0393                     	;# 
  2194     0397                     	;# 
  2195     0398                     	;# 
  2196     0399                     	;# 
  2197     0691                     	;# 
  2198     0692                     	;# 
  2199     0693                     	;# 
  2200     0694                     	;# 
  2201     0695                     	;# 
  2202     0D8E                     	;# 
  2203     0D8F                     	;# 
  2204     0D90                     	;# 
  2205     0D91                     	;# 
  2206     0D91                     	;# 
  2207     0D92                     	;# 
  2208     0D93                     	;# 
  2209     0D93                     	;# 
  2210     0D94                     	;# 
  2211     0D95                     	;# 
  2212     0D95                     	;# 
  2213     0D96                     	;# 
  2214     0D97                     	;# 
  2215     0D97                     	;# 
  2216     0D98                     	;# 
  2217     0D99                     	;# 
  2218     0D99                     	;# 
  2219     0D9A                     	;# 
  2220     0D9B                     	;# 
  2221     0D9C                     	;# 
  2222     0D9C                     	;# 
  2223     0D9D                     	;# 
  2224     0D9D                     	;# 
  2225     0D9E                     	;# 
  2226     0D9F                     	;# 
  2227     0DA0                     	;# 
  2228     0DA1                     	;# 
  2229     0DA1                     	;# 
  2230     0DA2                     	;# 
  2231     0DA3                     	;# 
  2232     0DA3                     	;# 
  2233     0DA4                     	;# 
  2234     0DA5                     	;# 
  2235     0DA5                     	;# 
  2236     0DA6                     	;# 
  2237     0DA7                     	;# 
  2238     0DA7                     	;# 
  2239     0DA8                     	;# 
  2240     0DA9                     	;# 
  2241     0DA9                     	;# 
  2242     0DAA                     	;# 
  2243     0DAB                     	;# 
  2244     0DAC                     	;# 
  2245     0DAC                     	;# 
  2246     0DAD                     	;# 
  2247     0DAD                     	;# 
  2248     0DAE                     	;# 
  2249     0DAF                     	;# 
  2250     0DB0                     	;# 
  2251     0DB1                     	;# 
  2252     0DB1                     	;# 
  2253     0DB2                     	;# 
  2254     0DB3                     	;# 
  2255     0DB3                     	;# 
  2256     0DB4                     	;# 
  2257     0DB5                     	;# 
  2258     0DB5                     	;# 
  2259     0DB6                     	;# 
  2260     0DB7                     	;# 
  2261     0DB7                     	;# 
  2262     0DB8                     	;# 
  2263     0DB9                     	;# 
  2264     0DB9                     	;# 
  2265     0DBA                     	;# 
  2266     0DBB                     	;# 
  2267     0DBC                     	;# 
  2268     0DBC                     	;# 
  2269     0DBD                     	;# 
  2270     0DBD                     	;# 
  2271     0DBE                     	;# 
  2272     0DBF                     	;# 
  2273     0DC0                     	;# 
  2274     0DC1                     	;# 
  2275     0DC1                     	;# 
  2276     0DC2                     	;# 
  2277     0DC3                     	;# 
  2278     0DC3                     	;# 
  2279     0DC4                     	;# 
  2280     0DC5                     	;# 
  2281     0DC5                     	;# 
  2282     0DC6                     	;# 
  2283     0DC7                     	;# 
  2284     0DC7                     	;# 
  2285     0DC8                     	;# 
  2286     0DC9                     	;# 
  2287     0DC9                     	;# 
  2288     0DCA                     	;# 
  2289     0DCB                     	;# 
  2290     0DCC                     	;# 
  2291     0DCC                     	;# 
  2292     0DCD                     	;# 
  2293     0DCD                     	;# 
  2294     0DCE                     	;# 
  2295     0DCF                     	;# 
  2296     0DD0                     	;# 
  2297     0E0F                     	;# 
  2298     0E10                     	;# 
  2299     0E11                     	;# 
  2300     0E12                     	;# 
  2301     0E13                     	;# 
  2302     0E14                     	;# 
  2303     0E15                     	;# 
  2304     0E16                     	;# 
  2305     0E17                     	;# 
  2306     0E90                     	;# 
  2307     0E91                     	;# 
  2308     0E92                     	;# 
  2309     0E94                     	;# 
  2310     0E95                     	;# 
  2311     0EA0                     	;# 
  2312     0EA1                     	;# 
  2313     0EA2                     	;# 
  2314     0EA3                     	;# 
  2315     0EA4                     	;# 
  2316     0EA5                     	;# 
  2317     0FE4                     	;# 
  2318     0FE5                     	;# 
  2319     0FE6                     	;# 
  2320     0FE7                     	;# 
  2321     0FE8                     	;# 
  2322     0FE8                     	;# 
  2323     0FE9                     	;# 
  2324     0FEA                     	;# 
  2325     0FEA                     	;# 
  2326     0FEB                     	;# 
  2327     0FED                     	;# 
  2328     0FEE                     	;# 
  2329     0FEE                     	;# 
  2330     0FEF                     	;# 
  2331     0000                     	;# 
  2332     0001                     	;# 
  2333     0002                     	;# 
  2334     0003                     	;# 
  2335     0004                     	;# 
  2336     0005                     	;# 
  2337     0006                     	;# 
  2338     0007                     	;# 
  2339     0008                     	;# 
  2340     0009                     	;# 
  2341     000A                     	;# 
  2342     000B                     	;# 
  2343     000C                     	;# 
  2344     000E                     	;# 
  2345     0011                     	;# 
  2346     0012                     	;# 
  2347     0013                     	;# 
  2348     0015                     	;# 
  2349     0016                     	;# 
  2350     0016                     	;# 
  2351     0017                     	;# 
  2352     0018                     	;# 
  2353     0019                     	;# 
  2354     001A                     	;# 
  2355     001B                     	;# 
  2356     001C                     	;# 
  2357     008C                     	;# 
  2358     008E                     	;# 
  2359     0091                     	;# 
  2360     0092                     	;# 
  2361     0093                     	;# 
  2362     0095                     	;# 
  2363     0096                     	;# 
  2364     0097                     	;# 
  2365     0098                     	;# 
  2366     0099                     	;# 
  2367     009A                     	;# 
  2368     009B                     	;# 
  2369     009B                     	;# 
  2370     009C                     	;# 
  2371     009D                     	;# 
  2372     009E                     	;# 
  2373     009F                     	;# 
  2374     010C                     	;# 
  2375     010E                     	;# 
  2376     0111                     	;# 
  2377     0112                     	;# 
  2378     0113                     	;# 
  2379     0114                     	;# 
  2380     0115                     	;# 
  2381     0116                     	;# 
  2382     0117                     	;# 
  2383     0118                     	;# 
  2384     0119                     	;# 
  2385     018C                     	;# 
  2386     018E                     	;# 
  2387     0191                     	;# 
  2388     0191                     	;# 
  2389     0192                     	;# 
  2390     0193                     	;# 
  2391     0193                     	;# 
  2392     0194                     	;# 
  2393     0195                     	;# 
  2394     0196                     	;# 
  2395     0199                     	;# 
  2396     019A                     	;# 
  2397     019B                     	;# 
  2398     019B                     	;# 
  2399     019C                     	;# 
  2400     019D                     	;# 
  2401     019E                     	;# 
  2402     019F                     	;# 
  2403     020C                     	;# 
  2404     020E                     	;# 
  2405     028C                     	;# 
  2406     028E                     	;# 
  2407     030C                     	;# 
  2408     030E                     	;# 
  2409     038C                     	;# 
  2410     038E                     	;# 
  2411     0391                     	;# 
  2412     0392                     	;# 
  2413     0393                     	;# 
  2414     0397                     	;# 
  2415     0398                     	;# 
  2416     0399                     	;# 
  2417     0691                     	;# 
  2418     0692                     	;# 
  2419     0693                     	;# 
  2420     0694                     	;# 
  2421     0695                     	;# 
  2422     0D8E                     	;# 
  2423     0D8F                     	;# 
  2424     0D90                     	;# 
  2425     0D91                     	;# 
  2426     0D91                     	;# 
  2427     0D92                     	;# 
  2428     0D93                     	;# 
  2429     0D93                     	;# 
  2430     0D94                     	;# 
  2431     0D95                     	;# 
  2432     0D95                     	;# 
  2433     0D96                     	;# 
  2434     0D97                     	;# 
  2435     0D97                     	;# 
  2436     0D98                     	;# 
  2437     0D99                     	;# 
  2438     0D99                     	;# 
  2439     0D9A                     	;# 
  2440     0D9B                     	;# 
  2441     0D9C                     	;# 
  2442     0D9C                     	;# 
  2443     0D9D                     	;# 
  2444     0D9D                     	;# 
  2445     0D9E                     	;# 
  2446     0D9F                     	;# 
  2447     0DA0                     	;# 
  2448     0DA1                     	;# 
  2449     0DA1                     	;# 
  2450     0DA2                     	;# 
  2451     0DA3                     	;# 
  2452     0DA3                     	;# 
  2453     0DA4                     	;# 
  2454     0DA5                     	;# 
  2455     0DA5                     	;# 
  2456     0DA6                     	;# 
  2457     0DA7                     	;# 
  2458     0DA7                     	;# 
  2459     0DA8                     	;# 
  2460     0DA9                     	;# 
  2461     0DA9                     	;# 
  2462     0DAA                     	;# 
  2463     0DAB                     	;# 
  2464     0DAC                     	;# 
  2465     0DAC                     	;# 
  2466     0DAD                     	;# 
  2467     0DAD                     	;# 
  2468     0DAE                     	;# 
  2469     0DAF                     	;# 
  2470     0DB0                     	;# 
  2471     0DB1                     	;# 
  2472     0DB1                     	;# 
  2473     0DB2                     	;# 
  2474     0DB3                     	;# 
  2475     0DB3                     	;# 
  2476     0DB4                     	;# 
  2477     0DB5                     	;# 
  2478     0DB5                     	;# 
  2479     0DB6                     	;# 
  2480     0DB7                     	;# 
  2481     0DB7                     	;# 
  2482     0DB8                     	;# 
  2483     0DB9                     	;# 
  2484     0DB9                     	;# 
  2485     0DBA                     	;# 
  2486     0DBB                     	;# 
  2487     0DBC                     	;# 
  2488     0DBC                     	;# 
  2489     0DBD                     	;# 
  2490     0DBD                     	;# 
  2491     0DBE                     	;# 
  2492     0DBF                     	;# 
  2493     0DC0                     	;# 
  2494     0DC1                     	;# 
  2495     0DC1                     	;# 
  2496     0DC2                     	;# 
  2497     0DC3                     	;# 
  2498     0DC3                     	;# 
  2499     0DC4                     	;# 
  2500     0DC5                     	;# 
  2501     0DC5                     	;# 
  2502     0DC6                     	;# 
  2503     0DC7                     	;# 
  2504     0DC7                     	;# 
  2505     0DC8                     	;# 
  2506     0DC9                     	;# 
  2507     0DC9                     	;# 
  2508     0DCA                     	;# 
  2509     0DCB                     	;# 
  2510     0DCC                     	;# 
  2511     0DCC                     	;# 
  2512     0DCD                     	;# 
  2513     0DCD                     	;# 
  2514     0DCE                     	;# 
  2515     0DCF                     	;# 
  2516     0DD0                     	;# 
  2517     0E0F                     	;# 
  2518     0E10                     	;# 
  2519     0E11                     	;# 
  2520     0E12                     	;# 
  2521     0E13                     	;# 
  2522     0E14                     	;# 
  2523     0E15                     	;# 
  2524     0E16                     	;# 
  2525     0E17                     	;# 
  2526     0E90                     	;# 
  2527     0E91                     	;# 
  2528     0E92                     	;# 
  2529     0E94                     	;# 
  2530     0E95                     	;# 
  2531     0EA0                     	;# 
  2532     0EA1                     	;# 
  2533     0EA2                     	;# 
  2534     0EA3                     	;# 
  2535     0EA4                     	;# 
  2536     0EA5                     	;# 
  2537     0FE4                     	;# 
  2538     0FE5                     	;# 
  2539     0FE6                     	;# 
  2540     0FE7                     	;# 
  2541     0FE8                     	;# 
  2542     0FE8                     	;# 
  2543     0FE9                     	;# 
  2544     0FEA                     	;# 
  2545     0FEA                     	;# 
  2546     0FEB                     	;# 
  2547     0FED                     	;# 
  2548     0FEE                     	;# 
  2549     0FEE                     	;# 
  2550     0FEF                     	;# 
  2551     0000                     	;# 
  2552     0001                     	;# 
  2553     0002                     	;# 
  2554     0003                     	;# 
  2555     0004                     	;# 
  2556     0005                     	;# 
  2557     0006                     	;# 
  2558     0007                     	;# 
  2559     0008                     	;# 
  2560     0009                     	;# 
  2561     000A                     	;# 
  2562     000B                     	;# 
  2563     000C                     	;# 
  2564     000E                     	;# 
  2565     0011                     	;# 
  2566     0012                     	;# 
  2567     0013                     	;# 
  2568     0015                     	;# 
  2569     0016                     	;# 
  2570     0016                     	;# 
  2571     0017                     	;# 
  2572     0018                     	;# 
  2573     0019                     	;# 
  2574     001A                     	;# 
  2575     001B                     	;# 
  2576     001C                     	;# 
  2577     008C                     	;# 
  2578     008E                     	;# 
  2579     0091                     	;# 
  2580     0092                     	;# 
  2581     0093                     	;# 
  2582     0095                     	;# 
  2583     0096                     	;# 
  2584     0097                     	;# 
  2585     0098                     	;# 
  2586     0099                     	;# 
  2587     009A                     	;# 
  2588     009B                     	;# 
  2589     009B                     	;# 
  2590     009C                     	;# 
  2591     009D                     	;# 
  2592     009E                     	;# 
  2593     009F                     	;# 
  2594     010C                     	;# 
  2595     010E                     	;# 
  2596     0111                     	;# 
  2597     0112                     	;# 
  2598     0113                     	;# 
  2599     0114                     	;# 
  2600     0115                     	;# 
  2601     0116                     	;# 
  2602     0117                     	;# 
  2603     0118                     	;# 
  2604     0119                     	;# 
  2605     018C                     	;# 
  2606     018E                     	;# 
  2607     0191                     	;# 
  2608     0191                     	;# 
  2609     0192                     	;# 
  2610     0193                     	;# 
  2611     0193                     	;# 
  2612     0194                     	;# 
  2613     0195                     	;# 
  2614     0196                     	;# 
  2615     0199                     	;# 
  2616     019A                     	;# 
  2617     019B                     	;# 
  2618     019B                     	;# 
  2619     019C                     	;# 
  2620     019D                     	;# 
  2621     019E                     	;# 
  2622     019F                     	;# 
  2623     020C                     	;# 
  2624     020E                     	;# 
  2625     028C                     	;# 
  2626     028E                     	;# 
  2627     030C                     	;# 
  2628     030E                     	;# 
  2629     038C                     	;# 
  2630     038E                     	;# 
  2631     0391                     	;# 
  2632     0392                     	;# 
  2633     0393                     	;# 
  2634     0397                     	;# 
  2635     0398                     	;# 
  2636     0399                     	;# 
  2637     0691                     	;# 
  2638     0692                     	;# 
  2639     0693                     	;# 
  2640     0694                     	;# 
  2641     0695                     	;# 
  2642     0D8E                     	;# 
  2643     0D8F                     	;# 
  2644     0D90                     	;# 
  2645     0D91                     	;# 
  2646     0D91                     	;# 
  2647     0D92                     	;# 
  2648     0D93                     	;# 
  2649     0D93                     	;# 
  2650     0D94                     	;# 
  2651     0D95                     	;# 
  2652     0D95                     	;# 
  2653     0D96                     	;# 
  2654     0D97                     	;# 
  2655     0D97                     	;# 
  2656     0D98                     	;# 
  2657     0D99                     	;# 
  2658     0D99                     	;# 
  2659     0D9A                     	;# 
  2660     0D9B                     	;# 
  2661     0D9C                     	;# 
  2662     0D9C                     	;# 
  2663     0D9D                     	;# 
  2664     0D9D                     	;# 
  2665     0D9E                     	;# 
  2666     0D9F                     	;# 
  2667     0DA0                     	;# 
  2668     0DA1                     	;# 
  2669     0DA1                     	;# 
  2670     0DA2                     	;# 
  2671     0DA3                     	;# 
  2672     0DA3                     	;# 
  2673     0DA4                     	;# 
  2674     0DA5                     	;# 
  2675     0DA5                     	;# 
  2676     0DA6                     	;# 
  2677     0DA7                     	;# 
  2678     0DA7                     	;# 
  2679     0DA8                     	;# 
  2680     0DA9                     	;# 
  2681     0DA9                     	;# 
  2682     0DAA                     	;# 
  2683     0DAB                     	;# 
  2684     0DAC                     	;# 
  2685     0DAC                     	;# 
  2686     0DAD                     	;# 
  2687     0DAD                     	;# 
  2688     0DAE                     	;# 
  2689     0DAF                     	;# 
  2690     0DB0                     	;# 
  2691     0DB1                     	;# 
  2692     0DB1                     	;# 
  2693     0DB2                     	;# 
  2694     0DB3                     	;# 
  2695     0DB3                     	;# 
  2696     0DB4                     	;# 
  2697     0DB5                     	;# 
  2698     0DB5                     	;# 
  2699     0DB6                     	;# 
  2700     0DB7                     	;# 
  2701     0DB7                     	;# 
  2702     0DB8                     	;# 
  2703     0DB9                     	;# 
  2704     0DB9                     	;# 
  2705     0DBA                     	;# 
  2706     0DBB                     	;# 
  2707     0DBC                     	;# 
  2708     0DBC                     	;# 
  2709     0DBD                     	;# 
  2710     0DBD                     	;# 
  2711     0DBE                     	;# 
  2712     0DBF                     	;# 
  2713     0DC0                     	;# 
  2714     0DC1                     	;# 
  2715     0DC1                     	;# 
  2716     0DC2                     	;# 
  2717     0DC3                     	;# 
  2718     0DC3                     	;# 
  2719     0DC4                     	;# 
  2720     0DC5                     	;# 
  2721     0DC5                     	;# 
  2722     0DC6                     	;# 
  2723     0DC7                     	;# 
  2724     0DC7                     	;# 
  2725     0DC8                     	;# 
  2726     0DC9                     	;# 
  2727     0DC9                     	;# 
  2728     0DCA                     	;# 
  2729     0DCB                     	;# 
  2730     0DCC                     	;# 
  2731     0DCC                     	;# 
  2732     0DCD                     	;# 
  2733     0DCD                     	;# 
  2734     0DCE                     	;# 
  2735     0DCF                     	;# 
  2736     0DD0                     	;# 
  2737     0E0F                     	;# 
  2738     0E10                     	;# 
  2739     0E11                     	;# 
  2740     0E12                     	;# 
  2741     0E13                     	;# 
  2742     0E14                     	;# 
  2743     0E15                     	;# 
  2744     0E16                     	;# 
  2745     0E17                     	;# 
  2746     0E90                     	;# 
  2747     0E91                     	;# 
  2748     0E92                     	;# 
  2749     0E94                     	;# 
  2750     0E95                     	;# 
  2751     0EA0                     	;# 
  2752     0EA1                     	;# 
  2753     0EA2                     	;# 
  2754     0EA3                     	;# 
  2755     0EA4                     	;# 
  2756     0EA5                     	;# 
  2757     0FE4                     	;# 
  2758     0FE5                     	;# 
  2759     0FE6                     	;# 
  2760     0FE7                     	;# 
  2761     0FE8                     	;# 
  2762     0FE8                     	;# 
  2763     0FE9                     	;# 
  2764     0FEA                     	;# 
  2765     0FEA                     	;# 
  2766     0FEB                     	;# 
  2767     0FED                     	;# 
  2768     0FEE                     	;# 
  2769     0FEE                     	;# 
  2770     0FEF                     	;# 
  2771     0000                     	;# 
  2772     0001                     	;# 
  2773     0002                     	;# 
  2774     0003                     	;# 
  2775     0004                     	;# 
  2776     0005                     	;# 
  2777     0006                     	;# 
  2778     0007                     	;# 
  2779     0008                     	;# 
  2780     0009                     	;# 
  2781     000A                     	;# 
  2782     000B                     	;# 
  2783     000C                     	;# 
  2784     000E                     	;# 
  2785     0011                     	;# 
  2786     0012                     	;# 
  2787     0013                     	;# 
  2788     0015                     	;# 
  2789     0016                     	;# 
  2790     0016                     	;# 
  2791     0017                     	;# 
  2792     0018                     	;# 
  2793     0019                     	;# 
  2794     001A                     	;# 
  2795     001B                     	;# 
  2796     001C                     	;# 
  2797     008C                     	;# 
  2798     008E                     	;# 
  2799     0091                     	;# 
  2800     0092                     	;# 
  2801     0093                     	;# 
  2802     0095                     	;# 
  2803     0096                     	;# 
  2804     0097                     	;# 
  2805     0098                     	;# 
  2806     0099                     	;# 
  2807     009A                     	;# 
  2808     009B                     	;# 
  2809     009B                     	;# 
  2810     009C                     	;# 
  2811     009D                     	;# 
  2812     009E                     	;# 
  2813     009F                     	;# 
  2814     010C                     	;# 
  2815     010E                     	;# 
  2816     0111                     	;# 
  2817     0112                     	;# 
  2818     0113                     	;# 
  2819     0114                     	;# 
  2820     0115                     	;# 
  2821     0116                     	;# 
  2822     0117                     	;# 
  2823     0118                     	;# 
  2824     0119                     	;# 
  2825     018C                     	;# 
  2826     018E                     	;# 
  2827     0191                     	;# 
  2828     0191                     	;# 
  2829     0192                     	;# 
  2830     0193                     	;# 
  2831     0193                     	;# 
  2832     0194                     	;# 
  2833     0195                     	;# 
  2834     0196                     	;# 
  2835     0199                     	;# 
  2836     019A                     	;# 
  2837     019B                     	;# 
  2838     019B                     	;# 
  2839     019C                     	;# 
  2840     019D                     	;# 
  2841     019E                     	;# 
  2842     019F                     	;# 
  2843     020C                     	;# 
  2844     020E                     	;# 
  2845     028C                     	;# 
  2846     028E                     	;# 
  2847     030C                     	;# 
  2848     030E                     	;# 
  2849     038C                     	;# 
  2850     038E                     	;# 
  2851     0391                     	;# 
  2852     0392                     	;# 
  2853     0393                     	;# 
  2854     0397                     	;# 
  2855     0398                     	;# 
  2856     0399                     	;# 
  2857     0691                     	;# 
  2858     0692                     	;# 
  2859     0693                     	;# 
  2860     0694                     	;# 
  2861     0695                     	;# 
  2862     0D8E                     	;# 
  2863     0D8F                     	;# 
  2864     0D90                     	;# 
  2865     0D91                     	;# 
  2866     0D91                     	;# 
  2867     0D92                     	;# 
  2868     0D93                     	;# 
  2869     0D93                     	;# 
  2870     0D94                     	;# 
  2871     0D95                     	;# 
  2872     0D95                     	;# 
  2873     0D96                     	;# 
  2874     0D97                     	;# 
  2875     0D97                     	;# 
  2876     0D98                     	;# 
  2877     0D99                     	;# 
  2878     0D99                     	;# 
  2879     0D9A                     	;# 
  2880     0D9B                     	;# 
  2881     0D9C                     	;# 
  2882     0D9C                     	;# 
  2883     0D9D                     	;# 
  2884     0D9D                     	;# 
  2885     0D9E                     	;# 
  2886     0D9F                     	;# 
  2887     0DA0                     	;# 
  2888     0DA1                     	;# 
  2889     0DA1                     	;# 
  2890     0DA2                     	;# 
  2891     0DA3                     	;# 
  2892     0DA3                     	;# 
  2893     0DA4                     	;# 
  2894     0DA5                     	;# 
  2895     0DA5                     	;# 
  2896     0DA6                     	;# 
  2897     0DA7                     	;# 
  2898     0DA7                     	;# 
  2899     0DA8                     	;# 
  2900     0DA9                     	;# 
  2901     0DA9                     	;# 
  2902     0DAA                     	;# 
  2903     0DAB                     	;# 
  2904     0DAC                     	;# 
  2905     0DAC                     	;# 
  2906     0DAD                     	;# 
  2907     0DAD                     	;# 
  2908     0DAE                     	;# 
  2909     0DAF                     	;# 
  2910     0DB0                     	;# 
  2911     0DB1                     	;# 
  2912     0DB1                     	;# 
  2913     0DB2                     	;# 
  2914     0DB3                     	;# 
  2915     0DB3                     	;# 
  2916     0DB4                     	;# 
  2917     0DB5                     	;# 
  2918     0DB5                     	;# 
  2919     0DB6                     	;# 
  2920     0DB7                     	;# 
  2921     0DB7                     	;# 
  2922     0DB8                     	;# 
  2923     0DB9                     	;# 
  2924     0DB9                     	;# 
  2925     0DBA                     	;# 
  2926     0DBB                     	;# 
  2927     0DBC                     	;# 
  2928     0DBC                     	;# 
  2929     0DBD                     	;# 
  2930     0DBD                     	;# 
  2931     0DBE                     	;# 
  2932     0DBF                     	;# 
  2933     0DC0                     	;# 
  2934     0DC1                     	;# 
  2935     0DC1                     	;# 
  2936     0DC2                     	;# 
  2937     0DC3                     	;# 
  2938     0DC3                     	;# 
  2939     0DC4                     	;# 
  2940     0DC5                     	;# 
  2941     0DC5                     	;# 
  2942     0DC6                     	;# 
  2943     0DC7                     	;# 
  2944     0DC7                     	;# 
  2945     0DC8                     	;# 
  2946     0DC9                     	;# 
  2947     0DC9                     	;# 
  2948     0DCA                     	;# 
  2949     0DCB                     	;# 
  2950     0DCC                     	;# 
  2951     0DCC                     	;# 
  2952     0DCD                     	;# 
  2953     0DCD                     	;# 
  2954     0DCE                     	;# 
  2955     0DCF                     	;# 
  2956     0DD0                     	;# 
  2957     0E0F                     	;# 
  2958     0E10                     	;# 
  2959     0E11                     	;# 
  2960     0E12                     	;# 
  2961     0E13                     	;# 
  2962     0E14                     	;# 
  2963     0E15                     	;# 
  2964     0E16                     	;# 
  2965     0E17                     	;# 
  2966     0E90                     	;# 
  2967     0E91                     	;# 
  2968     0E92                     	;# 
  2969     0E94                     	;# 
  2970     0E95                     	;# 
  2971     0EA0                     	;# 
  2972     0EA1                     	;# 
  2973     0EA2                     	;# 
  2974     0EA3                     	;# 
  2975     0EA4                     	;# 
  2976     0EA5                     	;# 
  2977     0FE4                     	;# 
  2978     0FE5                     	;# 
  2979     0FE6                     	;# 
  2980     0FE7                     	;# 
  2981     0FE8                     	;# 
  2982     0FE8                     	;# 
  2983     0FE9                     	;# 
  2984     0FEA                     	;# 
  2985     0FEA                     	;# 
  2986     0FEB                     	;# 
  2987     0FED                     	;# 
  2988     0FEE                     	;# 
  2989     0FEE                     	;# 
  2990     0FEF                     	;# 
  2991     0000                     	;# 
  2992     0001                     	;# 
  2993     0002                     	;# 
  2994     0003                     	;# 
  2995     0004                     	;# 
  2996     0005                     	;# 
  2997     0006                     	;# 
  2998     0007                     	;# 
  2999     0008                     	;# 
  3000     0009                     	;# 
  3001     000A                     	;# 
  3002     000B                     	;# 
  3003     000C                     	;# 
  3004     000E                     	;# 
  3005     0011                     	;# 
  3006     0012                     	;# 
  3007     0013                     	;# 
  3008     0015                     	;# 
  3009     0016                     	;# 
  3010     0016                     	;# 
  3011     0017                     	;# 
  3012     0018                     	;# 
  3013     0019                     	;# 
  3014     001A                     	;# 
  3015     001B                     	;# 
  3016     001C                     	;# 
  3017     008C                     	;# 
  3018     008E                     	;# 
  3019     0091                     	;# 
  3020     0092                     	;# 
  3021     0093                     	;# 
  3022     0095                     	;# 
  3023     0096                     	;# 
  3024     0097                     	;# 
  3025     0098                     	;# 
  3026     0099                     	;# 
  3027     009A                     	;# 
  3028     009B                     	;# 
  3029     009B                     	;# 
  3030     009C                     	;# 
  3031     009D                     	;# 
  3032     009E                     	;# 
  3033     009F                     	;# 
  3034     010C                     	;# 
  3035     010E                     	;# 
  3036     0111                     	;# 
  3037     0112                     	;# 
  3038     0113                     	;# 
  3039     0114                     	;# 
  3040     0115                     	;# 
  3041     0116                     	;# 
  3042     0117                     	;# 
  3043     0118                     	;# 
  3044     0119                     	;# 
  3045     018C                     	;# 
  3046     018E                     	;# 
  3047     0191                     	;# 
  3048     0191                     	;# 
  3049     0192                     	;# 
  3050     0193                     	;# 
  3051     0193                     	;# 
  3052     0194                     	;# 
  3053     0195                     	;# 
  3054     0196                     	;# 
  3055     0199                     	;# 
  3056     019A                     	;# 
  3057     019B                     	;# 
  3058     019B                     	;# 
  3059     019C                     	;# 
  3060     019D                     	;# 
  3061     019E                     	;# 
  3062     019F                     	;# 
  3063     020C                     	;# 
  3064     020E                     	;# 
  3065     028C                     	;# 
  3066     028E                     	;# 
  3067     030C                     	;# 
  3068     030E                     	;# 
  3069     038C                     	;# 
  3070     038E                     	;# 
  3071     0391                     	;# 
  3072     0392                     	;# 
  3073     0393                     	;# 
  3074     0397                     	;# 
  3075     0398                     	;# 
  3076     0399                     	;# 
  3077     0691                     	;# 
  3078     0692                     	;# 
  3079     0693                     	;# 
  3080     0694                     	;# 
  3081     0695                     	;# 
  3082     0D8E                     	;# 
  3083     0D8F                     	;# 
  3084     0D90                     	;# 
  3085     0D91                     	;# 
  3086     0D91                     	;# 
  3087     0D92                     	;# 
  3088     0D93                     	;# 
  3089     0D93                     	;# 
  3090     0D94                     	;# 
  3091     0D95                     	;# 
  3092     0D95                     	;# 
  3093     0D96                     	;# 
  3094     0D97                     	;# 
  3095     0D97                     	;# 
  3096     0D98                     	;# 
  3097     0D99                     	;# 
  3098     0D99                     	;# 
  3099     0D9A                     	;# 
  3100     0D9B                     	;# 
  3101     0D9C                     	;# 
  3102     0D9C                     	;# 
  3103     0D9D                     	;# 
  3104     0D9D                     	;# 
  3105     0D9E                     	;# 
  3106     0D9F                     	;# 
  3107     0DA0                     	;# 
  3108     0DA1                     	;# 
  3109     0DA1                     	;# 
  3110     0DA2                     	;# 
  3111     0DA3                     	;# 
  3112     0DA3                     	;# 
  3113     0DA4                     	;# 
  3114     0DA5                     	;# 
  3115     0DA5                     	;# 
  3116     0DA6                     	;# 
  3117     0DA7                     	;# 
  3118     0DA7                     	;# 
  3119     0DA8                     	;# 
  3120     0DA9                     	;# 
  3121     0DA9                     	;# 
  3122     0DAA                     	;# 
  3123     0DAB                     	;# 
  3124     0DAC                     	;# 
  3125     0DAC                     	;# 
  3126     0DAD                     	;# 
  3127     0DAD                     	;# 
  3128     0DAE                     	;# 
  3129     0DAF                     	;# 
  3130     0DB0                     	;# 
  3131     0DB1                     	;# 
  3132     0DB1                     	;# 
  3133     0DB2                     	;# 
  3134     0DB3                     	;# 
  3135     0DB3                     	;# 
  3136     0DB4                     	;# 
  3137     0DB5                     	;# 
  3138     0DB5                     	;# 
  3139     0DB6                     	;# 
  3140     0DB7                     	;# 
  3141     0DB7                     	;# 
  3142     0DB8                     	;# 
  3143     0DB9                     	;# 
  3144     0DB9                     	;# 
  3145     0DBA                     	;# 
  3146     0DBB                     	;# 
  3147     0DBC                     	;# 
  3148     0DBC                     	;# 
  3149     0DBD                     	;# 
  3150     0DBD                     	;# 
  3151     0DBE                     	;# 
  3152     0DBF                     	;# 
  3153     0DC0                     	;# 
  3154     0DC1                     	;# 
  3155     0DC1                     	;# 
  3156     0DC2                     	;# 
  3157     0DC3                     	;# 
  3158     0DC3                     	;# 
  3159     0DC4                     	;# 
  3160     0DC5                     	;# 
  3161     0DC5                     	;# 
  3162     0DC6                     	;# 
  3163     0DC7                     	;# 
  3164     0DC7                     	;# 
  3165     0DC8                     	;# 
  3166     0DC9                     	;# 
  3167     0DC9                     	;# 
  3168     0DCA                     	;# 
  3169     0DCB                     	;# 
  3170     0DCC                     	;# 
  3171     0DCC                     	;# 
  3172     0DCD                     	;# 
  3173     0DCD                     	;# 
  3174     0DCE                     	;# 
  3175     0DCF                     	;# 
  3176     0DD0                     	;# 
  3177     0E0F                     	;# 
  3178     0E10                     	;# 
  3179     0E11                     	;# 
  3180     0E12                     	;# 
  3181     0E13                     	;# 
  3182     0E14                     	;# 
  3183     0E15                     	;# 
  3184     0E16                     	;# 
  3185     0E17                     	;# 
  3186     0E90                     	;# 
  3187     0E91                     	;# 
  3188     0E92                     	;# 
  3189     0E94                     	;# 
  3190     0E95                     	;# 
  3191     0EA0                     	;# 
  3192     0EA1                     	;# 
  3193     0EA2                     	;# 
  3194     0EA3                     	;# 
  3195     0EA4                     	;# 
  3196     0EA5                     	;# 
  3197     0FE4                     	;# 
  3198     0FE5                     	;# 
  3199     0FE6                     	;# 
  3200     0FE7                     	;# 
  3201     0FE8                     	;# 
  3202     0FE8                     	;# 
  3203     0FE9                     	;# 
  3204     0FEA                     	;# 
  3205     0FEA                     	;# 
  3206     0FEB                     	;# 
  3207     0FED                     	;# 
  3208     0FEE                     	;# 
  3209     0FEE                     	;# 
  3210     0FEF                     	;# 
  3211                           
  3212 ;; Function _EUSART_DefaultFramingErrorHandler is unused but had its address taken
  3213     0000                     
  3214 ;; Function _EUSART_DefaultOverrunErrorHandler is unused but had its address taken
  3215     0000                     
  3216 ;; Function _EUSART_DefaultErrorHandler is unused but had its address taken
  3217     0000                     
  3218                           	psect	idataCOMMON
  3219     0E45                     __pidataCOMMON:
  3220                           
  3221                           ;initializer for _battery_status
  3222     0E45  3401               	retlw	1
  3223                           
  3224                           	psect	idataBANK0
  3225     0E44                     __pidataBANK0:
  3226                           
  3227                           ;initializer for _firstTime
  3228     0E44  3401               	retlw	1
  3229                           
  3230                           	psect	nvBANK0
  3231     006E                     __pnvBANK0:
  3232     006E                     _timer0ReloadVal:
  3233     006E                     	ds	1
  3234                           
  3235                           	psect	nvBANK1
  3236     00DE                     __pnvBANK1:
  3237     00DE                     _timer1ReloadVal:
  3238     00DE                     	ds	2
  3239     00E0                     _ADC1_InterruptHandler:
  3240     00E0                     	ds	2
  3241     00E2                     _TMR0_InterruptHandler:
  3242     00E2                     	ds	2
  3243     00E4                     _IOCAF3_InterruptHandler:
  3244     00E4                     	ds	2
  3245     00E6                     _EUSART_ErrorHandler:
  3246     00E6                     	ds	2
  3247     00E8                     _EUSART_OverrunErrorHandler:
  3248     00E8                     	ds	2
  3249     00EA                     _EUSART_FramingErrorHandler:
  3250     00EA                     	ds	2
  3251     000C                     _PORTAbits	set	12
  3252     0018                     _T1CON	set	24
  3253     0016                     _TMR1L	set	22
  3254     0017                     _TMR1H	set	23
  3255     0019                     _T1GCON	set	25
  3256     0015                     _TMR0	set	21
  3257     000B                     _INTCONbits	set	11
  3258     0011                     _PIR1bits	set	17
  3259     009D                     _ADCON0bits	set	157
  3260     0091                     _PIE1bits	set	145
  3261     009D                     _ADCON0	set	157
  3262     009C                     _ADRESH	set	156
  3263     009B                     _ADRESL	set	155
  3264     009F                     _ADCON2	set	159
  3265     009E                     _ADCON1	set	158
  3266     0095                     _OPTION_REG	set	149
  3267     0095                     _OPTION_REGbits	set	149
  3268     008E                     _TRISC	set	142
  3269     008C                     _TRISA	set	140
  3270     0097                     _WDTCON	set	151
  3271     0098                     _OSCTUNE	set	152
  3272     0099                     _OSCCON	set	153
  3273     010C                     _LATAbits	set	268
  3274     010E                     _LATCbits	set	270
  3275     0117                     _FVRCONbits	set	279
  3276     0117                     _FVRCON	set	279
  3277     010E                     _LATC	set	270
  3278     010C                     _LATA	set	268
  3279     0116                     _BORCON	set	278
  3280     018C                     _ANSELA	set	396
  3281     018E                     _ANSELC	set	398
  3282     019A                     _TXREG	set	410
  3283     019C                     _SPBRGH	set	412
  3284     019B                     _SPBRGL	set	411
  3285     019E                     _TXSTA	set	414
  3286     019D                     _RCSTA	set	413
  3287     019F                     _BAUDCON	set	415
  3288     020E                     _WPUC	set	526
  3289     020C                     _WPUA	set	524
  3290     028E                     _ODCONC	set	654
  3291     028C                     _ODCONA	set	652
  3292     030E                     _SLRCONC	set	782
  3293     030C                     _SLRCONA	set	780
  3294     0391                     _IOCAPbits	set	913
  3295     0392                     _IOCANbits	set	914
  3296     0393                     _IOCAFbits	set	915
  3297     038E                     _INLVLC	set	910
  3298     038C                     _INLVLA	set	908
  3299     0D9F                     _PWM1LDCONbits	set	3487
  3300     0D9B                     _PWM1CONbits	set	3483
  3301     0D9B                     _PWM1CON	set	3483
  3302     0D99                     _PWM1TMRL	set	3481
  3303     0D9A                     _PWM1TMRH	set	3482
  3304     0D97                     _PWM1OFL	set	3479
  3305     0D98                     _PWM1OFH	set	3480
  3306     0D95                     _PWM1PRL	set	3477
  3307     0D96                     _PWM1PRH	set	3478
  3308     0D93                     _PWM1DCL	set	3475
  3309     0D94                     _PWM1DCH	set	3476
  3310     0D91                     _PWM1PHL	set	3473
  3311     0D92                     _PWM1PHH	set	3474
  3312     0DA0                     _PWM1OFCON	set	3488
  3313     0D9F                     _PWM1LDCON	set	3487
  3314     0D9E                     _PWM1CLKCON	set	3486
  3315     0D9D                     _PWM1INTF	set	3485
  3316     0D9C                     _PWM1INTE	set	3484
  3317     0DBF                     _PWM3LDCONbits	set	3519
  3318     0DBB                     _PWM3CONbits	set	3515
  3319     0DB9                     _PWM3TMRL	set	3513
  3320     0DBA                     _PWM3TMRH	set	3514
  3321     0DB7                     _PWM3OFL	set	3511
  3322     0DB8                     _PWM3OFH	set	3512
  3323     0DB5                     _PWM3PRL	set	3509
  3324     0DB6                     _PWM3PRH	set	3510
  3325     0DB3                     _PWM3DCL	set	3507
  3326     0DB4                     _PWM3DCH	set	3508
  3327     0DB1                     _PWM3PHL	set	3505
  3328     0DB2                     _PWM3PHH	set	3506
  3329     0DC0                     _PWM3OFCON	set	3520
  3330     0DBF                     _PWM3LDCON	set	3519
  3331     0DBE                     _PWM3CLKCON	set	3518
  3332     0DBD                     _PWM3INTF	set	3517
  3333     0DBC                     _PWM3INTE	set	3516
  3334     0DAF                     _PWM2LDCONbits	set	3503
  3335     0DAB                     _PWM2CONbits	set	3499
  3336     0DA9                     _PWM2TMRL	set	3497
  3337     0DAA                     _PWM2TMRH	set	3498
  3338     0DA7                     _PWM2OFL	set	3495
  3339     0DA8                     _PWM2OFH	set	3496
  3340     0DA5                     _PWM2PRL	set	3493
  3341     0DA6                     _PWM2PRH	set	3494
  3342     0DA3                     _PWM2DCL	set	3491
  3343     0DA4                     _PWM2DCH	set	3492
  3344     0DA1                     _PWM2PHL	set	3489
  3345     0DA2                     _PWM2PHH	set	3490
  3346     0DB0                     _PWM2OFCON	set	3504
  3347     0DAF                     _PWM2LDCON	set	3503
  3348     0DAE                     _PWM2CLKCON	set	3502
  3349     0DAD                     _PWM2INTF	set	3501
  3350     0DAC                     _PWM2INTE	set	3500
  3351     0DCF                     _PWM4LDCONbits	set	3535
  3352     0DCB                     _PWM4CONbits	set	3531
  3353     0DC9                     _PWM4TMRL	set	3529
  3354     0DCA                     _PWM4TMRH	set	3530
  3355     0DC7                     _PWM4OFL	set	3527
  3356     0DC8                     _PWM4OFH	set	3528
  3357     0DC5                     _PWM4PRL	set	3525
  3358     0DC6                     _PWM4PRH	set	3526
  3359     0DC3                     _PWM4DCL	set	3523
  3360     0DC4                     _PWM4DCH	set	3524
  3361     0DC1                     _PWM4PHL	set	3521
  3362     0DC2                     _PWM4PHH	set	3522
  3363     0DD0                     _PWM4OFCON	set	3536
  3364     0DCF                     _PWM4LDCON	set	3535
  3365     0DCE                     _PWM4CLKCON	set	3534
  3366     0DCD                     _PWM4INTF	set	3533
  3367     0DCC                     _PWM4INTE	set	3532
  3368     0E17                     _ADCACTPPS	set	3607
  3369     0E92                     _RA2PPS	set	3730
  3370     0E91                     _RA1PPS	set	3729
  3371     0EA4                     _RC4PPS	set	3748
  3372     0EA3                     _RC3PPS	set	3747
  3373     0EA0                     _RC0PPS	set	3744
  3374                           
  3375                           	psect	stringtext1
  3376     07FD                     __pstringtext1:
  3377     07FD                     STR_2:
  3378     07FD  3453               	retlw	83	;'S'
  3379     07FE  3474               	retlw	116	;'t'
  3380     07FF  3461               	retlw	97	;'a'
  3381     0800  3467               	retlw	103	;'g'
  3382     0801  3465               	retlw	101	;'e'
  3383     0802  3420               	retlw	32	;' '
  3384     0803  3442               	retlw	66	;'B'
  3385     0804  3420               	retlw	32	;' '
  3386     0805  340A               	retlw	10
  3387     0806  340D               	retlw	13
  3388     0807  3400               	retlw	0
  3389                           
  3390                           	psect	stringtext2
  3391     0808                     __pstringtext2:
  3392     0808                     STR_3:
  3393     0808  3453               	retlw	83	;'S'
  3394     0809  3474               	retlw	116	;'t'
  3395     080A  3461               	retlw	97	;'a'
  3396     080B  3467               	retlw	103	;'g'
  3397     080C  3465               	retlw	101	;'e'
  3398     080D  3420               	retlw	32	;' '
  3399     080E  3443               	retlw	67	;'C'
  3400     080F  3420               	retlw	32	;' '
  3401     0810  340A               	retlw	10
  3402     0811  340D               	retlw	13
  3403     0812  3400               	retlw	0
  3404                           
  3405                           	psect	stringtext3
  3406     0813                     __pstringtext3:
  3407     0813                     STR_1:
  3408     0813  3453               	retlw	83	;'S'
  3409     0814  3474               	retlw	116	;'t'
  3410     0815  3461               	retlw	97	;'a'
  3411     0816  3467               	retlw	103	;'g'
  3412     0817  3465               	retlw	101	;'e'
  3413     0818  3420               	retlw	32	;' '
  3414     0819  3441               	retlw	65	;'A'
  3415     081A  340A               	retlw	10
  3416     081B  340D               	retlw	13
  3417     081C  3400               	retlw	0
  3418                           
  3419                           	psect	stringtext4
  3420     0000                     __pstringtext4:
  3421                           
  3422                           	psect	cinit
  3423     0022                     start_initialization:	
  3424                           ; #config settings
  3425                           
  3426     0022                     __initialization:
  3427                           
  3428                           ; Initialize objects allocated to COMMON
  3429     0022  318E  2645  3180   	fcall	__pidataCOMMON	;fetch initializer
  3430     0025  00FB               	movwf	__pdataCOMMON& (0+127)
  3431                           
  3432                           ; Initialize objects allocated to BANK0
  3433     0026  318E  2644  3180   	fcall	__pidataBANK0	;fetch initializer
  3434     0029  00EF               	movwf	__pdataBANK0& (0+127)
  3435                           
  3436                           ; Clear objects allocated to COMMON
  3437     002A  01FA               	clrf	__pbssCOMMON& (0+127)
  3438                           
  3439                           ; Clear objects allocated to BANK0
  3440     002B  3020               	movlw	low __pbssBANK0
  3441     002C  0084               	movwf	4
  3442     002D  3000               	movlw	high __pbssBANK0
  3443     002E  0085               	movwf	5
  3444     002F  3039               	movlw	57
  3445     0030  318E  26BC  3180   	fcall	clear_ram0
  3446                           
  3447                           ; Clear objects allocated to BANK1
  3448     0033  30A0               	movlw	low __pbssBANK1
  3449     0034  0084               	movwf	4
  3450     0035  3000               	movlw	high __pbssBANK1
  3451     0036  0085               	movwf	5
  3452     0037  303E               	movlw	62
  3453     0038  318E  26BC  3180   	fcall	clear_ram0
  3454                           
  3455                           ; Clear objects allocated to BANK2
  3456     003B  3020               	movlw	low __pbssBANK2
  3457     003C  0084               	movwf	4
  3458     003D  3001               	movlw	high __pbssBANK2
  3459     003E  0085               	movwf	5
  3460     003F  3020               	movlw	32
  3461     0040  318E  26BC         	fcall	clear_ram0
  3462     0042                     end_of_initialization:	
  3463                           ;End of C runtime variable initialization code
  3464                           
  3465     0042                     __end_of__initialization:
  3466     0042  107E               	bcf	int$flags,0	;clear compiler interrupt flag (level 1)
  3467     0043  0020               	movlb	0
  3468     0044  3184  2CEE         	ljmp	_main	;jump to C main() function
  3469                           
  3470                           	psect	bssCOMMON
  3471     007A                     __pbssCOMMON:
  3472     007A                     _currentButtState:
  3473     007A                     	ds	1
  3474                           
  3475                           	psect	dataCOMMON
  3476     007B                     __pdataCOMMON:
  3477     007B                     _battery_status:
  3478     007B                     	ds	1
  3479                           
  3480                           	psect	bssBANK0
  3481     0020                     __pbssBANK0:
  3482     0020                     _shutdown_counter:
  3483     0020                     	ds	8
  3484     0028                     _stageA_counter:
  3485     0028                     	ds	8
  3486     0030                     _pressedTime:
  3487     0030                     	ds	8
  3488     0038                     _ledCounter:
  3489     0038                     	ds	2
  3490     003A                     _blinkRedThreeCounter:
  3491     003A                     	ds	2
  3492     003C                     _doubleBeepCounter:
  3493     003C                     	ds	2
  3494     003E                     _singleBeepCounter:
  3495     003E                     	ds	2
  3496     0040                     _battery_status_counter:
  3497     0040                     	ds	2
  3498     0042                     _battery_voltage:
  3499     0042                     	ds	2
  3500     0044                     _adc_value:
  3501     0044                     	ds	2
  3502     0046                     _flags:
  3503     0046                     	ds	1
  3504     0047                     _enableYellow:
  3505     0047                     	ds	1
  3506     0048                     _enableOrange:
  3507     0048                     	ds	1
  3508     0049                     _enableRed:
  3509     0049                     	ds	1
  3510     004A                     _enableGreen:
  3511     004A                     	ds	1
  3512     004B                     _blinkRedThree:
  3513     004B                     	ds	1
  3514     004C                     _doubleBeep:
  3515     004C                     	ds	1
  3516     004D                     _singleBeep:
  3517     004D                     	ds	1
  3518     004E                     _batteryStatusUpdated:
  3519     004E                     	ds	1
  3520     004F                     _buttonPressedInProg:
  3521     004F                     	ds	1
  3522     0050                     _run_mainloop:
  3523     0050                     	ds	1
  3524     0051                     _run_buttonLoop:
  3525     0051                     	ds	1
  3526     0052                     _firstTimeC:
  3527     0052                     	ds	1
  3528     0053                     _firstTimeB:
  3529     0053                     	ds	1
  3530     0054                     _buttonStateUpdated:
  3531     0054                     	ds	1
  3532     0055                     _button_state:
  3533     0055                     	ds	1
  3534     0056                     _lastState:
  3535     0056                     	ds	1
  3536     0057                     _currentState:
  3537     0057                     	ds	1
  3538     0058                     _eusartRxLastError:
  3539     0058                     	ds	1
  3540                           
  3541                           	psect	dataBANK0
  3542     006F                     __pdataBANK0:
  3543     006F                     _firstTime:
  3544     006F                     	ds	1
  3545                           
  3546                           	psect	bssBANK1
  3547     00A0                     __pbssBANK1:
  3548     00A0                     _battlow_counter:
  3549     00A0                     	ds	8
  3550     00A8                     _stageD_counter:
  3551     00A8                     	ds	8
  3552     00B0                     _stageC_counter:
  3553     00B0                     	ds	8
  3554     00B8                     _stageB1_counter:
  3555     00B8                     	ds	8
  3556     00C0                     _stageB_counter:
  3557     00C0                     	ds	8
  3558     00C8                     _StageWakeUpTimer:
  3559     00C8                     	ds	8
  3560     00D0                     _tick:
  3561     00D0                     	ds	8
  3562     00D8                     _width:
  3563     00D8                     	ds	2
  3564     00DA                     _prec:
  3565     00DA                     	ds	2
  3566     00DC                     _battery_voltage_last:
  3567     00DC                     	ds	2
  3568                           
  3569                           	psect	bssBANK2
  3570     0120                     __pbssBANK2:
  3571     0120                     _dbuf:
  3572     0120                     	ds	32
  3573                           
  3574                           	psect	clrtext
  3575     0EBC                     clear_ram0:	
  3576                           ;	Called with FSR0 containing the base address, and
  3577                           ;	WREG with the size to clear
  3578                           
  3579     0EBC  0064               	clrwdt	;clear the watchdog before getting into this loop
  3580     0EBD                     clrloop0:
  3581     0EBD  0180               	clrf	0	;clear RAM location pointed to by FSR
  3582     0EBE  3101               	addfsr 0,1
  3583     0EBF  0B89               	decfsz	9,f	;Have we reached the end of clearing yet?
  3584     0EC0  2EBD               	goto	clrloop0	;have we reached the end yet?
  3585     0EC1  3400               	retlw	0	;all done for this memory range, return
  3586                           
  3587                           	psect	cstackBANK1
  3588     00EC                     __pcstackBANK1:
  3589     00EC                     programStates@cases:
  3590                           
  3591                           ; 1 bytes @ 0x0
  3592     00EC                     	ds	1
  3593     00ED                     ??_main:
  3594                           
  3595                           ; 1 bytes @ 0x1
  3596     00ED                     	ds	1
  3597                           
  3598                           	psect	cstackCOMMON
  3599     0070                     __pcstackCOMMON:
  3600     0070                     ?_PIN_MANAGER_Initialize:
  3601     0070                     ?_OSCILLATOR_Initialize:	
  3602                           ; 1 bytes @ 0x0
  3603                           
  3604     0070                     ?_WDT_Initialize:	
  3605                           ; 1 bytes @ 0x0
  3606                           
  3607     0070                     ?_FVR_Initialize:	
  3608                           ; 1 bytes @ 0x0
  3609                           
  3610     0070                     ?_PWM1_Initialize:	
  3611                           ; 1 bytes @ 0x0
  3612                           
  3613     0070                     ?_PWM2_Initialize:	
  3614                           ; 1 bytes @ 0x0
  3615                           
  3616     0070                     ?_ADC1_Initialize:	
  3617                           ; 1 bytes @ 0x0
  3618                           
  3619     0070                     ?_PWM4_Initialize:	
  3620                           ; 1 bytes @ 0x0
  3621                           
  3622     0070                     ?_PWM3_Initialize:	
  3623                           ; 1 bytes @ 0x0
  3624                           
  3625     0070                     ?_TMR1_Initialize:	
  3626                           ; 1 bytes @ 0x0
  3627                           
  3628     0070                     ?_TMR0_Initialize:	
  3629                           ; 1 bytes @ 0x0
  3630                           
  3631     0070                     ?_IOCAF3_DefaultInterruptHandler:	
  3632                           ; 1 bytes @ 0x0
  3633                           
  3634     0070                     ??_IOCAF3_DefaultInterruptHandler:	
  3635                           ; 1 bytes @ 0x0
  3636                           
  3637     0070                     ?_IOCAF3_ISR:	
  3638                           ; 1 bytes @ 0x0
  3639                           
  3640     0070                     ??_IOCAF3_ISR:	
  3641                           ; 1 bytes @ 0x0
  3642                           
  3643     0070                     ?_TMR0_DefaultInterruptHandler:	
  3644                           ; 1 bytes @ 0x0
  3645                           
  3646     0070                     ??_TMR0_DefaultInterruptHandler:	
  3647                           ; 1 bytes @ 0x0
  3648                           
  3649     0070                     ?_TMR0_CallBack:	
  3650                           ; 1 bytes @ 0x0
  3651                           
  3652     0070                     ??_TMR0_CallBack:	
  3653                           ; 1 bytes @ 0x0
  3654                           
  3655     0070                     ?_ADC1_DefaultInterruptHandler:	
  3656                           ; 1 bytes @ 0x0
  3657                           
  3658     0070                     ??_ADC1_DefaultInterruptHandler:	
  3659                           ; 1 bytes @ 0x0
  3660                           
  3661     0070                     ?_programStates:	
  3662                           ; 1 bytes @ 0x0
  3663                           
  3664     0070                     ?_EUSART_Initialize:	
  3665                           ; 1 bytes @ 0x0
  3666                           
  3667     0070                     ?_EUSART_Write:	
  3668                           ; 1 bytes @ 0x0
  3669                           
  3670     0070                     ?_putch:	
  3671                           ; 1 bytes @ 0x0
  3672                           
  3673     0070                     ?_SYSTEM_Initialize:	
  3674                           ; 1 bytes @ 0x0
  3675                           
  3676     0070                     ?_PIN_MANAGER_IOC:	
  3677                           ; 1 bytes @ 0x0
  3678                           
  3679     0070                     ??_PIN_MANAGER_IOC:	
  3680                           ; 1 bytes @ 0x0
  3681                           
  3682     0070                     ?_TMR0_ISR:	
  3683                           ; 1 bytes @ 0x0
  3684                           
  3685     0070                     ??_TMR0_ISR:	
  3686                           ; 1 bytes @ 0x0
  3687                           
  3688     0070                     ?_ADC1_SelectChannel:	
  3689                           ; 1 bytes @ 0x0
  3690                           
  3691     0070                     ?_ADC1_StartConversion:	
  3692                           ; 1 bytes @ 0x0
  3693                           
  3694     0070                     ?_ADC1_ISR:	
  3695                           ; 1 bytes @ 0x0
  3696                           
  3697     0070                     ?_INTERRUPT_InterruptManager:	
  3698                           ; 1 bytes @ 0x0
  3699                           
  3700     0070                     ?_FVR_IsOutputReady:	
  3701                           ; 1 bytes @ 0x0
  3702                           
  3703     0070                     ?_PWM4_Start:	
  3704                           ; 1 bytes @ 0x0
  3705                           
  3706     0070                     ?_PWM4_Stop:	
  3707                           ; 1 bytes @ 0x0
  3708                           
  3709     0070                     ?_PWM4_LoadBufferSet:	
  3710                           ; 1 bytes @ 0x0
  3711                           
  3712     0070                     ?_PWM2_Start:	
  3713                           ; 1 bytes @ 0x0
  3714                           
  3715     0070                     ?_PWM2_Stop:	
  3716                           ; 1 bytes @ 0x0
  3717                           
  3718     0070                     ?_PWM2_LoadBufferSet:	
  3719                           ; 1 bytes @ 0x0
  3720                           
  3721     0070                     ?_PWM3_Start:	
  3722                           ; 1 bytes @ 0x0
  3723                           
  3724     0070                     ?_PWM3_Stop:	
  3725                           ; 1 bytes @ 0x0
  3726                           
  3727     0070                     ?_PWM3_LoadBufferSet:	
  3728                           ; 1 bytes @ 0x0
  3729                           
  3730     0070                     ?_PWM1_Start:	
  3731                           ; 1 bytes @ 0x0
  3732                           
  3733     0070                     ?_PWM1_Stop:	
  3734                           ; 1 bytes @ 0x0
  3735                           
  3736     0070                     ?_PWM1_LoadBufferSet:	
  3737                           ; 1 bytes @ 0x0
  3738                           
  3739     0070                     ?_checkBattery:	
  3740                           ; 1 bytes @ 0x0
  3741                           
  3742     0070                     ?_ADCISR:	
  3743                           ; 1 bytes @ 0x0
  3744                           
  3745     0070                     ?_stopMotor:	
  3746                           ; 1 bytes @ 0x0
  3747                           
  3748     0070                     ?_stopGreen:	
  3749                           ; 1 bytes @ 0x0
  3750                           
  3751     0070                     ?_stopBlue:	
  3752                           ; 1 bytes @ 0x0
  3753                           
  3754     0070                     ?_stopRed:	
  3755                           ; 1 bytes @ 0x0
  3756                           
  3757     0070                     ?_setStartYellow:	
  3758                           ; 1 bytes @ 0x0
  3759                           
  3760     0070                     ?_stopYellow:	
  3761                           ; 1 bytes @ 0x0
  3762                           
  3763     0070                     ?_stopAll:	
  3764                           ; 1 bytes @ 0x0
  3765                           
  3766     0070                     ?_iocISR:	
  3767                           ; 1 bytes @ 0x0
  3768                           
  3769     0070                     ??_iocISR:	
  3770                           ; 1 bytes @ 0x0
  3771                           
  3772     0070                     ?_timer0ISR:	
  3773                           ; 1 bytes @ 0x0
  3774                           
  3775     0070                     ??_timer0ISR:	
  3776                           ; 1 bytes @ 0x0
  3777                           
  3778     0070                     ?_main:	
  3779                           ; 1 bytes @ 0x0
  3780                           
  3781     0070                     ?_ADC1_GetConversionResult:	
  3782                           ; 1 bytes @ 0x0
  3783                           
  3784                           
  3785                           ; 2 bytes @ 0x0
  3786     0070                     	ds	2
  3787     0072                     ?_EUSART_SetFramingErrorHandler:
  3788     0072                     ?_EUSART_SetOverrunErrorHandler:	
  3789                           ; 1 bytes @ 0x2
  3790                           
  3791     0072                     ?_EUSART_SetErrorHandler:	
  3792                           ; 1 bytes @ 0x2
  3793                           
  3794     0072                     ??_OSCILLATOR_Initialize:	
  3795                           ; 1 bytes @ 0x2
  3796                           
  3797     0072                     ??_WDT_Initialize:	
  3798                           ; 1 bytes @ 0x2
  3799                           
  3800     0072                     ??_FVR_Initialize:	
  3801                           ; 1 bytes @ 0x2
  3802                           
  3803     0072                     ??_PWM1_Initialize:	
  3804                           ; 1 bytes @ 0x2
  3805                           
  3806     0072                     ??_PWM2_Initialize:	
  3807                           ; 1 bytes @ 0x2
  3808                           
  3809     0072                     ??_PWM4_Initialize:	
  3810                           ; 1 bytes @ 0x2
  3811                           
  3812     0072                     ??_PWM3_Initialize:	
  3813                           ; 1 bytes @ 0x2
  3814                           
  3815     0072                     ??_TMR1_Initialize:	
  3816                           ; 1 bytes @ 0x2
  3817                           
  3818     0072                     ?_IOCAF3_SetInterruptHandler:	
  3819                           ; 1 bytes @ 0x2
  3820                           
  3821     0072                     ?_TMR0_SetInterruptHandler:	
  3822                           ; 1 bytes @ 0x2
  3823                           
  3824     0072                     ?_ADC1_SetInterruptHandler:	
  3825                           ; 1 bytes @ 0x2
  3826                           
  3827     0072                     ??_EUSART_Write:	
  3828                           ; 1 bytes @ 0x2
  3829                           
  3830     0072                     ??_ADC1_SelectChannel:	
  3831                           ; 1 bytes @ 0x2
  3832                           
  3833     0072                     ??_ADC1_StartConversion:	
  3834                           ; 1 bytes @ 0x2
  3835                           
  3836     0072                     ??_ADC1_GetConversionResult:	
  3837                           ; 1 bytes @ 0x2
  3838                           
  3839     0072                     ??_ADC1_ISR:	
  3840                           ; 1 bytes @ 0x2
  3841                           
  3842     0072                     ??_INTERRUPT_InterruptManager:	
  3843                           ; 1 bytes @ 0x2
  3844                           
  3845     0072                     ??_FVR_IsOutputReady:	
  3846                           ; 1 bytes @ 0x2
  3847                           
  3848     0072                     ??_PWM4_Start:	
  3849                           ; 1 bytes @ 0x2
  3850                           
  3851     0072                     ??_PWM4_Stop:	
  3852                           ; 1 bytes @ 0x2
  3853                           
  3854     0072                     ??_PWM4_LoadBufferSet:	
  3855                           ; 1 bytes @ 0x2
  3856                           
  3857     0072                     ?_PWM4_DutyCycleSet:	
  3858                           ; 1 bytes @ 0x2
  3859                           
  3860     0072                     ??_PWM2_Start:	
  3861                           ; 1 bytes @ 0x2
  3862                           
  3863     0072                     ??_PWM2_Stop:	
  3864                           ; 1 bytes @ 0x2
  3865                           
  3866     0072                     ??_PWM2_LoadBufferSet:	
  3867                           ; 1 bytes @ 0x2
  3868                           
  3869     0072                     ?_PWM2_DutyCycleSet:	
  3870                           ; 1 bytes @ 0x2
  3871                           
  3872     0072                     ??_PWM3_Start:	
  3873                           ; 1 bytes @ 0x2
  3874                           
  3875     0072                     ??_PWM3_Stop:	
  3876                           ; 1 bytes @ 0x2
  3877                           
  3878     0072                     ??_PWM3_LoadBufferSet:	
  3879                           ; 1 bytes @ 0x2
  3880                           
  3881     0072                     ?_PWM3_DutyCycleSet:	
  3882                           ; 1 bytes @ 0x2
  3883                           
  3884     0072                     ??_PWM1_Start:	
  3885                           ; 1 bytes @ 0x2
  3886                           
  3887     0072                     ??_PWM1_Stop:	
  3888                           ; 1 bytes @ 0x2
  3889                           
  3890     0072                     ??_PWM1_LoadBufferSet:	
  3891                           ; 1 bytes @ 0x2
  3892                           
  3893     0072                     ?_PWM1_DutyCycleSet:	
  3894                           ; 1 bytes @ 0x2
  3895                           
  3896     0072                     ??_checkBattery:	
  3897                           ; 1 bytes @ 0x2
  3898                           
  3899     0072                     ??_ADCISR:	
  3900                           ; 1 bytes @ 0x2
  3901                           
  3902     0072                     EUSART_Write@txData:	
  3903                           ; 1 bytes @ 0x2
  3904                           
  3905     0072                     EUSART_SetFramingErrorHandler@interruptHandler:	
  3906                           ; 1 bytes @ 0x2
  3907                           
  3908     0072                     EUSART_SetOverrunErrorHandler@interruptHandler:	
  3909                           ; 2 bytes @ 0x2
  3910                           
  3911     0072                     EUSART_SetErrorHandler@interruptHandler:	
  3912                           ; 2 bytes @ 0x2
  3913                           
  3914     0072                     IOCAF3_SetInterruptHandler@InterruptHandler:	
  3915                           ; 2 bytes @ 0x2
  3916                           
  3917     0072                     TMR0_SetInterruptHandler@InterruptHandler:	
  3918                           ; 2 bytes @ 0x2
  3919                           
  3920     0072                     ADC1_SetInterruptHandler@InterruptHandler:	
  3921                           ; 2 bytes @ 0x2
  3922                           
  3923     0072                     PWM4_DutyCycleSet@dutyCycleCount:	
  3924                           ; 2 bytes @ 0x2
  3925                           
  3926     0072                     PWM2_DutyCycleSet@dutyCycleCount:	
  3927                           ; 2 bytes @ 0x2
  3928                           
  3929     0072                     PWM3_DutyCycleSet@dutyCycleCount:	
  3930                           ; 2 bytes @ 0x2
  3931                           
  3932     0072                     PWM1_DutyCycleSet@dutyCycleCount:	
  3933                           ; 2 bytes @ 0x2
  3934                           
  3935     0072                     checkBattery@battery_voltage:	
  3936                           ; 2 bytes @ 0x2
  3937                           
  3938                           
  3939                           ; 2 bytes @ 0x2
  3940     0072                     	ds	1
  3941     0073                     ??_putch:
  3942     0073                     putch@txData:	
  3943                           ; 1 bytes @ 0x3
  3944                           
  3945     0073                     ADC1_SelectChannel@channel:	
  3946                           ; 1 bytes @ 0x3
  3947                           
  3948                           
  3949                           ; 1 bytes @ 0x3
  3950     0073                     	ds	1
  3951     0074                     ??_EUSART_SetFramingErrorHandler:
  3952     0074                     ??_EUSART_SetOverrunErrorHandler:	
  3953                           ; 1 bytes @ 0x4
  3954                           
  3955     0074                     ??_EUSART_SetErrorHandler:	
  3956                           ; 1 bytes @ 0x4
  3957                           
  3958     0074                     ??_PIN_MANAGER_Initialize:	
  3959                           ; 1 bytes @ 0x4
  3960                           
  3961     0074                     ??_ADC1_Initialize:	
  3962                           ; 1 bytes @ 0x4
  3963                           
  3964     0074                     ??_TMR0_Initialize:	
  3965                           ; 1 bytes @ 0x4
  3966                           
  3967     0074                     ??_IOCAF3_SetInterruptHandler:	
  3968                           ; 1 bytes @ 0x4
  3969                           
  3970     0074                     ??_TMR0_SetInterruptHandler:	
  3971                           ; 1 bytes @ 0x4
  3972                           
  3973     0074                     ??_ADC1_SetInterruptHandler:	
  3974                           ; 1 bytes @ 0x4
  3975                           
  3976     0074                     ??_EUSART_Initialize:	
  3977                           ; 1 bytes @ 0x4
  3978                           
  3979     0074                     ??_SYSTEM_Initialize:	
  3980                           ; 1 bytes @ 0x4
  3981                           
  3982     0074                     ??_PWM4_DutyCycleSet:	
  3983                           ; 1 bytes @ 0x4
  3984                           
  3985     0074                     ??_PWM2_DutyCycleSet:	
  3986                           ; 1 bytes @ 0x4
  3987                           
  3988     0074                     ??_PWM3_DutyCycleSet:	
  3989                           ; 1 bytes @ 0x4
  3990                           
  3991     0074                     ??_PWM1_DutyCycleSet:	
  3992                           ; 1 bytes @ 0x4
  3993                           
  3994     0074                     ??_stopMotor:	
  3995                           ; 1 bytes @ 0x4
  3996                           
  3997     0074                     ??_stopGreen:	
  3998                           ; 1 bytes @ 0x4
  3999                           
  4000     0074                     ?_setStartGreen:	
  4001                           ; 1 bytes @ 0x4
  4002                           
  4003     0074                     ??_stopBlue:	
  4004                           ; 1 bytes @ 0x4
  4005                           
  4006     0074                     ?_setStartBlue:	
  4007                           ; 1 bytes @ 0x4
  4008                           
  4009     0074                     ??_stopRed:	
  4010                           ; 1 bytes @ 0x4
  4011                           
  4012     0074                     ?_setStartRed:	
  4013                           ; 1 bytes @ 0x4
  4014                           
  4015     0074                     ??_stopYellow:	
  4016                           ; 1 bytes @ 0x4
  4017                           
  4018     0074                     ??_stopAll:	
  4019                           ; 1 bytes @ 0x4
  4020                           
  4021     0074                     ?_fputc:	
  4022                           ; 1 bytes @ 0x4
  4023                           
  4024     0074                     setStartGreen@duty:	
  4025                           ; 2 bytes @ 0x4
  4026                           
  4027     0074                     setStartBlue@duty:	
  4028                           ; 2 bytes @ 0x4
  4029                           
  4030     0074                     setStartRed@duty:	
  4031                           ; 2 bytes @ 0x4
  4032                           
  4033     0074                     fputc@c:	
  4034                           ; 2 bytes @ 0x4
  4035                           
  4036                           
  4037                           ; 2 bytes @ 0x4
  4038     0074                     	ds	2
  4039     0076                     ??_setStartGreen:
  4040     0076                     ??_setStartBlue:	
  4041                           ; 1 bytes @ 0x6
  4042                           
  4043     0076                     ??_setStartRed:	
  4044                           ; 1 bytes @ 0x6
  4045                           
  4046     0076                     fputc@fp:	
  4047                           ; 1 bytes @ 0x6
  4048                           
  4049                           
  4050                           ; 1 bytes @ 0x6
  4051     0076                     	ds	1
  4052     0077                     ??_setStartYellow:
  4053     0077                     vfpfcnvrt@fp:	
  4054                           ; 1 bytes @ 0x7
  4055                           
  4056                           
  4057                           ; 1 bytes @ 0x7
  4058     0077                     	ds	1
  4059     0078                     ??_vfprintf:
  4060                           
  4061                           ; 1 bytes @ 0x8
  4062     0078                     	ds	1
  4063     0079                     ??_printf:
  4064     0079                     printf@ap:	
  4065                           ; 1 bytes @ 0x9
  4066                           
  4067                           
  4068                           ; 1 bytes @ 0x9
  4069     0079                     	ds	1
  4070                           
  4071                           	psect	cstackBANK0
  4072     0059                     __pcstackBANK0:
  4073     0059                     ??_fputc:
  4074                           
  4075                           ; 1 bytes @ 0x0
  4076     0059                     	ds	5
  4077     005E                     ?_vfpfcnvrt:
  4078     005E                     vfpfcnvrt@fmt:	
  4079                           ; 1 bytes @ 0x5
  4080                           
  4081                           
  4082                           ; 1 bytes @ 0x5
  4083     005E                     	ds	1
  4084     005F                     vfpfcnvrt@ap:
  4085                           
  4086                           ; 1 bytes @ 0x6
  4087     005F                     	ds	1
  4088     0060                     ??_vfpfcnvrt:
  4089                           
  4090                           ; 1 bytes @ 0x7
  4091     0060                     	ds	4
  4092     0064                     ?_vfprintf:
  4093     0064                     vfprintf@fmt:	
  4094                           ; 2 bytes @ 0xB
  4095                           
  4096                           
  4097                           ; 2 bytes @ 0xB
  4098     0064                     	ds	2
  4099     0066                     vfprintf@ap:
  4100                           
  4101                           ; 1 bytes @ 0xD
  4102     0066                     	ds	1
  4103     0067                     vfprintf@fp:
  4104                           
  4105                           ; 1 bytes @ 0xE
  4106     0067                     	ds	1
  4107     0068                     vfprintf@cfmt:
  4108                           
  4109                           ; 2 bytes @ 0xF
  4110     0068                     	ds	2
  4111     006A                     ?_printf:
  4112     006A                     printf@fmt:	
  4113                           ; 2 bytes @ 0x11
  4114                           
  4115                           
  4116                           ; 2 bytes @ 0x11
  4117     006A                     	ds	2
  4118     006C                     ??_programStates:
  4119                           
  4120                           ; 1 bytes @ 0x13
  4121     006C                     	ds	2
  4122                           
  4123                           	psect	maintext
  4124     04EE                     __pmaintext:	
  4125 ;;
  4126 ;;Main: autosize = 0, tempsize = 1, incstack = 0, save=0
  4127 ;;
  4128 ;; *************** function _main *****************
  4129 ;; Defined at:
  4130 ;;		line 232 in file "main.c"
  4131 ;; Parameters:    Size  Location     Type
  4132 ;;		None
  4133 ;; Auto vars:     Size  Location     Type
  4134 ;;		None
  4135 ;; Return value:  Size  Location     Type
  4136 ;;                  1    wreg      void 
  4137 ;; Registers used:
  4138 ;;		wreg, fsr0l, fsr0h, fsr1l, fsr1h, status,2, status,0, pclath, cstack
  4139 ;; Tracked objects:
  4140 ;;		On entry : B1F/0
  4141 ;;		On exit  : 1F/0
  4142 ;;		Unchanged: 0/0
  4143 ;; Data sizes:     COMMON   BANK0   BANK1   BANK2   BANK3   BANK4   BANK5   BANK6
  4144 ;;      Params:         0       0       0       0       0       0       0       0
  4145 ;;      Locals:         0       0       0       0       0       0       0       0
  4146 ;;      Temps:          0       0       1       0       0       0       0       0
  4147 ;;      Totals:         0       0       1       0       0       0       0       0
  4148 ;;Total ram usage:        1 bytes
  4149 ;; Hardware stack levels required when called: 11
  4150 ;; This function calls:
  4151 ;;		_ADC1_SelectChannel
  4152 ;;		_ADC1_SetInterruptHandler
  4153 ;;		_ADC1_StartConversion
  4154 ;;		_FVR_IsOutputReady
  4155 ;;		_IOCAF3_SetInterruptHandler
  4156 ;;		_SYSTEM_Initialize
  4157 ;;		_TMR0_SetInterruptHandler
  4158 ;;		_programStates
  4159 ;;		_setStartRed
  4160 ;;		_stopMotor
  4161 ;;		_stopRed
  4162 ;; This function is called by:
  4163 ;;		Startup code after reset
  4164 ;; This function uses a non-reentrant model
  4165 ;;
  4166                           
  4167     04EE                     _main:	
  4168                           ;psect for function _main
  4169                           
  4170                           
  4171                           ;main.c: 234:     SYSTEM_Initialize();
  4172                           
  4173                           ;incstack = 0
  4174                           ; Regs used in _main: [wreg-fsr1h+status,2+status,0+pclath+cstack]
  4175     04EE  3187  274C  3184   	fcall	_SYSTEM_Initialize
  4176                           
  4177                           ;main.c: 235:     LATCbits.LATC5 = 1;
  4178     04F1  0022               	movlb	2	; select bank2
  4179     04F2  168E               	bsf	14,5	;volatile
  4180                           
  4181                           ;main.c: 236:     stopMotor();
  4182     04F3  3187  27D7  3184   	fcall	_stopMotor
  4183                           
  4184                           ;main.c: 237:     LATCbits.LATC0 = 0;
  4185     04F6  100E               	bcf	14,0	;volatile
  4186                           
  4187                           ;main.c: 238:     LATAbits.LATA2 = 0;
  4188     04F7  110C               	bcf	12,2	;volatile
  4189                           
  4190                           ;main.c: 239:     LATAbits.LATA1 = 0;
  4191     04F8  108C               	bcf	12,1	;volatile
  4192                           
  4193                           ;main.c: 240:     LATAbits.LATA4 = 0;
  4194     04F9  120C               	bcf	12,4	;volatile
  4195                           
  4196                           ;main.c: 241:     LATCbits.LATC3 = 0;
  4197     04FA  118E               	bcf	14,3	;volatile
  4198     04FB                     l4453:	
  4199                           ;main.c: 244:     while(!FVR_IsOutputReady());
  4200                           
  4201     04FB  318E  2680  3184   	fcall	_FVR_IsOutputReady
  4202     04FE  3A00               	xorlw	0
  4203     04FF  1903               	skipnz
  4204     0500  2CFB               	goto	l4453
  4205                           
  4206                           ;main.c: 245:     ADC1_SetInterruptHandler(ADCISR);
  4207     0501  30D7               	movlw	low _ADCISR
  4208     0502  00F2               	movwf	ADC1_SetInterruptHandler@InterruptHandler
  4209     0503  300E               	movlw	high _ADCISR
  4210     0504  00F3               	movwf	ADC1_SetInterruptHandler@InterruptHandler+1
  4211     0505  318E  2686  3184   	fcall	_ADC1_SetInterruptHandler
  4212                           
  4213                           ;main.c: 246:     ADC1_SelectChannel(channel_FVR);
  4214     0508  301F               	movlw	31
  4215     0509  318F  2707  3184   	fcall	_ADC1_SelectChannel
  4216                           
  4217                           ;main.c: 248:     TMR0_SetInterruptHandler(timer0ISR);
  4218     050C  302C               	movlw	low _timer0ISR
  4219     050D  00F2               	movwf	TMR0_SetInterruptHandler@InterruptHandler
  4220     050E  300F               	movlw	high _timer0ISR
  4221     050F  00F3               	movwf	TMR0_SetInterruptHandler@InterruptHandler+1
  4222     0510  318E  2698  3184   	fcall	_TMR0_SetInterruptHandler
  4223                           
  4224                           ;main.c: 249:     IOCAF3_SetInterruptHandler(iocISR);
  4225     0513  30DF               	movlw	low _iocISR
  4226     0514  00F2               	movwf	IOCAF3_SetInterruptHandler@InterruptHandler
  4227     0515  300E               	movlw	high _iocISR
  4228     0516  00F3               	movwf	IOCAF3_SetInterruptHandler@InterruptHandler+1
  4229     0517  318E  2692  3184   	fcall	_IOCAF3_SetInterruptHandler
  4230                           
  4231                           ;main.c: 250:     ADC1_StartConversion();
  4232     051A  318E  2646  3184   	fcall	_ADC1_StartConversion
  4233                           
  4234                           ;main.c: 251:     currentState = StageWakeUp;
  4235     051D  3002               	movlw	2
  4236     051E  0020               	movlb	0	; select bank0
  4237     051F  00D7               	movwf	_currentState
  4238                           
  4239                           ;main.c: 252:     currentButtState = LONG;
  4240     0520  3003               	movlw	3
  4241     0521  00FA               	movwf	_currentButtState
  4242                           
  4243                           ;main.c: 255:     (INTCONbits.GIE = 1);
  4244     0522  178B               	bsf	11,7	;volatile
  4245                           
  4246                           ;main.c: 257:     (INTCONbits.PEIE = 1);
  4247     0523  170B               	bsf	11,6	;volatile
  4248                           
  4249                           ;main.c: 258:     if(PORTAbits.RA5 != 1)
  4250     0524  1A8C               	btfsc	12,5	;volatile
  4251     0525  2D2A               	goto	l4467
  4252                           
  4253                           ;main.c: 259:     {;main.c: 261:         button_state = 1;
  4254     0526  01D5               	clrf	_button_state
  4255     0527  0AD5               	incf	_button_state,f
  4256                           
  4257                           ;main.c: 262:         run_buttonLoop = 1;
  4258     0528  01D1               	clrf	_run_buttonLoop
  4259     0529  0AD1               	incf	_run_buttonLoop,f
  4260     052A                     l4467:	
  4261                           ;main.c: 263:     }
  4262                           
  4263                           
  4264                           ;main.c: 270:     {;main.c: 271:         if(run_buttonLoop)
  4265     052A  0851               	movf	_run_buttonLoop,w
  4266     052B  1903               	btfsc	3,2
  4267     052C  2D98               	goto	l4489
  4268                           
  4269                           ;main.c: 272:         {;main.c: 274:             if(button_state)
  4270     052D  0855               	movf	_button_state,w
  4271     052E  1903               	btfsc	3,2
  4272     052F  2D3F               	goto	l4475
  4273                           
  4274                           ;main.c: 275:             {;main.c: 276:                 pressedTime = 0;
  4275     0530  3030               	movlw	low _pressedTime
  4276     0531  0086               	movwf	6
  4277     0532  3000               	movlw	high _pressedTime
  4278     0533  0087               	movwf	7
  4279     0534  3008               	movlw	8
  4280     0535  0021               	movlb	1	; select bank1
  4281     0536  00ED               	movwf	??_main^(0+128)
  4282     0537  3000               	movlw	0
  4283     0538                     u4320:
  4284     0538  001E               	movwi fsr1++
  4285     0539  0BED               	decfsz	??_main^(0+128),f
  4286     053A  2D38               	goto	u4320
  4287                           
  4288                           ;main.c: 277:                 buttonPressedInProg = 1;
  4289     053B  0020               	movlb	0	; select bank0
  4290     053C  01CF               	clrf	_buttonPressedInProg
  4291     053D  0ACF               	incf	_buttonPressedInProg,f
  4292                           
  4293                           ;main.c: 278:             }
  4294     053E  2D97               	goto	l712
  4295     053F                     l4475:
  4296                           
  4297                           ;main.c: 280:             {;main.c: 283:                 if(pressedTime >= 100)
  4298     053F  0837               	movf	_pressedTime+7,w
  4299     0540  1D03               	btfss	3,2
  4300     0541  2D58               	goto	l4477
  4301     0542  0836               	movf	_pressedTime+6,w
  4302     0543  1D03               	btfss	3,2
  4303     0544  2D58               	goto	l4477
  4304     0545  0835               	movf	_pressedTime+5,w
  4305     0546  1D03               	btfss	3,2
  4306     0547  2D58               	goto	l4477
  4307     0548  0834               	movf	_pressedTime+4,w
  4308     0549  1D03               	btfss	3,2
  4309     054A  2D58               	goto	l4477
  4310     054B  0833               	movf	_pressedTime+3,w
  4311     054C  1D03               	btfss	3,2
  4312     054D  2D58               	goto	l4477
  4313     054E  0832               	movf	_pressedTime+2,w
  4314     054F  1D03               	btfss	3,2
  4315     0550  2D58               	goto	l4477
  4316     0551  0831               	movf	_pressedTime+1,w
  4317     0552  1D03               	btfss	3,2
  4318     0553  2D58               	goto	l4477
  4319     0554  3064               	movlw	100
  4320     0555  0230               	subwf	_pressedTime,w
  4321     0556  1C03               	btfss	3,0
  4322     0557  2D5A               	goto	l4479
  4323     0558                     l4477:
  4324                           
  4325                           ;main.c: 284:                 {;main.c: 286:                     currentButtState = LONG
      +                          ;
  4326     0558  3003               	movlw	3
  4327     0559  2D8F               	goto	L1
  4328     055A                     l4479:	
  4329                           ;main.c: 287:                 }
  4330                           
  4331     055A  0020               	movlb	0	; select bank0
  4332     055B  0837               	movf	_pressedTime+7,w
  4333     055C  1D03               	btfss	3,2
  4334     055D  2D91               	goto	l715
  4335     055E  0836               	movf	_pressedTime+6,w
  4336     055F  1D03               	btfss	3,2
  4337     0560  2D91               	goto	l715
  4338     0561  0835               	movf	_pressedTime+5,w
  4339     0562  1D03               	btfss	3,2
  4340     0563  2D91               	goto	l715
  4341     0564  0834               	movf	_pressedTime+4,w
  4342     0565  1D03               	btfss	3,2
  4343     0566  2D91               	goto	l715
  4344     0567  0833               	movf	_pressedTime+3,w
  4345     0568  1D03               	btfss	3,2
  4346     0569  2D91               	goto	l715
  4347     056A  0832               	movf	_pressedTime+2,w
  4348     056B  1D03               	btfss	3,2
  4349     056C  2D91               	goto	l715
  4350     056D  0831               	movf	_pressedTime+1,w
  4351     056E  1D03               	btfss	3,2
  4352     056F  2D91               	goto	l715
  4353     0570  3064               	movlw	100
  4354     0571  0230               	subwf	_pressedTime,w
  4355     0572  1803               	btfsc	3,0
  4356     0573  2D91               	goto	l715
  4357     0574  0020               	movlb	0	; select bank0
  4358     0575  0837               	movf	_pressedTime+7,w
  4359     0576  1D03               	btfss	3,2
  4360     0577  2D8E               	goto	l4483
  4361     0578  0836               	movf	_pressedTime+6,w
  4362     0579  1D03               	btfss	3,2
  4363     057A  2D8E               	goto	l4483
  4364     057B  0835               	movf	_pressedTime+5,w
  4365     057C  1D03               	btfss	3,2
  4366     057D  2D8E               	goto	l4483
  4367     057E  0834               	movf	_pressedTime+4,w
  4368     057F  1D03               	btfss	3,2
  4369     0580  2D8E               	goto	l4483
  4370     0581  0833               	movf	_pressedTime+3,w
  4371     0582  1D03               	btfss	3,2
  4372     0583  2D8E               	goto	l4483
  4373     0584  0832               	movf	_pressedTime+2,w
  4374     0585  1D03               	btfss	3,2
  4375     0586  2D8E               	goto	l4483
  4376     0587  0831               	movf	_pressedTime+1,w
  4377     0588  1D03               	btfss	3,2
  4378     0589  2D8E               	goto	l4483
  4379     058A  3032               	movlw	50
  4380     058B  0230               	subwf	_pressedTime,w
  4381     058C  1C03               	btfss	3,0
  4382     058D  2D91               	goto	l715
  4383     058E                     l4483:
  4384                           
  4385                           ;main.c: 290:                 {;main.c: 292:                     currentButtState = SHOR
      +                          T;
  4386     058E  3002               	movlw	2
  4387     058F                     L1:
  4388     058F  00FA               	movwf	_currentButtState
  4389                           
  4390                           ;main.c: 293:                 }
  4391     0590  2D93               	goto	l4485
  4392     0591                     l715:	
  4393                           ;main.c: 295:                 else
  4394                           
  4395                           
  4396                           ;main.c: 296:                 {;main.c: 298:                     currentButtState = TOOS
      +                          HORT;
  4397     0591  01FA               	clrf	_currentButtState
  4398     0592  0AFA               	incf	_currentButtState,f
  4399     0593                     l4485:
  4400                           
  4401                           ;main.c: 300:                buttonPressedInProg = 0;
  4402     0593  0020               	movlb	0	; select bank0
  4403     0594  01CF               	clrf	_buttonPressedInProg
  4404                           
  4405                           ;main.c: 301:                buttonStateUpdated = 1;
  4406     0595  01D4               	clrf	_buttonStateUpdated
  4407     0596  0AD4               	incf	_buttonStateUpdated,f
  4408     0597                     l712:	
  4409                           ;main.c: 302:             }
  4410                           
  4411                           
  4412                           ;main.c: 303:             run_buttonLoop = 0;
  4413     0597  01D1               	clrf	_run_buttonLoop
  4414     0598                     l4489:
  4415                           
  4416                           ;main.c: 305:         if(run_mainloop)
  4417     0598  0850               	movf	_run_mainloop,w
  4418     0599  1903               	btfsc	3,2
  4419     059A  2D2A               	goto	l4467
  4420                           
  4421                           ;main.c: 306:         {;main.c: 307:             if(buttonPressedInProg)
  4422     059B  084F               	movf	_buttonPressedInProg,w
  4423     059C  1903               	btfsc	3,2
  4424     059D  2DC5               	goto	l4501
  4425                           
  4426                           ;main.c: 308:             {;main.c: 309:                 pressedTime++;
  4427     059E  3001               	movlw	1
  4428     059F  07B0               	addwf	_pressedTime,f
  4429     05A0  3000               	movlw	0
  4430     05A1  3DB1               	addwfc	_pressedTime+1,f
  4431     05A2  3DB2               	addwfc	_pressedTime+2,f
  4432     05A3  3DB3               	addwfc	_pressedTime+3,f
  4433     05A4  3DB4               	addwfc	_pressedTime+4,f
  4434     05A5  3DB5               	addwfc	_pressedTime+5,f
  4435     05A6  3DB6               	addwfc	_pressedTime+6,f
  4436     05A7  3DB7               	addwfc	_pressedTime+7,f
  4437                           
  4438                           ;main.c: 312:                 if(pressedTime == 50)
  4439     05A8  3032               	movlw	50
  4440     05A9  0630               	xorwf	_pressedTime,w
  4441     05AA  0431               	iorwf	_pressedTime+1,w
  4442     05AB  0432               	iorwf	_pressedTime+2,w
  4443     05AC  0433               	iorwf	_pressedTime+3,w
  4444     05AD  0434               	iorwf	_pressedTime+4,w
  4445     05AE  0435               	iorwf	_pressedTime+5,w
  4446     05AF  0436               	iorwf	_pressedTime+6,w
  4447     05B0  0437               	iorwf	_pressedTime+7,w
  4448     05B1  1D03               	btfss	3,2
  4449     05B2  2DB6               	goto	l4497
  4450                           
  4451                           ;main.c: 313:                     singleBeep = 1;
  4452     05B3  0020               	movlb	0	; select bank0
  4453     05B4  01CD               	clrf	_singleBeep
  4454     05B5  0ACD               	incf	_singleBeep,f
  4455     05B6                     l4497:
  4456                           
  4457                           ;main.c: 316:                 if(pressedTime == 50 + 100 + 10)
  4458     05B6  30A0               	movlw	160
  4459     05B7  0020               	movlb	0	; select bank0
  4460     05B8  0630               	xorwf	_pressedTime,w
  4461     05B9  0431               	iorwf	_pressedTime+1,w
  4462     05BA  0432               	iorwf	_pressedTime+2,w
  4463     05BB  0433               	iorwf	_pressedTime+3,w
  4464     05BC  0434               	iorwf	_pressedTime+4,w
  4465     05BD  0435               	iorwf	_pressedTime+5,w
  4466     05BE  0436               	iorwf	_pressedTime+6,w
  4467     05BF  0437               	iorwf	_pressedTime+7,w
  4468     05C0  1D03               	btfss	3,2
  4469     05C1  2DC5               	goto	l4501
  4470                           
  4471                           ;main.c: 317:                     doubleBeep = 1;
  4472     05C2  0020               	movlb	0	; select bank0
  4473     05C3  01CC               	clrf	_doubleBeep
  4474     05C4  0ACC               	incf	_doubleBeep,f
  4475     05C5                     l4501:
  4476                           
  4477                           ;main.c: 320:             if(singleBeep)
  4478     05C5  0020               	movlb	0	; select bank0
  4479     05C6  084D               	movf	_singleBeep,w
  4480     05C7  1903               	btfsc	3,2
  4481     05C8  2DDF               	goto	l4515
  4482                           
  4483                           ;main.c: 321:             {;main.c: 322:                 singleBeepCounter++;
  4484     05C9  3001               	movlw	1
  4485     05CA  07BE               	addwf	_singleBeepCounter,f
  4486     05CB  3000               	movlw	0
  4487     05CC  3DBF               	addwfc	_singleBeepCounter+1,f
  4488                           
  4489                           ;main.c: 323:                 if (singleBeepCounter == 1)
  4490     05CD  033E               	decf	_singleBeepCounter,w
  4491     05CE  043F               	iorwf	_singleBeepCounter+1,w
  4492     05CF  1D03               	btfss	3,2
  4493     05D0  2DD3               	goto	l4509
  4494                           
  4495                           ;main.c: 324:                 {;main.c: 325:                     LATAbits.LATA4 = 1;
  4496     05D1  0022               	movlb	2	; select bank2
  4497     05D2  160C               	bsf	12,4	;volatile
  4498     05D3                     l4509:
  4499                           
  4500                           ;main.c: 328:                 if (singleBeepCounter == 10)
  4501     05D3  300A               	movlw	10
  4502     05D4  0020               	movlb	0	; select bank0
  4503     05D5  063E               	xorwf	_singleBeepCounter,w
  4504     05D6  043F               	iorwf	_singleBeepCounter+1,w
  4505     05D7  1D03               	btfss	3,2
  4506     05D8  2DDF               	goto	l4515
  4507                           
  4508                           ;main.c: 329:                 {;main.c: 330:                     LATAbits.LATA4 = 0;
  4509     05D9  0022               	movlb	2	; select bank2
  4510     05DA  120C               	bcf	12,4	;volatile
  4511                           
  4512                           ;main.c: 331:                     singleBeep = 0;
  4513     05DB  0020               	movlb	0	; select bank0
  4514     05DC  01CD               	clrf	_singleBeep
  4515                           
  4516                           ;main.c: 332:                     singleBeepCounter = 0;
  4517     05DD  01BE               	clrf	_singleBeepCounter
  4518     05DE  01BF               	clrf	_singleBeepCounter+1
  4519     05DF                     l4515:
  4520                           
  4521                           ;main.c: 335:             if(doubleBeep)
  4522     05DF  084C               	movf	_doubleBeep,w
  4523     05E0  1903               	btfsc	3,2
  4524     05E1  2E08               	goto	l4537
  4525                           
  4526                           ;main.c: 336:             {;main.c: 337:                 doubleBeepCounter++;
  4527     05E2  3001               	movlw	1
  4528     05E3  07BC               	addwf	_doubleBeepCounter,f
  4529     05E4  3000               	movlw	0
  4530     05E5  3DBD               	addwfc	_doubleBeepCounter+1,f
  4531                           
  4532                           ;main.c: 338:                 if (doubleBeepCounter == 1)
  4533     05E6  033C               	decf	_doubleBeepCounter,w
  4534     05E7  043D               	iorwf	_doubleBeepCounter+1,w
  4535     05E8  1D03               	btfss	3,2
  4536     05E9  2DEC               	goto	l4523
  4537                           
  4538                           ;main.c: 339:                     LATAbits.LATA4 = 1;
  4539     05EA  0022               	movlb	2	; select bank2
  4540     05EB  160C               	bsf	12,4	;volatile
  4541     05EC                     l4523:
  4542                           
  4543                           ;main.c: 340:                 if (doubleBeepCounter == 5)
  4544     05EC  3005               	movlw	5
  4545     05ED  0020               	movlb	0	; select bank0
  4546     05EE  063C               	xorwf	_doubleBeepCounter,w
  4547     05EF  043D               	iorwf	_doubleBeepCounter+1,w
  4548     05F0  1D03               	btfss	3,2
  4549     05F1  2DF4               	goto	l4527
  4550                           
  4551                           ;main.c: 341:                     LATAbits.LATA4 = 0;
  4552     05F2  0022               	movlb	2	; select bank2
  4553     05F3  120C               	bcf	12,4	;volatile
  4554     05F4                     l4527:
  4555                           
  4556                           ;main.c: 342:                 if (doubleBeepCounter == 2*5)
  4557     05F4  300A               	movlw	10
  4558     05F5  0020               	movlb	0	; select bank0
  4559     05F6  063C               	xorwf	_doubleBeepCounter,w
  4560     05F7  043D               	iorwf	_doubleBeepCounter+1,w
  4561     05F8  1D03               	btfss	3,2
  4562     05F9  2DFC               	goto	l4531
  4563                           
  4564                           ;main.c: 343:                     LATAbits.LATA4 = 1;
  4565     05FA  0022               	movlb	2	; select bank2
  4566     05FB  160C               	bsf	12,4	;volatile
  4567     05FC                     l4531:
  4568                           
  4569                           ;main.c: 344:                 if (doubleBeepCounter == 3*5)
  4570     05FC  300F               	movlw	15
  4571     05FD  0020               	movlb	0	; select bank0
  4572     05FE  063C               	xorwf	_doubleBeepCounter,w
  4573     05FF  043D               	iorwf	_doubleBeepCounter+1,w
  4574     0600  1D03               	btfss	3,2
  4575     0601  2E08               	goto	l4537
  4576                           
  4577                           ;main.c: 345:                 {;main.c: 346:                     LATAbits.LATA4 = 0;
  4578     0602  0022               	movlb	2	; select bank2
  4579     0603  120C               	bcf	12,4	;volatile
  4580                           
  4581                           ;main.c: 347:                     doubleBeep = 0;
  4582     0604  0020               	movlb	0	; select bank0
  4583     0605  01CC               	clrf	_doubleBeep
  4584                           
  4585                           ;main.c: 348:                     doubleBeepCounter = 0;
  4586     0606  01BC               	clrf	_doubleBeepCounter
  4587     0607  01BD               	clrf	_doubleBeepCounter+1
  4588     0608                     l4537:
  4589                           
  4590                           ;main.c: 351:             if(blinkRedThree)
  4591     0608  084B               	movf	_blinkRedThree,w
  4592     0609  1903               	btfsc	3,2
  4593     060A  2E59               	goto	l4569
  4594                           
  4595                           ;main.c: 352:             {;main.c: 353:                 blinkRedThreeCounter++;
  4596     060B  3001               	movlw	1
  4597     060C  07BA               	addwf	_blinkRedThreeCounter,f
  4598     060D  3000               	movlw	0
  4599     060E  3DBB               	addwfc	_blinkRedThreeCounter+1,f
  4600                           
  4601                           ;main.c: 354:                 if (blinkRedThreeCounter == 1)
  4602     060F  033A               	decf	_blinkRedThreeCounter,w
  4603     0610  043B               	iorwf	_blinkRedThreeCounter+1,w
  4604     0611  1D03               	btfss	3,2
  4605     0612  2E1A               	goto	l4545
  4606                           
  4607                           ;main.c: 355:                     setStartRed(32000);
  4608     0613  3000               	movlw	0
  4609     0614  00F4               	movwf	setStartRed@duty
  4610     0615  307D               	movlw	125
  4611     0616  00F5               	movwf	setStartRed@duty+1
  4612     0617  318F  278F  3184   	fcall	_setStartRed
  4613     061A                     l4545:
  4614                           
  4615                           ;main.c: 356:                 if (blinkRedThreeCounter == 100)
  4616     061A  3064               	movlw	100
  4617     061B  0020               	movlb	0	; select bank0
  4618     061C  063A               	xorwf	_blinkRedThreeCounter,w
  4619     061D  043B               	iorwf	_blinkRedThreeCounter+1,w
  4620     061E  1D03               	btfss	3,2
  4621     061F  2E23               	goto	l4549
  4622                           
  4623                           ;main.c: 357:                     stopRed();
  4624     0620  3187  27EA  3184   	fcall	_stopRed
  4625     0623                     l4549:
  4626                           
  4627                           ;main.c: 358:                 if (blinkRedThreeCounter == 2*100)
  4628     0623  30C8               	movlw	200
  4629     0624  0020               	movlb	0	; select bank0
  4630     0625  063A               	xorwf	_blinkRedThreeCounter,w
  4631     0626  043B               	iorwf	_blinkRedThreeCounter+1,w
  4632     0627  1D03               	btfss	3,2
  4633     0628  2E30               	goto	l4553
  4634                           
  4635                           ;main.c: 359:                     setStartRed(32000);
  4636     0629  3000               	movlw	0
  4637     062A  00F4               	movwf	setStartRed@duty
  4638     062B  307D               	movlw	125
  4639     062C  00F5               	movwf	setStartRed@duty+1
  4640     062D  318F  278F  3184   	fcall	_setStartRed
  4641     0630                     l4553:
  4642                           
  4643                           ;main.c: 360:                 if (blinkRedThreeCounter == 3*100)
  4644     0630  302C               	movlw	44
  4645     0631  0020               	movlb	0	; select bank0
  4646     0632  063A               	xorwf	_blinkRedThreeCounter,w
  4647     0633  1D03               	skipz
  4648     0634  2E3B               	goto	l4557
  4649     0635  033B               	decf	_blinkRedThreeCounter+1,w
  4650     0636  1D03               	btfss	3,2
  4651     0637  2E3B               	goto	l4557
  4652                           
  4653                           ;main.c: 361:                     stopRed();
  4654     0638  3187  27EA  3184   	fcall	_stopRed
  4655     063B                     l4557:
  4656                           
  4657                           ;main.c: 362:                 if (blinkRedThreeCounter == 4*100)
  4658     063B  3090               	movlw	144
  4659     063C  0020               	movlb	0	; select bank0
  4660     063D  063A               	xorwf	_blinkRedThreeCounter,w
  4661     063E  1D03               	skipz
  4662     063F  2E4A               	goto	l4561
  4663     0640  033B               	decf	_blinkRedThreeCounter+1,w
  4664     0641  1D03               	btfss	3,2
  4665     0642  2E4A               	goto	l4561
  4666                           
  4667                           ;main.c: 363:                     setStartRed(32000);
  4668     0643  3000               	movlw	0
  4669     0644  00F4               	movwf	setStartRed@duty
  4670     0645  307D               	movlw	125
  4671     0646  00F5               	movwf	setStartRed@duty+1
  4672     0647  318F  278F  3184   	fcall	_setStartRed
  4673     064A                     l4561:
  4674                           
  4675                           ;main.c: 364:                 if (blinkRedThreeCounter == 5*100)
  4676     064A  30F4               	movlw	244
  4677     064B  0020               	movlb	0	; select bank0
  4678     064C  063A               	xorwf	_blinkRedThreeCounter,w
  4679     064D  1D03               	skipz
  4680     064E  2E59               	goto	l4569
  4681     064F  033B               	decf	_blinkRedThreeCounter+1,w
  4682     0650  1D03               	btfss	3,2
  4683     0651  2E59               	goto	l4569
  4684                           
  4685                           ;main.c: 365:                 {;main.c: 366:                     stopRed();
  4686     0652  3187  27EA  3184   	fcall	_stopRed
  4687                           
  4688                           ;main.c: 367:                     blinkRedThree= 0;
  4689     0655  0020               	movlb	0	; select bank0
  4690     0656  01CB               	clrf	_blinkRedThree
  4691                           
  4692                           ;main.c: 368:                     blinkRedThreeCounter = 0;
  4693     0657  01BA               	clrf	_blinkRedThreeCounter
  4694     0658  01BB               	clrf	_blinkRedThreeCounter+1
  4695     0659                     l4569:
  4696                           
  4697                           ;main.c: 372:             programStates(currentState);
  4698     0659  0857               	movf	_currentState,w
  4699     065A  3180  2046  3184   	fcall	_programStates
  4700                           
  4701                           ;main.c: 376:             run_mainloop = 0;
  4702     065D  0020               	movlb	0	; select bank0
  4703     065E  01D0               	clrf	_run_mainloop
  4704     065F  2D2A               	goto	l4467
  4705     0660                     __end_of_main:
  4706                           
  4707                           	psect	text1
  4708     0046                     __ptext1:	
  4709 ;; *************** function _programStates *****************
  4710 ;; Defined at:
  4711 ;;		line 381 in file "main.c"
  4712 ;; Parameters:    Size  Location     Type
  4713 ;;  cases           1    wreg     enum E4540
  4714 ;; Auto vars:     Size  Location     Type
  4715 ;;  cases           1    0[BANK1 ] enum E4540
  4716 ;; Return value:  Size  Location     Type
  4717 ;;                  1    wreg      void 
  4718 ;; Registers used:
  4719 ;;		wreg, fsr0l, fsr0h, fsr1l, fsr1h, status,2, status,0, pclath, cstack
  4720 ;; Tracked objects:
  4721 ;;		On entry : 1F/0
  4722 ;;		On exit  : 0/0
  4723 ;;		Unchanged: 0/0
  4724 ;; Data sizes:     COMMON   BANK0   BANK1   BANK2   BANK3   BANK4   BANK5   BANK6
  4725 ;;      Params:         0       0       0       0       0       0       0       0
  4726 ;;      Locals:         0       0       1       0       0       0       0       0
  4727 ;;      Temps:          0       2       0       0       0       0       0       0
  4728 ;;      Totals:         0       2       1       0       0       0       0       0
  4729 ;;Total ram usage:        3 bytes
  4730 ;; Hardware stack levels used: 1
  4731 ;; Hardware stack levels required when called: 10
  4732 ;; This function calls:
  4733 ;;		_checkBattery
  4734 ;;		_printf
  4735 ;;		_setStartBlue
  4736 ;;		_setStartGreen
  4737 ;;		_setStartRed
  4738 ;;		_setStartYellow
  4739 ;;		_stopAll
  4740 ;;		_stopBlue
  4741 ;;		_stopGreen
  4742 ;;		_stopMotor
  4743 ;;		_stopRed
  4744 ;;		_stopYellow
  4745 ;; This function is called by:
  4746 ;;		_main
  4747 ;; This function uses a non-reentrant model
  4748 ;;
  4749                           
  4750     0046                     _programStates:	
  4751                           ;psect for function _programStates
  4752                           
  4753                           
  4754                           ;incstack = 0
  4755                           ; Regs used in _programStates: [wreg-fsr1h+status,2+status,0+pclath+cstack]
  4756                           ;programStates@cases stored from wreg
  4757     0046  0021               	movlb	1	; select bank1
  4758     0047  00EC               	movwf	programStates@cases^(0+128)
  4759                           
  4760                           ;main.c: 383:    switch(cases){
  4761     0048  2CC7               	goto	l4431
  4762     0049                     l3901:
  4763                           
  4764                           ;main.c: 385:             if(firstTime)
  4765     0049  086F               	movf	_firstTime,w
  4766     004A  1903               	btfsc	3,2
  4767     004B  2882               	goto	l3929
  4768                           
  4769                           ;main.c: 386:             {;main.c: 388:                 firstTime = 0;
  4770     004C  01EF               	clrf	_firstTime
  4771                           
  4772                           ;main.c: 389:                 StageWakeUpTimer = 0;
  4773     004D  30C8               	movlw	low _StageWakeUpTimer
  4774     004E  0086               	movwf	6
  4775     004F  3000               	movlw	high _StageWakeUpTimer
  4776     0050  0087               	movwf	7
  4777     0051  3008               	movlw	8
  4778     0052  00EC               	movwf	??_programStates
  4779     0053  3000               	movlw	0
  4780     0054                     u3240:
  4781     0054  001E               	movwi fsr1++
  4782     0055  0BEC               	decfsz	??_programStates,f
  4783     0056  2854               	goto	u3240
  4784                           
  4785                           ;main.c: 390:                 battery_status_counter = 0;
  4786     0057  01C0               	clrf	_battery_status_counter
  4787     0058  01C1               	clrf	_battery_status_counter+1
  4788                           
  4789                           ;main.c: 391:                 checkBattery();
  4790     0059  3187  2718  3180   	fcall	_checkBattery
  4791                           
  4792                           ;main.c: 392:                 if(battery_status == (uint16_t)1)
  4793     005C  037B               	decf	_battery_status,w
  4794     005D  1D03               	btfss	3,2
  4795     005E  2866               	goto	l3915
  4796                           
  4797                           ;main.c: 393:                     setStartGreen(32000);
  4798     005F  3000               	movlw	0
  4799     0060  00F4               	movwf	setStartGreen@duty
  4800     0061  307D               	movlw	125
  4801     0062  00F5               	movwf	setStartGreen@duty+1
  4802     0063  318F  277D  3180   	fcall	_setStartGreen
  4803     0066                     l3915:
  4804                           
  4805                           ;main.c: 394:                 if(battery_status == (uint16_t)2)
  4806     0066  3002               	movlw	2
  4807     0067  067B               	xorwf	_battery_status,w
  4808     0068  1D03               	btfss	3,2
  4809     0069  286D               	goto	l3919
  4810                           
  4811                           ;main.c: 395:                     setStartYellow();
  4812     006A  318F  273A  3180   	fcall	_setStartYellow
  4813     006D                     l3919:
  4814                           
  4815                           ;main.c: 396:                 if((battery_status == (uint16_t)3)||(battery_status == (ui
      +                          nt16_t)4))
  4816     006D  3003               	movlw	3
  4817     006E  067B               	xorwf	_battery_status,w
  4818     006F  1903               	btfsc	3,2
  4819     0070  2875               	goto	l3923
  4820     0071  3004               	movlw	4
  4821     0072  067B               	xorwf	_battery_status,w
  4822     0073  1D03               	btfss	3,2
  4823     0074  287C               	goto	l3925
  4824     0075                     l3923:
  4825                           
  4826                           ;main.c: 397:                     setStartRed(32000);
  4827     0075  3000               	movlw	0
  4828     0076  00F4               	movwf	setStartRed@duty
  4829     0077  307D               	movlw	125
  4830     0078  00F5               	movwf	setStartRed@duty+1
  4831     0079  318F  278F  3180   	fcall	_setStartRed
  4832     007C                     l3925:
  4833                           
  4834                           ;main.c: 398:                 if(battery_status != (uint16_t)1)
  4835     007C  037B               	decf	_battery_status,w
  4836     007D  1903               	btfsc	3,2
  4837     007E  2882               	goto	l3929
  4838                           
  4839                           ;main.c: 399:                     singleBeep = 1;
  4840     007F  0020               	movlb	0	; select bank0
  4841     0080  01CD               	clrf	_singleBeep
  4842     0081  0ACD               	incf	_singleBeep,f
  4843     0082                     l3929:
  4844                           
  4845                           ;main.c: 401:             if(buttonStateUpdated)
  4846     0082  0020               	movlb	0	; select bank0
  4847     0083  0854               	movf	_buttonStateUpdated,w
  4848     0084  1903               	btfsc	3,2
  4849     0085  2897               	goto	l3943
  4850                           
  4851                           ;main.c: 402:             {;main.c: 403:                 buttonStateUpdated = 0;
  4852     0086  01D4               	clrf	_buttonStateUpdated
  4853                           
  4854                           ;main.c: 404:                 if((battery_status != (uint16_t)3)&&(battery_status != (ui
      +                          nt16_t)4))
  4855     0087  3003               	movlw	3
  4856     0088  067B               	xorwf	_battery_status,w
  4857     0089  1903               	btfsc	3,2
  4858     008A  2897               	goto	l3943
  4859     008B  3004               	movlw	4
  4860     008C  067B               	xorwf	_battery_status,w
  4861     008D  1903               	btfsc	3,2
  4862     008E  2897               	goto	l3943
  4863                           
  4864                           ;main.c: 405:                 {;main.c: 406:                     if(currentButtState == 
      +                          SHORT)
  4865     008F  3002               	movlw	2
  4866     0090  067A               	xorwf	_currentButtState,w
  4867     0091  1D03               	btfss	3,2
  4868     0092  2895               	goto	l3941
  4869                           
  4870                           ;main.c: 407:                         currentState = StageASlow;
  4871     0093  3004               	movlw	4
  4872     0094  00D7               	movwf	_currentState
  4873     0095                     l3941:
  4874                           
  4875                           ;main.c: 408:                     firstTime = 1;
  4876     0095  01EF               	clrf	_firstTime
  4877     0096  0AEF               	incf	_firstTime,f
  4878     0097                     l3943:
  4879                           
  4880                           ;main.c: 412:             if(StageWakeUpTimer == 5*100)
  4881     0097  30F4               	movlw	244
  4882     0098  0021               	movlb	1	; select bank1
  4883     0099  0648               	xorwf	_StageWakeUpTimer^(0+128),w
  4884     009A  1D03               	skipz
  4885     009B  28C0               	goto	l3955
  4886     009C  0349               	decf	(_StageWakeUpTimer+1)^(0+128),w
  4887     009D  044A               	iorwf	(_StageWakeUpTimer+2)^(0+128),w
  4888     009E  044B               	iorwf	(_StageWakeUpTimer+3)^(0+128),w
  4889     009F  044C               	iorwf	(_StageWakeUpTimer+4)^(0+128),w
  4890     00A0  044D               	iorwf	(_StageWakeUpTimer+5)^(0+128),w
  4891     00A1  044E               	iorwf	(_StageWakeUpTimer+6)^(0+128),w
  4892     00A2  044F               	iorwf	(_StageWakeUpTimer+7)^(0+128),w
  4893     00A3  1D03               	btfss	3,2
  4894     00A4  28C0               	goto	l3955
  4895                           
  4896                           ;main.c: 413:             {;main.c: 414:                 if((battery_status == (uint16_t
      +                          )1)||(battery_status == (uint16_t)2))
  4897     00A5  037B               	decf	_battery_status,w
  4898     00A6  1903               	btfsc	3,2
  4899     00A7  28AC               	goto	l3949
  4900     00A8  3002               	movlw	2
  4901     00A9  067B               	xorwf	_battery_status,w
  4902     00AA  1D03               	btfss	3,2
  4903     00AB  28B2               	goto	l754
  4904     00AC                     l3949:
  4905                           
  4906                           ;main.c: 415:                 {;main.c: 417:                     currentState = StageShu
      +                          tdown;
  4907     00AC  300A               	movlw	10
  4908     00AD  0020               	movlb	0	; select bank0
  4909     00AE  00D7               	movwf	_currentState
  4910                           
  4911                           ;main.c: 418:                     firstTime = 1;
  4912     00AF  01EF               	clrf	_firstTime
  4913     00B0  0AEF               	incf	_firstTime,f
  4914                           
  4915                           ;main.c: 419:                 }else
  4916     00B1  28C0               	goto	l3955
  4917     00B2                     l754:
  4918                           
  4919                           ;main.c: 420:                 {;main.c: 421:                     LATCbits.LATC5 = 0;
  4920     00B2  0022               	movlb	2	; select bank2
  4921     00B3  128E               	bcf	14,5	;volatile
  4922                           
  4923                           ;main.c: 422:                     _delay((unsigned long)((100)*(16000000/4000.0)));
  4924     00B4  3003               	movlw	3
  4925     00B5  0020               	movlb	0	; select bank0
  4926     00B6  00ED               	movwf	??_programStates+1
  4927     00B7  3008               	movlw	8
  4928     00B8  00EC               	movwf	??_programStates
  4929     00B9  3077               	movlw	119
  4930     00BA                     u4557:
  4931     00BA  0B89               	decfsz	9,f
  4932     00BB  28BA               	goto	u4557
  4933     00BC  0BEC               	decfsz	??_programStates,f
  4934     00BD  28BA               	goto	u4557
  4935     00BE  0BED               	decfsz	??_programStates+1,f
  4936     00BF  28BA               	goto	u4557
  4937     00C0                     l3955:
  4938                           
  4939                           ;main.c: 426:             StageWakeUpTimer++;
  4940     00C0  3001               	movlw	1
  4941     00C1  0021               	movlb	1	; select bank1
  4942     00C2  07C8               	addwf	_StageWakeUpTimer^(0+128),f
  4943     00C3  3000               	movlw	0
  4944     00C4  3DC9               	addwfc	(_StageWakeUpTimer+1)^(0+128),f
  4945     00C5  3DCA               	addwfc	(_StageWakeUpTimer+2)^(0+128),f
  4946     00C6  3DCB               	addwfc	(_StageWakeUpTimer+3)^(0+128),f
  4947     00C7  3DCC               	addwfc	(_StageWakeUpTimer+4)^(0+128),f
  4948     00C8  3DCD               	addwfc	(_StageWakeUpTimer+5)^(0+128),f
  4949     00C9  3DCE               	addwfc	(_StageWakeUpTimer+6)^(0+128),f
  4950     00CA  3DCF               	addwfc	(_StageWakeUpTimer+7)^(0+128),f
  4951                           
  4952                           ;main.c: 427:             break;
  4953     00CB  0008               	return
  4954     00CC                     l3957:
  4955                           
  4956                           ;main.c: 429:             if(firstTime)
  4957     00CC  086F               	movf	_firstTime,w
  4958     00CD  1903               	btfsc	3,2
  4959     00CE  28E8               	goto	l3969
  4960                           
  4961                           ;main.c: 430:             {;main.c: 431:                 printf("Stage A\n\r");
  4962     00CF  3013               	movlw	low (STR_1| (0+32768))
  4963     00D0  00EA               	movwf	printf@fmt
  4964     00D1  3088               	movlw	high (STR_1| (0+32768))
  4965     00D2  00EB               	movwf	printf@fmt+1
  4966     00D3  318F  2713  3180   	fcall	_printf
  4967                           
  4968                           ;main.c: 433:                 stageA_counter = 0;
  4969     00D6  3028               	movlw	low _stageA_counter
  4970     00D7  0086               	movwf	6
  4971     00D8  3000               	movlw	high _stageA_counter
  4972     00D9  0087               	movwf	7
  4973     00DA  3008               	movlw	8
  4974     00DB  00EC               	movwf	??_programStates
  4975     00DC  3000               	movlw	0
  4976     00DD                     u3380:
  4977     00DD  001E               	movwi fsr1++
  4978     00DE  0BEC               	decfsz	??_programStates,f
  4979     00DF  28DD               	goto	u3380
  4980                           
  4981                           ;main.c: 434:                 firstTime = 0;
  4982     00E0  01EF               	clrf	_firstTime
  4983                           
  4984                           ;main.c: 435:                 ledCounter = 1;
  4985     00E1  3001               	movlw	1
  4986     00E2  00B8               	movwf	_ledCounter
  4987     00E3  3000               	movlw	0
  4988     00E4  00B9               	movwf	_ledCounter+1
  4989                           
  4990                           ;main.c: 436:                 stopAll();
  4991     00E5  318E  26E7  3180   	fcall	_stopAll
  4992     00E8                     l3969:
  4993                           
  4994                           ;main.c: 438:             if(stageA_counter == 2*100)
  4995     00E8  30C8               	movlw	200
  4996     00E9  0020               	movlb	0	; select bank0
  4997     00EA  0628               	xorwf	_stageA_counter,w
  4998     00EB  0429               	iorwf	_stageA_counter+1,w
  4999     00EC  042A               	iorwf	_stageA_counter+2,w
  5000     00ED  042B               	iorwf	_stageA_counter+3,w
  5001     00EE  042C               	iorwf	_stageA_counter+4,w
  5002     00EF  042D               	iorwf	_stageA_counter+5,w
  5003     00F0  042E               	iorwf	_stageA_counter+6,w
  5004     00F1  042F               	iorwf	_stageA_counter+7,w
  5005     00F2  1D03               	btfss	3,2
  5006     00F3  290C               	goto	l3985
  5007                           
  5008                           ;main.c: 439:             {;main.c: 440:                 checkBattery();
  5009     00F4  3187  2718  3180   	fcall	_checkBattery
  5010                           
  5011                           ;main.c: 441:                 if(battery_status == (uint16_t)1)
  5012     00F7  037B               	decf	_battery_status,w
  5013     00F8  1D03               	btfss	3,2
  5014     00F9  28FC               	goto	l3977
  5015                           
  5016                           ;main.c: 442:                     enableGreen = 1;
  5017     00FA  01CA               	clrf	_enableGreen
  5018     00FB  0ACA               	incf	_enableGreen,f
  5019     00FC                     l3977:
  5020                           
  5021                           ;main.c: 443:                 if(battery_status == (uint16_t)2)
  5022     00FC  3002               	movlw	2
  5023     00FD  067B               	xorwf	_battery_status,w
  5024     00FE  1D03               	btfss	3,2
  5025     00FF  2902               	goto	l3981
  5026                           
  5027                           ;main.c: 444:                     enableYellow = 1;
  5028     0100  01C7               	clrf	_enableYellow
  5029     0101  0AC7               	incf	_enableYellow,f
  5030     0102                     l3981:
  5031                           
  5032                           ;main.c: 445:                 if((battery_status == (uint16_t)3)||(battery_status == (ui
      +                          nt16_t)4))
  5033     0102  3003               	movlw	3
  5034     0103  067B               	xorwf	_battery_status,w
  5035     0104  1903               	btfsc	3,2
  5036     0105  290A               	goto	l766
  5037     0106  3004               	movlw	4
  5038     0107  067B               	xorwf	_battery_status,w
  5039     0108  1D03               	btfss	3,2
  5040     0109  290C               	goto	l3985
  5041     010A                     l766:
  5042                           
  5043                           ;main.c: 446:                     enableRed = 1;
  5044     010A  01C9               	clrf	_enableRed
  5045     010B  0AC9               	incf	_enableRed,f
  5046     010C                     l3985:
  5047                           
  5048                           ;main.c: 448:             if(ledCounter == 1)
  5049     010C  0020               	movlb	0	; select bank0
  5050     010D  0338               	decf	_ledCounter,w
  5051     010E  0439               	iorwf	_ledCounter+1,w
  5052     010F  1D03               	btfss	3,2
  5053     0110  292D               	goto	l3999
  5054                           
  5055                           ;main.c: 449:             { if(enableGreen)
  5056     0111  084A               	movf	_enableGreen,w
  5057     0112  1903               	btfsc	3,2
  5058     0113  291B               	goto	l3991
  5059                           
  5060                           ;main.c: 450:                     setStartGreen(32000);
  5061     0114  3000               	movlw	0
  5062     0115  00F4               	movwf	setStartGreen@duty
  5063     0116  307D               	movlw	125
  5064     0117  00F5               	movwf	setStartGreen@duty+1
  5065     0118  318F  277D  3180   	fcall	_setStartGreen
  5066     011B                     l3991:
  5067                           
  5068                           ;main.c: 451:                 if(enableYellow)
  5069     011B  0020               	movlb	0	; select bank0
  5070     011C  0847               	movf	_enableYellow,w
  5071     011D  1903               	btfsc	3,2
  5072     011E  2922               	goto	l3995
  5073                           
  5074                           ;main.c: 452:                     setStartYellow();
  5075     011F  318F  273A  3180   	fcall	_setStartYellow
  5076     0122                     l3995:
  5077                           
  5078                           ;main.c: 453:                 if(enableRed)
  5079     0122  0020               	movlb	0	; select bank0
  5080     0123  0849               	movf	_enableRed,w
  5081     0124  1903               	btfsc	3,2
  5082     0125  292D               	goto	l3999
  5083                           
  5084                           ;main.c: 454:                     setStartRed(32000);
  5085     0126  3000               	movlw	0
  5086     0127  00F4               	movwf	setStartRed@duty
  5087     0128  307D               	movlw	125
  5088     0129  00F5               	movwf	setStartRed@duty+1
  5089     012A  318F  278F  3180   	fcall	_setStartRed
  5090     012D                     l3999:
  5091                           
  5092                           ;main.c: 456:             if(ledCounter == 100)
  5093     012D  3064               	movlw	100
  5094     012E  0020               	movlb	0	; select bank0
  5095     012F  0638               	xorwf	_ledCounter,w
  5096     0130  0439               	iorwf	_ledCounter+1,w
  5097     0131  1D03               	btfss	3,2
  5098     0132  2936               	goto	l4003
  5099                           
  5100                           ;main.c: 457:             {;main.c: 458:                 stopAll();
  5101     0133  318E  26E7  3180   	fcall	_stopAll
  5102     0136                     l4003:
  5103                           
  5104                           ;main.c: 460:             if(ledCounter == 2*100)
  5105     0136  30C8               	movlw	200
  5106     0137  0020               	movlb	0	; select bank0
  5107     0138  0638               	xorwf	_ledCounter,w
  5108     0139  0439               	iorwf	_ledCounter+1,w
  5109     013A  1D03               	btfss	3,2
  5110     013B  293E               	goto	l4007
  5111                           
  5112                           ;main.c: 461:                 ledCounter = 0;
  5113     013C  01B8               	clrf	_ledCounter
  5114     013D  01B9               	clrf	_ledCounter+1
  5115     013E                     l4007:
  5116                           
  5117                           ;main.c: 462:             if(buttonStateUpdated)
  5118     013E  0854               	movf	_buttonStateUpdated,w
  5119     013F  1903               	btfsc	3,2
  5120     0140  2957               	goto	l4027
  5121                           
  5122                           ;main.c: 463:             {;main.c: 464:                 buttonStateUpdated = 0;
  5123     0141  01D4               	clrf	_buttonStateUpdated
  5124                           
  5125                           ;main.c: 465:                 stopGreen();
  5126     0142  318F  27ED  3180   	fcall	_stopGreen
  5127                           
  5128                           ;main.c: 466:                 if(currentButtState == LONG)
  5129     0145  3003               	movlw	3
  5130     0146  067A               	xorwf	_currentButtState,w
  5131     0147  1D03               	btfss	3,2
  5132     0148  294E               	goto	l4019
  5133                           
  5134                           ;main.c: 467:                 {;main.c: 469:                     currentState = StageShu
      +                          tdown;
  5135     0149  300A               	movlw	10
  5136     014A  0020               	movlb	0	; select bank0
  5137     014B  00D7               	movwf	_currentState
  5138                           
  5139                           ;main.c: 470:                     firstTime = 1;
  5140     014C  01EF               	clrf	_firstTime
  5141     014D  0AEF               	incf	_firstTime,f
  5142     014E                     l4019:
  5143                           
  5144                           ;main.c: 472:                 if(currentButtState == SHORT)
  5145     014E  3002               	movlw	2
  5146     014F  067A               	xorwf	_currentButtState,w
  5147     0150  1D03               	btfss	3,2
  5148     0151  2957               	goto	l4027
  5149                           
  5150                           ;main.c: 473:                 {;main.c: 475:                     currentState = StageBNo
      +                          rmal;
  5151     0152  3005               	movlw	5
  5152     0153  0020               	movlb	0	; select bank0
  5153     0154  00D7               	movwf	_currentState
  5154                           
  5155                           ;main.c: 476:                     firstTime = 1;
  5156     0155  01EF               	clrf	_firstTime
  5157     0156  0AEF               	incf	_firstTime,f
  5158     0157                     l4027:	
  5159                           ;main.c: 479:                 {;main.c: 480:                 }
  5160                           
  5161                           
  5162                           ;main.c: 482:             if(stageA_counter == 6000)
  5163     0157  3070               	movlw	112
  5164     0158  0020               	movlb	0	; select bank0
  5165     0159  0628               	xorwf	_stageA_counter,w
  5166     015A  3017               	movlw	23
  5167     015B  1903               	skipnz
  5168     015C  0629               	xorwf	_stageA_counter+1,w
  5169     015D  042A               	iorwf	_stageA_counter+2,w
  5170     015E  042B               	iorwf	_stageA_counter+3,w
  5171     015F  042C               	iorwf	_stageA_counter+4,w
  5172     0160  042D               	iorwf	_stageA_counter+5,w
  5173     0161  042E               	iorwf	_stageA_counter+6,w
  5174     0162  042F               	iorwf	_stageA_counter+7,w
  5175     0163  1D03               	btfss	3,2
  5176     0164  296A               	goto	l777
  5177                           
  5178                           ;main.c: 483:             {;main.c: 485:                 currentState = StageBNormal;
  5179     0165  3005               	movlw	5
  5180     0166  0020               	movlb	0	; select bank0
  5181     0167  00D7               	movwf	_currentState
  5182                           
  5183                           ;main.c: 486:                 firstTime = 1;
  5184     0168  01EF               	clrf	_firstTime
  5185     0169  0AEF               	incf	_firstTime,f
  5186     016A                     l777:	
  5187                           ;main.c: 487:             }
  5188                           
  5189                           
  5190                           ;main.c: 488:             ledCounter++;
  5191     016A  3001               	movlw	1
  5192     016B  0020               	movlb	0	; select bank0
  5193     016C  07B8               	addwf	_ledCounter,f
  5194     016D  3000               	movlw	0
  5195     016E  3DB9               	addwfc	_ledCounter+1,f
  5196                           
  5197                           ;main.c: 489:             stageA_counter++;
  5198     016F  3001               	movlw	1
  5199     0170  07A8               	addwf	_stageA_counter,f
  5200     0171  3000               	movlw	0
  5201     0172  3DA9               	addwfc	_stageA_counter+1,f
  5202     0173  3DAA               	addwfc	_stageA_counter+2,f
  5203     0174  3DAB               	addwfc	_stageA_counter+3,f
  5204     0175  3DAC               	addwfc	_stageA_counter+4,f
  5205     0176  3DAD               	addwfc	_stageA_counter+5,f
  5206     0177  3DAE               	addwfc	_stageA_counter+6,f
  5207     0178  3DAF               	addwfc	_stageA_counter+7,f
  5208                           
  5209                           ;main.c: 490:             break;
  5210     0179  0008               	return
  5211     017A                     l4035:
  5212                           
  5213                           ;main.c: 492:             if(firstTime)
  5214     017A  086F               	movf	_firstTime,w
  5215     017B  1903               	btfsc	3,2
  5216     017C  2989               	goto	l4045
  5217                           
  5218                           ;main.c: 493:             {;main.c: 494:                 printf("Stage B \n\r");
  5219     017D  30FD               	movlw	low (STR_2| (0+32768))
  5220     017E  00EA               	movwf	printf@fmt
  5221     017F  3087               	movlw	high (STR_2| (0+32768))
  5222     0180  00EB               	movwf	printf@fmt+1
  5223     0181  318F  2713  3180   	fcall	_printf
  5224                           
  5225                           ;main.c: 496:                 battery_status_counter = 0;
  5226     0184  01C0               	clrf	_battery_status_counter
  5227     0185  01C1               	clrf	_battery_status_counter+1
  5228                           
  5229                           ;main.c: 497:                 firstTimeB = 1;
  5230     0186  01D3               	clrf	_firstTimeB
  5231     0187  0AD3               	incf	_firstTimeB,f
  5232                           
  5233                           ;main.c: 498:                 firstTime = 0;
  5234     0188  01EF               	clrf	_firstTime
  5235     0189                     l4045:
  5236                           
  5237                           ;main.c: 500:             if(firstTimeB)
  5238     0189  0853               	movf	_firstTimeB,w
  5239     018A  1903               	btfsc	3,2
  5240     018B  2998               	goto	l4073
  5241                           
  5242                           ;main.c: 501:             {;main.c: 502:                 if(battery_status_counter == 2*
      +                          100)
  5243     018C  30C8               	movlw	200
  5244     018D  0640               	xorwf	_battery_status_counter,w
  5245     018E  0441               	iorwf	_battery_status_counter+1,w
  5246     018F  1D03               	btfss	3,2
  5247     0190  29CC               	goto	l4097
  5248                           
  5249                           ;main.c: 503:                 {;main.c: 504:                     checkBattery();
  5250     0191  3187  2718  3180   	fcall	_checkBattery
  5251                           
  5252                           ;main.c: 505:                     battery_status_counter = 0;
  5253     0194  01C0               	clrf	_battery_status_counter
  5254     0195  01C1               	clrf	_battery_status_counter+1
  5255                           
  5256                           ;main.c: 506:                     firstTimeB = 0;
  5257     0196  01D3               	clrf	_firstTimeB
  5258     0197  29A4               	goto	L2
  5259     0198                     l4073:	
  5260                           ;main.c: 511:                     if((battery_status == (uint16_t)3)||(battery_status ==
      +                           (uint16_t)4))
  5261                           
  5262                           ;main.c: 510:                         setStartYellow();
  5263                           
  5264                           ;main.c: 509:                     if(battery_status == (uint16_t)2)
  5265                           
  5266                           ;main.c: 508:                         setStartGreen(32000);
  5267                           
  5268                           ;main.c: 507:                     if(battery_status == (uint16_t)1)
  5269                           
  5270                           
  5271                           ;main.c: 521:             {;main.c: 522:                 if(battery_status_counter == 60
      +                          00)
  5272     0198  3070               	movlw	112
  5273     0199  0640               	xorwf	_battery_status_counter,w
  5274     019A  3017               	movlw	23
  5275     019B  1903               	skipnz
  5276     019C  0641               	xorwf	_battery_status_counter+1,w
  5277     019D  1D03               	btfss	3,2
  5278     019E  29CC               	goto	l4097
  5279                           
  5280                           ;main.c: 523:                 {;main.c: 524:                     checkBattery();
  5281     019F  3187  2718  3180   	fcall	_checkBattery
  5282                           
  5283                           ;main.c: 525:                     battery_status_counter = 0;
  5284     01A2  01C0               	clrf	_battery_status_counter
  5285     01A3  01C1               	clrf	_battery_status_counter+1
  5286     01A4                     L2:
  5287                           
  5288                           ;main.c: 526:                     if(battery_status == (uint16_t)1)
  5289     01A4  037B               	decf	_battery_status,w
  5290     01A5  1D03               	btfss	3,2
  5291     01A6  29AE               	goto	l4083
  5292                           
  5293                           ;main.c: 527:                         setStartGreen(32000);
  5294     01A7  3000               	movlw	0
  5295     01A8  00F4               	movwf	setStartGreen@duty
  5296     01A9  307D               	movlw	125
  5297     01AA  00F5               	movwf	setStartGreen@duty+1
  5298     01AB  318F  277D  3180   	fcall	_setStartGreen
  5299     01AE                     l4083:
  5300                           
  5301                           ;main.c: 528:                     if(battery_status == (uint16_t)2)
  5302     01AE  3002               	movlw	2
  5303     01AF  067B               	xorwf	_battery_status,w
  5304     01B0  1D03               	btfss	3,2
  5305     01B1  29B5               	goto	l4087
  5306                           
  5307                           ;main.c: 529:                         setStartYellow();
  5308     01B2  318F  273A  3180   	fcall	_setStartYellow
  5309     01B5                     l4087:
  5310                           
  5311                           ;main.c: 530:                     if((battery_status == (uint16_t)3)||(battery_status ==
      +                           (uint16_t)4))
  5312     01B5  3003               	movlw	3
  5313     01B6  067B               	xorwf	_battery_status,w
  5314     01B7  1903               	btfsc	3,2
  5315     01B8  29BD               	goto	l4067
  5316     01B9  3004               	movlw	4
  5317     01BA  067B               	xorwf	_battery_status,w
  5318     01BB  1D03               	btfss	3,2
  5319     01BC  29CC               	goto	l4097
  5320     01BD                     l4067:
  5321                           
  5322                           ;main.c: 512:                     {;main.c: 513:                         stopYellow();
  5323     01BD  318E  26B6  3180   	fcall	_stopYellow
  5324                           
  5325                           ;main.c: 514:                         setStartRed(32000);
  5326     01C0  3000               	movlw	0
  5327     01C1  00F4               	movwf	setStartRed@duty
  5328     01C2  307D               	movlw	125
  5329     01C3  00F5               	movwf	setStartRed@duty+1
  5330     01C4  318F  278F  3180   	fcall	_setStartRed
  5331                           
  5332                           ;main.c: 515:                         currentState = StageB1;
  5333     01C7  3006               	movlw	6
  5334     01C8  0020               	movlb	0	; select bank0
  5335     01C9  00D7               	movwf	_currentState
  5336                           
  5337                           ;main.c: 516:                         firstTime = 1;
  5338     01CA  01EF               	clrf	_firstTime
  5339     01CB  0AEF               	incf	_firstTime,f
  5340     01CC                     l4097:
  5341                           
  5342                           ;main.c: 540:             if(buttonStateUpdated)
  5343     01CC  0020               	movlb	0	; select bank0
  5344     01CD  0854               	movf	_buttonStateUpdated,w
  5345     01CE  1903               	btfsc	3,2
  5346     01CF  29E4               	goto	l4117
  5347                           
  5348                           ;main.c: 541:             {;main.c: 542:                 buttonStateUpdated = 0;
  5349     01D0  01D4               	clrf	_buttonStateUpdated
  5350                           
  5351                           ;main.c: 543:                 if(currentButtState == LONG)
  5352     01D1  3003               	movlw	3
  5353     01D2  067A               	xorwf	_currentButtState,w
  5354     01D3  1D03               	btfss	3,2
  5355     01D4  29D9               	goto	l4107
  5356                           
  5357                           ;main.c: 544:                 {;main.c: 546:                     currentState = StageShu
      +                          tdown;
  5358     01D5  300A               	movlw	10
  5359     01D6  00D7               	movwf	_currentState
  5360                           
  5361                           ;main.c: 547:                     firstTime = 1;
  5362     01D7  01EF               	clrf	_firstTime
  5363     01D8  0AEF               	incf	_firstTime,f
  5364     01D9                     l4107:
  5365                           
  5366                           ;main.c: 549:                 if(currentButtState == SHORT)
  5367     01D9  3002               	movlw	2
  5368     01DA  067A               	xorwf	_currentButtState,w
  5369     01DB  1D03               	btfss	3,2
  5370     01DC  29E4               	goto	l4117
  5371                           
  5372                           ;main.c: 550:                 {;main.c: 551:                     stopMotor();
  5373     01DD  3187  27D7         	fcall	_stopMotor
  5374                           
  5375                           ;main.c: 554:                     currentState = StageCEnd;
  5376     01DF  3008               	movlw	8
  5377     01E0  0020               	movlb	0	; select bank0
  5378     01E1  00D7               	movwf	_currentState
  5379                           
  5380                           ;main.c: 555:                     firstTime = 1;
  5381     01E2  01EF               	clrf	_firstTime
  5382     01E3  0AEF               	incf	_firstTime,f
  5383     01E4                     l4117:	
  5384                           ;main.c: 558:                 {;main.c: 559:                 }
  5385                           
  5386                           
  5387                           ;main.c: 561:             battery_status_counter++;
  5388     01E4  3001               	movlw	1
  5389     01E5  07C0               	addwf	_battery_status_counter,f
  5390     01E6  3000               	movlw	0
  5391     01E7  3DC1               	addwfc	_battery_status_counter+1,f
  5392                           
  5393                           ;main.c: 563:             break;
  5394     01E8  0008               	return
  5395     01E9                     l4119:
  5396                           
  5397                           ;main.c: 565:             if(firstTime)
  5398     01E9  086F               	movf	_firstTime,w
  5399     01EA  1903               	btfsc	3,2
  5400     01EB  29EF               	goto	l4123
  5401                           
  5402                           ;main.c: 566:             {;main.c: 569:                 battery_status_counter = 0;
  5403     01EC  01C0               	clrf	_battery_status_counter
  5404     01ED  01C1               	clrf	_battery_status_counter+1
  5405                           
  5406                           ;main.c: 570:                 firstTime = 0;
  5407     01EE  01EF               	clrf	_firstTime
  5408     01EF                     l4123:
  5409                           
  5410                           ;main.c: 572:             if(battery_status_counter == 6000)
  5411     01EF  3070               	movlw	112
  5412     01F0  0640               	xorwf	_battery_status_counter,w
  5413     01F1  3017               	movlw	23
  5414     01F2  1903               	skipnz
  5415     01F3  0641               	xorwf	_battery_status_counter+1,w
  5416     01F4  1D03               	btfss	3,2
  5417     01F5  2A2E               	goto	l4151
  5418                           
  5419                           ;main.c: 573:             {;main.c: 574:                 checkBattery();
  5420     01F6  3187  2718  3180   	fcall	_checkBattery
  5421                           
  5422                           ;main.c: 575:                 singleBeep = 1;
  5423     01F9  01CD               	clrf	_singleBeep
  5424     01FA  0ACD               	incf	_singleBeep,f
  5425                           
  5426                           ;main.c: 576:                 if(battery_status == (uint16_t)1)
  5427     01FB  037B               	decf	_battery_status,w
  5428     01FC  1D03               	btfss	3,2
  5429     01FD  2A05               	goto	l4133
  5430                           
  5431                           ;main.c: 577:                     setStartGreen(32000);
  5432     01FE  3000               	movlw	0
  5433     01FF  00F4               	movwf	setStartGreen@duty
  5434     0200  307D               	movlw	125
  5435     0201  00F5               	movwf	setStartGreen@duty+1
  5436     0202  318F  277D  3180   	fcall	_setStartGreen
  5437     0205                     l4133:
  5438                           
  5439                           ;main.c: 578:                 if(battery_status == (uint16_t)2)
  5440     0205  3002               	movlw	2
  5441     0206  067B               	xorwf	_battery_status,w
  5442     0207  1D03               	btfss	3,2
  5443     0208  2A10               	goto	l4137
  5444                           
  5445                           ;main.c: 579:                     setStartRed(32000);
  5446     0209  3000               	movlw	0
  5447     020A  00F4               	movwf	setStartRed@duty
  5448     020B  307D               	movlw	125
  5449     020C  00F5               	movwf	setStartRed@duty+1
  5450     020D  318F  278F  3180   	fcall	_setStartRed
  5451     0210                     l4137:
  5452                           
  5453                           ;main.c: 580:                 if(battery_status == (uint16_t)3)
  5454     0210  3003               	movlw	3
  5455     0211  067B               	xorwf	_battery_status,w
  5456     0212  1D03               	btfss	3,2
  5457     0213  2A1B               	goto	l4141
  5458                           
  5459                           ;main.c: 581:                     setStartRed(32000);
  5460     0214  3000               	movlw	0
  5461     0215  00F4               	movwf	setStartRed@duty
  5462     0216  307D               	movlw	125
  5463     0217  00F5               	movwf	setStartRed@duty+1
  5464     0218  318F  278F  3180   	fcall	_setStartRed
  5465     021B                     l4141:
  5466                           
  5467                           ;main.c: 582:                 if(battery_status == (uint16_t)4)
  5468     021B  3004               	movlw	4
  5469     021C  067B               	xorwf	_battery_status,w
  5470     021D  1D03               	btfss	3,2
  5471     021E  2A2B               	goto	l4149
  5472                           
  5473                           ;main.c: 583:                 {;main.c: 584:                     setStartRed(32000);
  5474     021F  3000               	movlw	0
  5475     0220  00F4               	movwf	setStartRed@duty
  5476     0221  307D               	movlw	125
  5477     0222  00F5               	movwf	setStartRed@duty+1
  5478     0223  318F  278F  3180   	fcall	_setStartRed
  5479                           
  5480                           ;main.c: 585:                     currentState = StageB2;
  5481     0226  3007               	movlw	7
  5482     0227  0020               	movlb	0	; select bank0
  5483     0228  00D7               	movwf	_currentState
  5484                           
  5485                           ;main.c: 586:                     firstTime = 1;
  5486     0229  01EF               	clrf	_firstTime
  5487     022A  0AEF               	incf	_firstTime,f
  5488     022B                     l4149:
  5489                           
  5490                           ;main.c: 588:                 battery_status_counter = 0;
  5491     022B  0020               	movlb	0	; select bank0
  5492     022C  01C0               	clrf	_battery_status_counter
  5493     022D  01C1               	clrf	_battery_status_counter+1
  5494     022E                     l4151:
  5495                           
  5496                           ;main.c: 590:             if(stageB1_counter == (uint64_t)(6000*10))
  5497     022E  3060               	movlw	96
  5498     022F  0021               	movlb	1	; select bank1
  5499     0230  0638               	xorwf	_stageB1_counter^(0+128),w
  5500     0231  30EA               	movlw	234
  5501     0232  1903               	skipnz
  5502     0233  0639               	xorwf	(_stageB1_counter+1)^(0+128),w
  5503     0234  1D03               	skipz
  5504     0235  2A4D               	goto	l4157
  5505     0236  0A3A               	incf	(_stageB1_counter+2)^(0+128),w
  5506     0237  1D03               	skipz
  5507     0238  2A4D               	goto	l4157
  5508     0239  0A3B               	incf	(_stageB1_counter+3)^(0+128),w
  5509     023A  1D03               	skipz
  5510     023B  2A4D               	goto	l4157
  5511     023C  0A3C               	incf	(_stageB1_counter+4)^(0+128),w
  5512     023D  1D03               	skipz
  5513     023E  2A4D               	goto	l4157
  5514     023F  0A3D               	incf	(_stageB1_counter+5)^(0+128),w
  5515     0240  1D03               	skipz
  5516     0241  2A4D               	goto	l4157
  5517     0242  0A3E               	incf	(_stageB1_counter+6)^(0+128),w
  5518     0243  1D03               	skipz
  5519     0244  2A4D               	goto	l4157
  5520     0245  0A3F               	incf	(_stageB1_counter+7)^(0+128),w
  5521     0246  1D03               	btfss	3,2
  5522     0247  2A4D               	goto	l4157
  5523                           
  5524                           ;main.c: 591:             {;main.c: 593:                 currentState = StageB2;
  5525     0248  3007               	movlw	7
  5526     0249  0020               	movlb	0	; select bank0
  5527     024A  00D7               	movwf	_currentState
  5528                           
  5529                           ;main.c: 594:                 firstTime = 1;
  5530     024B  01EF               	clrf	_firstTime
  5531     024C  0AEF               	incf	_firstTime,f
  5532     024D                     l4157:
  5533                           
  5534                           ;main.c: 596:             if(buttonStateUpdated)
  5535     024D  0020               	movlb	0	; select bank0
  5536     024E  0854               	movf	_buttonStateUpdated,w
  5537     024F  1903               	btfsc	3,2
  5538     0250  2A65               	goto	l4177
  5539                           
  5540                           ;main.c: 597:             {;main.c: 598:                 buttonStateUpdated = 0;
  5541     0251  01D4               	clrf	_buttonStateUpdated
  5542                           
  5543                           ;main.c: 599:                 if(currentButtState == LONG)
  5544     0252  3003               	movlw	3
  5545     0253  067A               	xorwf	_currentButtState,w
  5546     0254  1D03               	btfss	3,2
  5547     0255  2A5A               	goto	l4167
  5548                           
  5549                           ;main.c: 600:                 {;main.c: 602:                     currentState = StageShu
      +                          tdown;
  5550     0256  300A               	movlw	10
  5551     0257  00D7               	movwf	_currentState
  5552                           
  5553                           ;main.c: 603:                     firstTime = 1;
  5554     0258  01EF               	clrf	_firstTime
  5555     0259  0AEF               	incf	_firstTime,f
  5556     025A                     l4167:
  5557                           
  5558                           ;main.c: 605:                 if(currentButtState == SHORT)
  5559     025A  3002               	movlw	2
  5560     025B  067A               	xorwf	_currentButtState,w
  5561     025C  1D03               	btfss	3,2
  5562     025D  2A65               	goto	l4177
  5563                           
  5564                           ;main.c: 606:                 {;main.c: 607:                     stopMotor();
  5565     025E  3187  27D7         	fcall	_stopMotor
  5566                           
  5567                           ;main.c: 610:                     currentState = StageCEnd;
  5568     0260  3008               	movlw	8
  5569     0261  0020               	movlb	0	; select bank0
  5570     0262  00D7               	movwf	_currentState
  5571                           
  5572                           ;main.c: 611:                     firstTime = 1;
  5573     0263  01EF               	clrf	_firstTime
  5574     0264  0AEF               	incf	_firstTime,f
  5575     0265                     l4177:	
  5576                           ;main.c: 614:                 {;main.c: 615:                 }
  5577                           
  5578                           
  5579                           ;main.c: 617:             battery_status_counter++;
  5580     0265  3001               	movlw	1
  5581     0266  07C0               	addwf	_battery_status_counter,f
  5582     0267  3000               	movlw	0
  5583     0268  3DC1               	addwfc	_battery_status_counter+1,f
  5584                           
  5585                           ;main.c: 618:             stageB1_counter++;
  5586     0269  3001               	movlw	1
  5587     026A  0021               	movlb	1	; select bank1
  5588     026B  07B8               	addwf	_stageB1_counter^(0+128),f
  5589     026C  3000               	movlw	0
  5590     026D  3DB9               	addwfc	(_stageB1_counter+1)^(0+128),f
  5591     026E  3DBA               	addwfc	(_stageB1_counter+2)^(0+128),f
  5592     026F  3DBB               	addwfc	(_stageB1_counter+3)^(0+128),f
  5593     0270  3DBC               	addwfc	(_stageB1_counter+4)^(0+128),f
  5594     0271  3DBD               	addwfc	(_stageB1_counter+5)^(0+128),f
  5595     0272  3DBE               	addwfc	(_stageB1_counter+6)^(0+128),f
  5596     0273  3DBF               	addwfc	(_stageB1_counter+7)^(0+128),f
  5597                           
  5598                           ;main.c: 619:             break;
  5599     0274  0008               	return
  5600     0275                     l4181:
  5601                           
  5602                           ;main.c: 621:             if(firstTime)
  5603     0275  086F               	movf	_firstTime,w
  5604     0276  1903               	btfsc	3,2
  5605     0277  2A7D               	goto	l4185
  5606                           
  5607                           ;main.c: 622:             {;main.c: 626:                 battery_status_counter = 0;
  5608     0278  01C0               	clrf	_battery_status_counter
  5609     0279  01C1               	clrf	_battery_status_counter+1
  5610                           
  5611                           ;main.c: 629:                 firstTime = 0;
  5612     027A  01EF               	clrf	_firstTime
  5613                           
  5614                           ;main.c: 630:                 ledCounter = 0;
  5615     027B  01B8               	clrf	_ledCounter
  5616     027C  01B9               	clrf	_ledCounter+1
  5617     027D                     l4185:
  5618                           
  5619                           ;main.c: 632:             if(battery_status_counter == 6000)
  5620     027D  3070               	movlw	112
  5621     027E  0640               	xorwf	_battery_status_counter,w
  5622     027F  3017               	movlw	23
  5623     0280  1903               	skipnz
  5624     0281  0641               	xorwf	_battery_status_counter+1,w
  5625     0282  1D03               	btfss	3,2
  5626     0283  2AAE               	goto	l4205
  5627                           
  5628                           ;main.c: 633:             {;main.c: 634:                 checkBattery();
  5629     0284  3187  2718  3180   	fcall	_checkBattery
  5630                           
  5631                           ;main.c: 635:                 if(battery_status == (uint16_t)1)
  5632     0287  037B               	decf	_battery_status,w
  5633     0288  1D03               	btfss	3,2
  5634     0289  2A91               	goto	l4193
  5635                           
  5636                           ;main.c: 636:                     setStartGreen(32000);
  5637     028A  3000               	movlw	0
  5638     028B  00F4               	movwf	setStartGreen@duty
  5639     028C  307D               	movlw	125
  5640     028D  00F5               	movwf	setStartGreen@duty+1
  5641     028E  318F  277D  3180   	fcall	_setStartGreen
  5642     0291                     l4193:
  5643                           
  5644                           ;main.c: 637:                 if(battery_status == (uint16_t)2)
  5645     0291  3002               	movlw	2
  5646     0292  067B               	xorwf	_battery_status,w
  5647     0293  1D03               	btfss	3,2
  5648     0294  2A9C               	goto	l4197
  5649                           
  5650                           ;main.c: 638:                     setStartRed(32000);
  5651     0295  3000               	movlw	0
  5652     0296  00F4               	movwf	setStartRed@duty
  5653     0297  307D               	movlw	125
  5654     0298  00F5               	movwf	setStartRed@duty+1
  5655     0299  318F  278F  3180   	fcall	_setStartRed
  5656     029C                     l4197:
  5657                           
  5658                           ;main.c: 639:                 if((battery_status == (uint16_t)3)||(battery_status == (ui
      +                          nt16_t)4))
  5659     029C  3003               	movlw	3
  5660     029D  067B               	xorwf	_battery_status,w
  5661     029E  1903               	btfsc	3,2
  5662     029F  2AA4               	goto	l4201
  5663     02A0  3004               	movlw	4
  5664     02A1  067B               	xorwf	_battery_status,w
  5665     02A2  1D03               	btfss	3,2
  5666     02A3  2AAB               	goto	l4203
  5667     02A4                     l4201:
  5668                           
  5669                           ;main.c: 640:                     setStartRed(32000);
  5670     02A4  3000               	movlw	0
  5671     02A5  00F4               	movwf	setStartRed@duty
  5672     02A6  307D               	movlw	125
  5673     02A7  00F5               	movwf	setStartRed@duty+1
  5674     02A8  318F  278F  3180   	fcall	_setStartRed
  5675     02AB                     l4203:
  5676                           
  5677                           ;main.c: 641:                 battery_status_counter = 0;
  5678     02AB  0020               	movlb	0	; select bank0
  5679     02AC  01C0               	clrf	_battery_status_counter
  5680     02AD  01C1               	clrf	_battery_status_counter+1
  5681     02AE                     l4205:
  5682                           
  5683                           ;main.c: 644:             if(ledCounter == 1)
  5684     02AE  0338               	decf	_ledCounter,w
  5685     02AF  0439               	iorwf	_ledCounter+1,w
  5686     02B0  1D03               	btfss	3,2
  5687     02B1  2AB9               	goto	l4209
  5688                           
  5689                           ;main.c: 645:                 setStartRed(32000);
  5690     02B2  3000               	movlw	0
  5691     02B3  00F4               	movwf	setStartRed@duty
  5692     02B4  307D               	movlw	125
  5693     02B5  00F5               	movwf	setStartRed@duty+1
  5694     02B6  318F  278F  3180   	fcall	_setStartRed
  5695     02B9                     l4209:
  5696                           
  5697                           ;main.c: 646:             if(ledCounter == 100)
  5698     02B9  3064               	movlw	100
  5699     02BA  0020               	movlb	0	; select bank0
  5700     02BB  0638               	xorwf	_ledCounter,w
  5701     02BC  0439               	iorwf	_ledCounter+1,w
  5702     02BD  1D03               	btfss	3,2
  5703     02BE  2AC2               	goto	l4213
  5704                           
  5705                           ;main.c: 647:             {;main.c: 648:                 stopRed();
  5706     02BF  3187  27EA  3180   	fcall	_stopRed
  5707     02C2                     l4213:
  5708                           
  5709                           ;main.c: 650:             if(ledCounter == 2*100)
  5710     02C2  30C8               	movlw	200
  5711     02C3  0020               	movlb	0	; select bank0
  5712     02C4  0638               	xorwf	_ledCounter,w
  5713     02C5  0439               	iorwf	_ledCounter+1,w
  5714     02C6  1D03               	btfss	3,2
  5715     02C7  2ACC               	goto	l4219
  5716                           
  5717                           ;main.c: 651:             {;main.c: 652:                 ledCounter = 0;
  5718     02C8  01B8               	clrf	_ledCounter
  5719     02C9  01B9               	clrf	_ledCounter+1
  5720                           
  5721                           ;main.c: 653:                 singleBeep = 1;
  5722     02CA  01CD               	clrf	_singleBeep
  5723     02CB  0ACD               	incf	_singleBeep,f
  5724     02CC                     l4219:
  5725                           
  5726                           ;main.c: 655:             if(buttonStateUpdated)
  5727     02CC  0854               	movf	_buttonStateUpdated,w
  5728     02CD  1903               	btfsc	3,2
  5729     02CE  2AE3               	goto	l4239
  5730                           
  5731                           ;main.c: 656:             {;main.c: 657:                 buttonStateUpdated = 0;
  5732     02CF  01D4               	clrf	_buttonStateUpdated
  5733                           
  5734                           ;main.c: 658:                 if(currentButtState == LONG)
  5735     02D0  3003               	movlw	3
  5736     02D1  067A               	xorwf	_currentButtState,w
  5737     02D2  1D03               	btfss	3,2
  5738     02D3  2AD8               	goto	l4229
  5739                           
  5740                           ;main.c: 659:                 {;main.c: 661:                     currentState = StageShu
      +                          tdown;
  5741     02D4  300A               	movlw	10
  5742     02D5  00D7               	movwf	_currentState
  5743                           
  5744                           ;main.c: 662:                     firstTime = 1;
  5745     02D6  01EF               	clrf	_firstTime
  5746     02D7  0AEF               	incf	_firstTime,f
  5747     02D8                     l4229:
  5748                           
  5749                           ;main.c: 664:                 if(currentButtState == SHORT)
  5750     02D8  3002               	movlw	2
  5751     02D9  067A               	xorwf	_currentButtState,w
  5752     02DA  1D03               	btfss	3,2
  5753     02DB  2AE3               	goto	l4239
  5754                           
  5755                           ;main.c: 665:                 {;main.c: 666:                     stopMotor();
  5756     02DC  3187  27D7         	fcall	_stopMotor
  5757                           
  5758                           ;main.c: 669:                     currentState = StageCEnd;
  5759     02DE  3008               	movlw	8
  5760     02DF  0020               	movlb	0	; select bank0
  5761     02E0  00D7               	movwf	_currentState
  5762                           
  5763                           ;main.c: 670:                     firstTime = 1;
  5764     02E1  01EF               	clrf	_firstTime
  5765     02E2  0AEF               	incf	_firstTime,f
  5766     02E3                     l4239:	
  5767                           ;main.c: 673:                 {;main.c: 674:                 }
  5768                           
  5769                           
  5770                           ;main.c: 676:             battery_status_counter++;
  5771     02E3  3001               	movlw	1
  5772     02E4  07C0               	addwf	_battery_status_counter,f
  5773     02E5  3000               	movlw	0
  5774     02E6  3DC1               	addwfc	_battery_status_counter+1,f
  5775                           
  5776                           ;main.c: 677:             ledCounter++;
  5777     02E7  3001               	movlw	1
  5778     02E8  07B8               	addwf	_ledCounter,f
  5779     02E9  3000               	movlw	0
  5780     02EA  3DB9               	addwfc	_ledCounter+1,f
  5781                           
  5782                           ;main.c: 678:             break;
  5783     02EB  0008               	return
  5784     02EC                     l4241:
  5785                           
  5786                           ;main.c: 680:             if(firstTime)
  5787     02EC  086F               	movf	_firstTime,w
  5788     02ED  1903               	btfsc	3,2
  5789     02EE  2B09               	goto	l4255
  5790                           
  5791                           ;main.c: 681:             {;main.c: 682:                 printf("Stage C \n\r");
  5792     02EF  3008               	movlw	low (STR_3| (0+32768))
  5793     02F0  00EA               	movwf	printf@fmt
  5794     02F1  3088               	movlw	high (STR_3| (0+32768))
  5795     02F2  00EB               	movwf	printf@fmt+1
  5796     02F3  318F  2713  3180   	fcall	_printf
  5797                           
  5798                           ;main.c: 684:                 firstTime = 0;
  5799     02F6  01EF               	clrf	_firstTime
  5800                           
  5801                           ;main.c: 685:                 stageC_counter = 0;
  5802     02F7  30B0               	movlw	low _stageC_counter
  5803     02F8  0086               	movwf	6
  5804     02F9  3000               	movlw	high _stageC_counter
  5805     02FA  0087               	movwf	7
  5806     02FB  3008               	movlw	8
  5807     02FC  00EC               	movwf	??_programStates
  5808     02FD  3000               	movlw	0
  5809     02FE                     u3920:
  5810     02FE  001E               	movwi fsr1++
  5811     02FF  0BEC               	decfsz	??_programStates,f
  5812     0300  2AFE               	goto	u3920
  5813                           
  5814                           ;main.c: 687:                 battery_status_counter = 6000;
  5815     0301  3070               	movlw	112
  5816     0302  00C0               	movwf	_battery_status_counter
  5817     0303  3017               	movlw	23
  5818     0304  00C1               	movwf	_battery_status_counter+1
  5819                           
  5820                           ;main.c: 688:                 ledCounter = 0;
  5821     0305  01B8               	clrf	_ledCounter
  5822     0306  01B9               	clrf	_ledCounter+1
  5823                           
  5824                           ;main.c: 689:                 firstTimeC = 1;
  5825     0307  01D2               	clrf	_firstTimeC
  5826     0308  0AD2               	incf	_firstTimeC,f
  5827     0309                     l4255:
  5828                           
  5829                           ;main.c: 691:             if(battery_status_counter == 6000)
  5830     0309  3070               	movlw	112
  5831     030A  0640               	xorwf	_battery_status_counter,w
  5832     030B  3017               	movlw	23
  5833     030C  1903               	skipnz
  5834     030D  0641               	xorwf	_battery_status_counter+1,w
  5835     030E  1D03               	btfss	3,2
  5836     030F  2B48               	goto	l4285
  5837                           
  5838                           ;main.c: 692:             {;main.c: 693:                 checkBattery();
  5839     0310  3187  2718  3180   	fcall	_checkBattery
  5840                           
  5841                           ;main.c: 694:                 battery_status_counter = 0;
  5842     0313  01C0               	clrf	_battery_status_counter
  5843     0314  01C1               	clrf	_battery_status_counter+1
  5844                           
  5845                           ;main.c: 695:                 if(battery_status == (uint16_t)1)
  5846     0315  037B               	decf	_battery_status,w
  5847     0316  1D03               	btfss	3,2
  5848     0317  2B1F               	goto	l4265
  5849                           
  5850                           ;main.c: 696:                     setStartGreen(32000);
  5851     0318  3000               	movlw	0
  5852     0319  00F4               	movwf	setStartGreen@duty
  5853     031A  307D               	movlw	125
  5854     031B  00F5               	movwf	setStartGreen@duty+1
  5855     031C  318F  277D  3180   	fcall	_setStartGreen
  5856     031F                     l4265:
  5857                           
  5858                           ;main.c: 697:                 if(battery_status == (uint16_t)2)
  5859     031F  3002               	movlw	2
  5860     0320  067B               	xorwf	_battery_status,w
  5861     0321  1D03               	btfss	3,2
  5862     0322  2B2A               	goto	l4269
  5863                           
  5864                           ;main.c: 698:                     setStartRed(32000);
  5865     0323  3000               	movlw	0
  5866     0324  00F4               	movwf	setStartRed@duty
  5867     0325  307D               	movlw	125
  5868     0326  00F5               	movwf	setStartRed@duty+1
  5869     0327  318F  278F  3180   	fcall	_setStartRed
  5870     032A                     l4269:
  5871                           
  5872                           ;main.c: 699:                 if((battery_status == (uint16_t)3)||(battery_status == (ui
      +                          nt16_t)4))
  5873     032A  3003               	movlw	3
  5874     032B  067B               	xorwf	_battery_status,w
  5875     032C  1903               	btfsc	3,2
  5876     032D  2B32               	goto	l4273
  5877     032E  3004               	movlw	4
  5878     032F  067B               	xorwf	_battery_status,w
  5879     0330  1D03               	btfss	3,2
  5880     0331  2B39               	goto	l4275
  5881     0332                     l4273:
  5882                           
  5883                           ;main.c: 700:                     setStartRed(32000);
  5884     0332  3000               	movlw	0
  5885     0333  00F4               	movwf	setStartRed@duty
  5886     0334  307D               	movlw	125
  5887     0335  00F5               	movwf	setStartRed@duty+1
  5888     0336  318F  278F  3180   	fcall	_setStartRed
  5889     0339                     l4275:
  5890                           
  5891                           ;main.c: 702:                 if(battery_status != (uint16_t)1)
  5892     0339  037B               	decf	_battery_status,w
  5893     033A  1903               	btfsc	3,2
  5894     033B  2B3F               	goto	l4279
  5895                           
  5896                           ;main.c: 703:                     singleBeep = 1;
  5897     033C  0020               	movlb	0	; select bank0
  5898     033D  01CD               	clrf	_singleBeep
  5899     033E  0ACD               	incf	_singleBeep,f
  5900     033F                     l4279:
  5901                           
  5902                           ;main.c: 704:                 battery_status_counter = 0;
  5903     033F  0020               	movlb	0	; select bank0
  5904     0340  01C0               	clrf	_battery_status_counter
  5905     0341  01C1               	clrf	_battery_status_counter+1
  5906                           
  5907                           ;main.c: 705:                 stopBlue();
  5908     0342  318F  27DA  3180   	fcall	_stopBlue
  5909                           
  5910                           ;main.c: 706:                 ledCounter = 0;
  5911     0345  0020               	movlb	0	; select bank0
  5912     0346  01B8               	clrf	_ledCounter
  5913     0347  01B9               	clrf	_ledCounter+1
  5914     0348                     l4285:
  5915                           
  5916                           ;main.c: 708:             if(firstTimeC)
  5917     0348  0852               	movf	_firstTimeC,w
  5918     0349  1903               	btfsc	3,2
  5919     034A  2B5F               	goto	l4293
  5920                           
  5921                           ;main.c: 709:             {;main.c: 710:                 if(ledCounter == 5*100)
  5922     034B  30F4               	movlw	244
  5923     034C  0638               	xorwf	_ledCounter,w
  5924     034D  1D03               	skipz
  5925     034E  2B6E               	goto	l4297
  5926     034F  0339               	decf	_ledCounter+1,w
  5927     0350  1D03               	btfss	3,2
  5928     0351  2B6E               	goto	l4297
  5929                           
  5930                           ;main.c: 711:                 {;main.c: 712:                     stopAll();
  5931     0352  318E  26E7  3180   	fcall	_stopAll
  5932                           
  5933                           ;main.c: 713:                     setStartBlue(32000);
  5934     0355  3000               	movlw	0
  5935     0356  00F4               	movwf	setStartBlue@duty
  5936     0357  307D               	movlw	125
  5937     0358  00F5               	movwf	setStartBlue@duty+1
  5938     0359  318F  276B  3180   	fcall	_setStartBlue
  5939                           
  5940                           ;main.c: 714:                     firstTimeC = 0;
  5941     035C  0020               	movlb	0	; select bank0
  5942     035D  01D2               	clrf	_firstTimeC
  5943     035E  2B6E               	goto	l4297
  5944     035F                     l4293:
  5945                           
  5946                           ;main.c: 718:             {;main.c: 719:                 if(ledCounter == 2*100)
  5947     035F  30C8               	movlw	200
  5948     0360  0638               	xorwf	_ledCounter,w
  5949     0361  0439               	iorwf	_ledCounter+1,w
  5950     0362  1D03               	btfss	3,2
  5951     0363  2B6E               	goto	l4297
  5952                           
  5953                           ;main.c: 720:                 {;main.c: 721:                     stopAll();
  5954     0364  318E  26E7  3180   	fcall	_stopAll
  5955                           
  5956                           ;main.c: 722:                     setStartBlue(32000);
  5957     0367  3000               	movlw	0
  5958     0368  00F4               	movwf	setStartBlue@duty
  5959     0369  307D               	movlw	125
  5960     036A  00F5               	movwf	setStartBlue@duty+1
  5961     036B  318F  276B  3180   	fcall	_setStartBlue
  5962     036E                     l4297:
  5963                           
  5964                           ;main.c: 728:             if(stageC_counter == 2*6000)
  5965     036E  30E0               	movlw	224
  5966     036F  0021               	movlb	1	; select bank1
  5967     0370  0630               	xorwf	_stageC_counter^(0+128),w
  5968     0371  302E               	movlw	46
  5969     0372  1903               	skipnz
  5970     0373  0631               	xorwf	(_stageC_counter+1)^(0+128),w
  5971     0374  0432               	iorwf	(_stageC_counter+2)^(0+128),w
  5972     0375  0433               	iorwf	(_stageC_counter+3)^(0+128),w
  5973     0376  0434               	iorwf	(_stageC_counter+4)^(0+128),w
  5974     0377  0435               	iorwf	(_stageC_counter+5)^(0+128),w
  5975     0378  0436               	iorwf	(_stageC_counter+6)^(0+128),w
  5976     0379  0437               	iorwf	(_stageC_counter+7)^(0+128),w
  5977     037A  1D03               	btfss	3,2
  5978     037B  2B83               	goto	l4303
  5979                           
  5980                           ;main.c: 729:             {;main.c: 731:                 lastState = currentState;
  5981     037C  0020               	movlb	0	; select bank0
  5982     037D  0857               	movf	_currentState,w
  5983     037E  00D6               	movwf	_lastState
  5984                           
  5985                           ;main.c: 732:                 currentState = StageDOff;
  5986     037F  3009               	movlw	9
  5987     0380  00D7               	movwf	_currentState
  5988                           
  5989                           ;main.c: 733:                 firstTime = 1;
  5990     0381  01EF               	clrf	_firstTime
  5991     0382  0AEF               	incf	_firstTime,f
  5992     0383                     l4303:
  5993                           
  5994                           ;main.c: 735:             if(buttonStateUpdated)
  5995     0383  0020               	movlb	0	; select bank0
  5996     0384  0854               	movf	_buttonStateUpdated,w
  5997     0385  1903               	btfsc	3,2
  5998     0386  2BD1               	goto	l4347
  5999                           
  6000                           ;main.c: 736:             {;main.c: 737:                 buttonStateUpdated = 0;
  6001     0387  01D4               	clrf	_buttonStateUpdated
  6002                           
  6003                           ;main.c: 738:                 if(currentButtState == LONG)
  6004     0388  3003               	movlw	3
  6005     0389  067A               	xorwf	_currentButtState,w
  6006     038A  1D03               	btfss	3,2
  6007     038B  2B90               	goto	l4313
  6008                           
  6009                           ;main.c: 739:                 {;main.c: 741:                     currentState = StageShu
      +                          tdown;
  6010     038C  300A               	movlw	10
  6011     038D  00D7               	movwf	_currentState
  6012                           
  6013                           ;main.c: 742:                     firstTime = 1;
  6014     038E  01EF               	clrf	_firstTime
  6015     038F  0AEF               	incf	_firstTime,f
  6016     0390                     l4313:
  6017                           
  6018                           ;main.c: 744:                 if(currentButtState == SHORT)
  6019     0390  3002               	movlw	2
  6020     0391  067A               	xorwf	_currentButtState,w
  6021     0392  1D03               	btfss	3,2
  6022     0393  2B9C               	goto	l4321
  6023                           
  6024                           ;main.c: 745:                 {;main.c: 746:                     stopMotor();
  6025     0394  3187  27D7  3180   	fcall	_stopMotor
  6026                           
  6027                           ;main.c: 750:                     currentState = StageDOff;
  6028     0397  3009               	movlw	9
  6029     0398  0020               	movlb	0	; select bank0
  6030     0399  00D7               	movwf	_currentState
  6031                           
  6032                           ;main.c: 751:                     firstTime = 1;
  6033     039A  01EF               	clrf	_firstTime
  6034     039B  0AEF               	incf	_firstTime,f
  6035     039C                     l4321:
  6036                           
  6037                           ;main.c: 753:                 if(currentButtState == TOOSHORT)
  6038     039C  037A               	decf	_currentButtState,w
  6039     039D  1D03               	btfss	3,2
  6040     039E  2BD1               	goto	l4347
  6041                           
  6042                           ;main.c: 754:                 {;main.c: 755:                     checkBattery();
  6043     039F  3187  2718  3180   	fcall	_checkBattery
  6044                           
  6045                           ;main.c: 756:                     if(battery_status == (uint16_t)1)
  6046     03A2  037B               	decf	_battery_status,w
  6047     03A3  1D03               	btfss	3,2
  6048     03A4  2BAC               	goto	l4329
  6049                           
  6050                           ;main.c: 757:                         setStartGreen(32000);
  6051     03A5  3000               	movlw	0
  6052     03A6  00F4               	movwf	setStartGreen@duty
  6053     03A7  307D               	movlw	125
  6054     03A8  00F5               	movwf	setStartGreen@duty+1
  6055     03A9  318F  277D  3180   	fcall	_setStartGreen
  6056     03AC                     l4329:
  6057                           
  6058                           ;main.c: 758:                     if(battery_status == (uint16_t)2)
  6059     03AC  3002               	movlw	2
  6060     03AD  067B               	xorwf	_battery_status,w
  6061     03AE  1D03               	btfss	3,2
  6062     03AF  2BB7               	goto	l4333
  6063                           
  6064                           ;main.c: 759:                         setStartRed(32000);
  6065     03B0  3000               	movlw	0
  6066     03B1  00F4               	movwf	setStartRed@duty
  6067     03B2  307D               	movlw	125
  6068     03B3  00F5               	movwf	setStartRed@duty+1
  6069     03B4  318F  278F  3180   	fcall	_setStartRed
  6070     03B7                     l4333:
  6071                           
  6072                           ;main.c: 760:                     if((battery_status == (uint16_t)3)||(battery_status ==
      +                           (uint16_t)4))
  6073     03B7  3003               	movlw	3
  6074     03B8  067B               	xorwf	_battery_status,w
  6075     03B9  1903               	btfsc	3,2
  6076     03BA  2BBF               	goto	l4337
  6077     03BB  3004               	movlw	4
  6078     03BC  067B               	xorwf	_battery_status,w
  6079     03BD  1D03               	btfss	3,2
  6080     03BE  2BC6               	goto	l4339
  6081     03BF                     l4337:
  6082                           
  6083                           ;main.c: 761:                         setStartRed(32000);
  6084     03BF  3000               	movlw	0
  6085     03C0  00F4               	movwf	setStartRed@duty
  6086     03C1  307D               	movlw	125
  6087     03C2  00F5               	movwf	setStartRed@duty+1
  6088     03C3  318F  278F  3180   	fcall	_setStartRed
  6089     03C6                     l4339:
  6090                           
  6091                           ;main.c: 763:                     if(battery_status != (uint16_t)1)
  6092     03C6  037B               	decf	_battery_status,w
  6093     03C7  1903               	btfsc	3,2
  6094     03C8  2BCC               	goto	l4343
  6095                           
  6096                           ;main.c: 764:                         singleBeep = 1;
  6097     03C9  0020               	movlb	0	; select bank0
  6098     03CA  01CD               	clrf	_singleBeep
  6099     03CB  0ACD               	incf	_singleBeep,f
  6100     03CC                     l4343:
  6101                           
  6102                           ;main.c: 765:                     ledCounter = 0;
  6103     03CC  0020               	movlb	0	; select bank0
  6104     03CD  01B8               	clrf	_ledCounter
  6105     03CE  01B9               	clrf	_ledCounter+1
  6106                           
  6107                           ;main.c: 766:                     stopBlue();
  6108     03CF  318F  27DA         	fcall	_stopBlue
  6109     03D1                     l4347:
  6110                           
  6111                           ;main.c: 769:             stageC_counter++;
  6112     03D1  3001               	movlw	1
  6113     03D2  0021               	movlb	1	; select bank1
  6114     03D3  07B0               	addwf	_stageC_counter^(0+128),f
  6115     03D4  3000               	movlw	0
  6116     03D5  3DB1               	addwfc	(_stageC_counter+1)^(0+128),f
  6117     03D6  3DB2               	addwfc	(_stageC_counter+2)^(0+128),f
  6118     03D7  3DB3               	addwfc	(_stageC_counter+3)^(0+128),f
  6119     03D8  3DB4               	addwfc	(_stageC_counter+4)^(0+128),f
  6120     03D9  3DB5               	addwfc	(_stageC_counter+5)^(0+128),f
  6121     03DA  3DB6               	addwfc	(_stageC_counter+6)^(0+128),f
  6122     03DB  3DB7               	addwfc	(_stageC_counter+7)^(0+128),f
  6123                           
  6124                           ;main.c: 770:             battery_status_counter++;
  6125     03DC  3001               	movlw	1
  6126     03DD  0020               	movlb	0	; select bank0
  6127     03DE  07C0               	addwf	_battery_status_counter,f
  6128     03DF  3000               	movlw	0
  6129     03E0  3DC1               	addwfc	_battery_status_counter+1,f
  6130                           
  6131                           ;main.c: 771:             ledCounter++;
  6132     03E1  3001               	movlw	1
  6133     03E2  07B8               	addwf	_ledCounter,f
  6134     03E3  3000               	movlw	0
  6135     03E4  3DB9               	addwfc	_ledCounter+1,f
  6136                           
  6137                           ;main.c: 772:             break;
  6138     03E5  0008               	return
  6139     03E6                     l4353:
  6140                           
  6141                           ;main.c: 774:             if(firstTime)
  6142     03E6  086F               	movf	_firstTime,w
  6143     03E7  1903               	btfsc	3,2
  6144     03E8  2C27               	goto	l4383
  6145                           
  6146                           ;main.c: 775:             {;main.c: 776:                 stopMotor();
  6147     03E9  3187  27D7  3180   	fcall	_stopMotor
  6148                           
  6149                           ;main.c: 778:                 firstTime = 0;
  6150     03EC  0020               	movlb	0	; select bank0
  6151     03ED  01EF               	clrf	_firstTime
  6152                           
  6153                           ;main.c: 779:                 singleBeep = 1;
  6154     03EE  01CD               	clrf	_singleBeep
  6155     03EF  0ACD               	incf	_singleBeep,f
  6156                           
  6157                           ;main.c: 780:                 stageD_counter = 0;
  6158     03F0  30A8               	movlw	low _stageD_counter
  6159     03F1  0086               	movwf	6
  6160     03F2  3000               	movlw	high _stageD_counter
  6161     03F3  0087               	movwf	7
  6162     03F4  3008               	movlw	8
  6163     03F5  00EC               	movwf	??_programStates
  6164     03F6  3000               	movlw	0
  6165     03F7                     u4130:
  6166     03F7  001E               	movwi fsr1++
  6167     03F8  0BEC               	decfsz	??_programStates,f
  6168     03F9  2BF7               	goto	u4130
  6169                           
  6170                           ;main.c: 781:                 checkBattery();
  6171     03FA  3187  2718  3180   	fcall	_checkBattery
  6172                           
  6173                           ;main.c: 782:                 if(battery_status == (uint16_t)1)
  6174     03FD  037B               	decf	_battery_status,w
  6175     03FE  1D03               	btfss	3,2
  6176     03FF  2C07               	goto	l4369
  6177                           
  6178                           ;main.c: 783:                     setStartGreen(32000);
  6179     0400  3000               	movlw	0
  6180     0401  00F4               	movwf	setStartGreen@duty
  6181     0402  307D               	movlw	125
  6182     0403  00F5               	movwf	setStartGreen@duty+1
  6183     0404  318F  277D  3180   	fcall	_setStartGreen
  6184     0407                     l4369:
  6185                           
  6186                           ;main.c: 784:                 if(battery_status == (uint16_t)2)
  6187     0407  3002               	movlw	2
  6188     0408  067B               	xorwf	_battery_status,w
  6189     0409  1D03               	btfss	3,2
  6190     040A  2C12               	goto	l4373
  6191                           
  6192                           ;main.c: 785:                     setStartRed(32000);
  6193     040B  3000               	movlw	0
  6194     040C  00F4               	movwf	setStartRed@duty
  6195     040D  307D               	movlw	125
  6196     040E  00F5               	movwf	setStartRed@duty+1
  6197     040F  318F  278F  3180   	fcall	_setStartRed
  6198     0412                     l4373:
  6199                           
  6200                           ;main.c: 786:                 if((battery_status == (uint16_t)3)||(battery_status == (ui
      +                          nt16_t)4))
  6201     0412  3003               	movlw	3
  6202     0413  067B               	xorwf	_battery_status,w
  6203     0414  1903               	btfsc	3,2
  6204     0415  2C1A               	goto	l4377
  6205     0416  3004               	movlw	4
  6206     0417  067B               	xorwf	_battery_status,w
  6207     0418  1D03               	btfss	3,2
  6208     0419  2C21               	goto	l4379
  6209     041A                     l4377:
  6210                           
  6211                           ;main.c: 787:                     setStartRed(32000);
  6212     041A  3000               	movlw	0
  6213     041B  00F4               	movwf	setStartRed@duty
  6214     041C  307D               	movlw	125
  6215     041D  00F5               	movwf	setStartRed@duty+1
  6216     041E  318F  278F  3180   	fcall	_setStartRed
  6217     0421                     l4379:
  6218                           
  6219                           ;main.c: 789:                 if(battery_status != 1)
  6220     0421  037B               	decf	_battery_status,w
  6221     0422  1903               	btfsc	3,2
  6222     0423  2C27               	goto	l4383
  6223                           
  6224                           ;main.c: 790:                     singleBeep = 1;
  6225     0424  0020               	movlb	0	; select bank0
  6226     0425  01CD               	clrf	_singleBeep
  6227     0426  0ACD               	incf	_singleBeep,f
  6228     0427                     l4383:
  6229                           
  6230                           ;main.c: 793:             if(stageD_counter == 5*100)
  6231     0427  30F4               	movlw	244
  6232     0428  0021               	movlb	1	; select bank1
  6233     0429  0628               	xorwf	_stageD_counter^(0+128),w
  6234     042A  1D03               	skipz
  6235     042B  2C3C               	goto	l4391
  6236     042C  0329               	decf	(_stageD_counter+1)^(0+128),w
  6237     042D  042A               	iorwf	(_stageD_counter+2)^(0+128),w
  6238     042E  042B               	iorwf	(_stageD_counter+3)^(0+128),w
  6239     042F  042C               	iorwf	(_stageD_counter+4)^(0+128),w
  6240     0430  042D               	iorwf	(_stageD_counter+5)^(0+128),w
  6241     0431  042E               	iorwf	(_stageD_counter+6)^(0+128),w
  6242     0432  042F               	iorwf	(_stageD_counter+7)^(0+128),w
  6243     0433  1D03               	btfss	3,2
  6244     0434  2C3C               	goto	l4391
  6245                           
  6246                           ;main.c: 794:             {;main.c: 795:                 stopAll();
  6247     0435  318E  26E7         	fcall	_stopAll
  6248                           
  6249                           ;main.c: 797:                 currentState = StageShutdown;
  6250     0437  300A               	movlw	10
  6251     0438  0020               	movlb	0	; select bank0
  6252     0439  00D7               	movwf	_currentState
  6253                           
  6254                           ;main.c: 798:                 firstTime = 1;
  6255     043A  01EF               	clrf	_firstTime
  6256     043B  0AEF               	incf	_firstTime,f
  6257     043C                     l4391:
  6258                           
  6259                           ;main.c: 800:             stageD_counter++;
  6260     043C  3001               	movlw	1
  6261     043D  0021               	movlb	1	; select bank1
  6262     043E  07A8               	addwf	_stageD_counter^(0+128),f
  6263     043F  3000               	movlw	0
  6264     0440  3DA9               	addwfc	(_stageD_counter+1)^(0+128),f
  6265     0441  3DAA               	addwfc	(_stageD_counter+2)^(0+128),f
  6266     0442  3DAB               	addwfc	(_stageD_counter+3)^(0+128),f
  6267     0443  3DAC               	addwfc	(_stageD_counter+4)^(0+128),f
  6268     0444  3DAD               	addwfc	(_stageD_counter+5)^(0+128),f
  6269     0445  3DAE               	addwfc	(_stageD_counter+6)^(0+128),f
  6270     0446  3DAF               	addwfc	(_stageD_counter+7)^(0+128),f
  6271                           
  6272                           ;main.c: 801:             break;
  6273     0447  0008               	return
  6274     0448                     l4393:
  6275                           
  6276                           ;main.c: 803:             if(firstTime)
  6277     0448  086F               	movf	_firstTime,w
  6278     0449  1903               	btfsc	3,2
  6279     044A  2C5D               	goto	l4401
  6280                           
  6281                           ;main.c: 804:             {;main.c: 806:                 stopMotor();
  6282     044B  3187  27D7  3180   	fcall	_stopMotor
  6283                           
  6284                           ;main.c: 807:                 stopAll();
  6285     044E  318E  26E7  3180   	fcall	_stopAll
  6286                           
  6287                           ;main.c: 808:                 shutdown_counter = 0;
  6288     0451  3020               	movlw	low _shutdown_counter
  6289     0452  0086               	movwf	6
  6290     0453  3000               	movlw	high _shutdown_counter
  6291     0454  0087               	movwf	7
  6292     0455  3008               	movlw	8
  6293     0456  0020               	movlb	0	; select bank0
  6294     0457  00EC               	movwf	??_programStates
  6295     0458  3000               	movlw	0
  6296     0459                     u4210:
  6297     0459  001E               	movwi fsr1++
  6298     045A  0BEC               	decfsz	??_programStates,f
  6299     045B  2C59               	goto	u4210
  6300                           
  6301                           ;main.c: 809:                 firstTime = 0;
  6302     045C  01EF               	clrf	_firstTime
  6303     045D                     l4401:
  6304                           
  6305                           ;main.c: 811:             shutdown_counter++;
  6306     045D  3001               	movlw	1
  6307     045E  07A0               	addwf	_shutdown_counter,f
  6308     045F  3000               	movlw	0
  6309     0460  3DA1               	addwfc	_shutdown_counter+1,f
  6310     0461  3DA2               	addwfc	_shutdown_counter+2,f
  6311     0462  3DA3               	addwfc	_shutdown_counter+3,f
  6312     0463  3DA4               	addwfc	_shutdown_counter+4,f
  6313     0464  3DA5               	addwfc	_shutdown_counter+5,f
  6314     0465  3DA6               	addwfc	_shutdown_counter+6,f
  6315     0466  3DA7               	addwfc	_shutdown_counter+7,f
  6316                           
  6317                           ;main.c: 812:             if (shutdown_counter == 1)
  6318     0467  0320               	decf	_shutdown_counter,w
  6319     0468  0421               	iorwf	_shutdown_counter+1,w
  6320     0469  0422               	iorwf	_shutdown_counter+2,w
  6321     046A  0423               	iorwf	_shutdown_counter+3,w
  6322     046B  0424               	iorwf	_shutdown_counter+4,w
  6323     046C  0425               	iorwf	_shutdown_counter+5,w
  6324     046D  0426               	iorwf	_shutdown_counter+6,w
  6325     046E  0427               	iorwf	_shutdown_counter+7,w
  6326     046F  1D03               	btfss	3,2
  6327     0470  2C73               	goto	l4407
  6328                           
  6329                           ;main.c: 813:                 LATAbits.LATA4 = 1;
  6330     0471  0022               	movlb	2	; select bank2
  6331     0472  160C               	bsf	12,4	;volatile
  6332     0473                     l4407:
  6333                           
  6334                           ;main.c: 814:             if (shutdown_counter == 5)
  6335     0473  3005               	movlw	5
  6336     0474  0020               	movlb	0	; select bank0
  6337     0475  0620               	xorwf	_shutdown_counter,w
  6338     0476  0421               	iorwf	_shutdown_counter+1,w
  6339     0477  0422               	iorwf	_shutdown_counter+2,w
  6340     0478  0423               	iorwf	_shutdown_counter+3,w
  6341     0479  0424               	iorwf	_shutdown_counter+4,w
  6342     047A  0425               	iorwf	_shutdown_counter+5,w
  6343     047B  0426               	iorwf	_shutdown_counter+6,w
  6344     047C  0427               	iorwf	_shutdown_counter+7,w
  6345     047D  1D03               	btfss	3,2
  6346     047E  2C81               	goto	l4411
  6347                           
  6348                           ;main.c: 815:                 LATAbits.LATA4 = 0;
  6349     047F  0022               	movlb	2	; select bank2
  6350     0480  120C               	bcf	12,4	;volatile
  6351     0481                     l4411:
  6352                           
  6353                           ;main.c: 816:             if (shutdown_counter == 2*5)
  6354     0481  300A               	movlw	10
  6355     0482  0020               	movlb	0	; select bank0
  6356     0483  0620               	xorwf	_shutdown_counter,w
  6357     0484  0421               	iorwf	_shutdown_counter+1,w
  6358     0485  0422               	iorwf	_shutdown_counter+2,w
  6359     0486  0423               	iorwf	_shutdown_counter+3,w
  6360     0487  0424               	iorwf	_shutdown_counter+4,w
  6361     0488  0425               	iorwf	_shutdown_counter+5,w
  6362     0489  0426               	iorwf	_shutdown_counter+6,w
  6363     048A  0427               	iorwf	_shutdown_counter+7,w
  6364     048B  1D03               	btfss	3,2
  6365     048C  2C8F               	goto	l4415
  6366                           
  6367                           ;main.c: 817:                 LATAbits.LATA4 = 1;
  6368     048D  0022               	movlb	2	; select bank2
  6369     048E  160C               	bsf	12,4	;volatile
  6370     048F                     l4415:
  6371                           
  6372                           ;main.c: 818:             if (shutdown_counter == 3*5)
  6373     048F  300F               	movlw	15
  6374     0490  0020               	movlb	0	; select bank0
  6375     0491  0620               	xorwf	_shutdown_counter,w
  6376     0492  0421               	iorwf	_shutdown_counter+1,w
  6377     0493  0422               	iorwf	_shutdown_counter+2,w
  6378     0494  0423               	iorwf	_shutdown_counter+3,w
  6379     0495  0424               	iorwf	_shutdown_counter+4,w
  6380     0496  0425               	iorwf	_shutdown_counter+5,w
  6381     0497  0426               	iorwf	_shutdown_counter+6,w
  6382     0498  0427               	iorwf	_shutdown_counter+7,w
  6383     0499  1D03               	btfss	3,2
  6384     049A  2C9D               	goto	l4419
  6385                           
  6386                           ;main.c: 819:                 LATAbits.LATA4 = 0;
  6387     049B  0022               	movlb	2	; select bank2
  6388     049C  120C               	bcf	12,4	;volatile
  6389     049D                     l4419:
  6390                           
  6391                           ;main.c: 820:             if (shutdown_counter == 4*5)
  6392     049D  3014               	movlw	20
  6393     049E  0020               	movlb	0	; select bank0
  6394     049F  0620               	xorwf	_shutdown_counter,w
  6395     04A0  0421               	iorwf	_shutdown_counter+1,w
  6396     04A1  0422               	iorwf	_shutdown_counter+2,w
  6397     04A2  0423               	iorwf	_shutdown_counter+3,w
  6398     04A3  0424               	iorwf	_shutdown_counter+4,w
  6399     04A4  0425               	iorwf	_shutdown_counter+5,w
  6400     04A5  0426               	iorwf	_shutdown_counter+6,w
  6401     04A6  0427               	iorwf	_shutdown_counter+7,w
  6402     04A7  1D03               	btfss	3,2
  6403     04A8  2CAB               	goto	l4423
  6404                           
  6405                           ;main.c: 821:                 LATAbits.LATA4 = 1;
  6406     04A9  0022               	movlb	2	; select bank2
  6407     04AA  160C               	bsf	12,4	;volatile
  6408     04AB                     l4423:
  6409                           
  6410                           ;main.c: 822:             if (shutdown_counter == 5*5)
  6411     04AB  3019               	movlw	25
  6412     04AC  0020               	movlb	0	; select bank0
  6413     04AD  0620               	xorwf	_shutdown_counter,w
  6414     04AE  0421               	iorwf	_shutdown_counter+1,w
  6415     04AF  0422               	iorwf	_shutdown_counter+2,w
  6416     04B0  0423               	iorwf	_shutdown_counter+3,w
  6417     04B1  0424               	iorwf	_shutdown_counter+4,w
  6418     04B2  0425               	iorwf	_shutdown_counter+5,w
  6419     04B3  0426               	iorwf	_shutdown_counter+6,w
  6420     04B4  0427               	iorwf	_shutdown_counter+7,w
  6421     04B5  1D03               	btfss	3,2
  6422     04B6  0008               	return
  6423                           
  6424                           ;main.c: 823:             {;main.c: 824:                 LATAbits.LATA4 = 0;
  6425     04B7  0022               	movlb	2	; select bank2
  6426     04B8  120C               	bcf	12,4	;volatile
  6427                           
  6428                           ;main.c: 826:                 LATCbits.LATC5 = 0;
  6429     04B9  128E               	bcf	14,5	;volatile
  6430                           
  6431                           ;main.c: 827:                 _delay((unsigned long)((100)*(16000000/4000.0)));
  6432     04BA  3003               	movlw	3
  6433     04BB  0020               	movlb	0	; select bank0
  6434     04BC  00ED               	movwf	??_programStates+1
  6435     04BD  3008               	movlw	8
  6436     04BE  00EC               	movwf	??_programStates
  6437     04BF  3077               	movlw	119
  6438     04C0                     u4567:
  6439     04C0  0B89               	decfsz	9,f
  6440     04C1  2CC0               	goto	u4567
  6441     04C2  0BEC               	decfsz	??_programStates,f
  6442     04C3  2CC0               	goto	u4567
  6443     04C4  0BED               	decfsz	??_programStates+1,f
  6444     04C5  2CC0               	goto	u4567
  6445     04C6  0008               	return
  6446     04C7                     l4431:
  6447     04C7  086C               	movf	programStates@cases^(0+128),w
  6448     04C8  0020               	movlb	0	; select bank0
  6449     04C9  00EC               	movwf	??_programStates
  6450     04CA  01ED               	clrf	??_programStates+1
  6451                           
  6452                           ; Switch on 2 bytes has been partitioned into a top level switch of size 1, and 1 sub-sw
      +                          itches
  6453                           ; Switch size 1, requested type "simple"
  6454                           ; Number of cases is 1, Range of values is 0 to 0
  6455                           ; switch strategies available:
  6456                           ; Name         Instructions Cycles
  6457                           ; simple_byte            4     3 (average)
  6458                           ; direct_byte            8     6 (fixed)
  6459                           ; jumptable            260     6 (fixed)
  6460                           ;	Chosen strategy is simple_byte
  6461     04CB  086D               	movf	??_programStates+1,w
  6462     04CC  3A00               	xorlw	0	; case 0
  6463     04CD  1903               	skipnz
  6464     04CE  2CD0               	goto	l4603
  6465     04CF  2CED               	goto	l868
  6466     04D0                     l4603:
  6467                           
  6468                           ; Switch size 1, requested type "simple"
  6469                           ; Number of cases is 9, Range of values is 2 to 11
  6470                           ; switch strategies available:
  6471                           ; Name         Instructions Cycles
  6472                           ; simple_byte           28    15 (average)
  6473                           ; direct_byte           29     9 (fixed)
  6474                           ; jumptable            263     9 (fixed)
  6475                           ;	Chosen strategy is simple_byte
  6476     04D0  086C               	movf	??_programStates,w
  6477     04D1  3A02               	xorlw	2	; case 2
  6478     04D2  1903               	skipnz
  6479     04D3  2849               	goto	l3901
  6480     04D4  3A06               	xorlw	6	; case 4
  6481     04D5  1903               	skipnz
  6482     04D6  28CC               	goto	l3957
  6483     04D7  3A01               	xorlw	1	; case 5
  6484     04D8  1903               	skipnz
  6485     04D9  297A               	goto	l4035
  6486     04DA  3A03               	xorlw	3	; case 6
  6487     04DB  1903               	skipnz
  6488     04DC  29E9               	goto	l4119
  6489     04DD  3A01               	xorlw	1	; case 7
  6490     04DE  1903               	skipnz
  6491     04DF  2A75               	goto	l4181
  6492     04E0  3A0F               	xorlw	15	; case 8
  6493     04E1  1903               	skipnz
  6494     04E2  2AEC               	goto	l4241
  6495     04E3  3A01               	xorlw	1	; case 9
  6496     04E4  1903               	skipnz
  6497     04E5  2BE6               	goto	l4353
  6498     04E6  3A03               	xorlw	3	; case 10
  6499     04E7  1903               	skipnz
  6500     04E8  2C48               	goto	l4393
  6501     04E9  3A01               	xorlw	1	; case 11
  6502     04EA  1903               	skipnz
  6503     04EB  2CED               	goto	l868
  6504     04EC  2CED               	goto	l868
  6505     04ED                     l868:
  6506     04ED  0008               	return
  6507     04EE                     __end_of_programStates:
  6508                           
  6509                           	psect	text2
  6510     0EB6                     __ptext2:	
  6511 ;; *************** function _stopYellow *****************
  6512 ;; Defined at:
  6513 ;;		line 210 in file "main.c"
  6514 ;; Parameters:    Size  Location     Type
  6515 ;;		None
  6516 ;; Auto vars:     Size  Location     Type
  6517 ;;		None
  6518 ;; Return value:  Size  Location     Type
  6519 ;;                  1    wreg      void 
  6520 ;; Registers used:
  6521 ;;		wreg, status,2, status,0, pclath, cstack
  6522 ;; Tracked objects:
  6523 ;;		On entry : 4/0
  6524 ;;		On exit  : 1F/2
  6525 ;;		Unchanged: 0/0
  6526 ;; Data sizes:     COMMON   BANK0   BANK1   BANK2   BANK3   BANK4   BANK5   BANK6
  6527 ;;      Params:         0       0       0       0       0       0       0       0
  6528 ;;      Locals:         0       0       0       0       0       0       0       0
  6529 ;;      Temps:          0       0       0       0       0       0       0       0
  6530 ;;      Totals:         0       0       0       0       0       0       0       0
  6531 ;;Total ram usage:        0 bytes
  6532 ;; Hardware stack levels used: 1
  6533 ;; Hardware stack levels required when called: 6
  6534 ;; This function calls:
  6535 ;;		_stopGreen
  6536 ;;		_stopRed
  6537 ;; This function is called by:
  6538 ;;		_programStates
  6539 ;; This function uses a non-reentrant model
  6540 ;;
  6541                           
  6542     0EB6                     _stopYellow:	
  6543                           ;psect for function _stopYellow
  6544                           
  6545                           
  6546                           ;main.c: 211:     stopRed();
  6547                           
  6548                           ;incstack = 0
  6549                           ; Regs used in _stopYellow: [wreg+status,2+status,0+pclath+cstack]
  6550     0EB6  3187  27EA  318E   	fcall	_stopRed
  6551                           
  6552                           ;main.c: 212:     stopGreen();
  6553     0EB9  318F  27ED         	fcall	_stopGreen
  6554     0EBB  0008               	return
  6555     0EBC                     __end_of_stopYellow:
  6556                           
  6557                           	psect	text3
  6558     07D7                     __ptext3:	
  6559 ;; *************** function _stopMotor *****************
  6560 ;; Defined at:
  6561 ;;		line 141 in file "main.c"
  6562 ;; Parameters:    Size  Location     Type
  6563 ;;		None
  6564 ;; Auto vars:     Size  Location     Type
  6565 ;;		None
  6566 ;; Return value:  Size  Location     Type
  6567 ;;                  1    wreg      void 
  6568 ;; Registers used:
  6569 ;;		wreg, status,2, status,0, pclath, cstack
  6570 ;; Tracked objects:
  6571 ;;		On entry : 1D/2
  6572 ;;		On exit  : 1F/2
  6573 ;;		Unchanged: 0/0
  6574 ;; Data sizes:     COMMON   BANK0   BANK1   BANK2   BANK3   BANK4   BANK5   BANK6
  6575 ;;      Params:         0       0       0       0       0       0       0       0
  6576 ;;      Locals:         0       0       0       0       0       0       0       0
  6577 ;;      Temps:          0       0       0       0       0       0       0       0
  6578 ;;      Totals:         0       0       0       0       0       0       0       0
  6579 ;;Total ram usage:        0 bytes
  6580 ;; Hardware stack levels used: 1
  6581 ;; Hardware stack levels required when called: 5
  6582 ;; This function calls:
  6583 ;;		_PWM1_DutyCycleSet
  6584 ;;		_PWM1_LoadBufferSet
  6585 ;;		_PWM1_Start
  6586 ;;		_PWM1_Stop
  6587 ;; This function is called by:
  6588 ;;		_main
  6589 ;;		_programStates
  6590 ;; This function uses a non-reentrant model
  6591 ;;
  6592                           
  6593     07D7                     _stopMotor:	
  6594                           ;psect for function _stopMotor
  6595                           
  6596                           
  6597                           ;main.c: 143:     PWM1_DutyCycleSet(0x00);
  6598                           
  6599                           ;incstack = 0
  6600                           ; Regs used in _stopMotor: [wreg+status,2+status,0+pclath+cstack]
  6601     07D7  3000               	movlw	0
  6602     07D8  00F2               	movwf	PWM1_DutyCycleSet@dutyCycleCount
  6603     07D9  00F3               	movwf	PWM1_DutyCycleSet@dutyCycleCount+1
  6604     07DA  318E  26B0  3187   	fcall	_PWM1_DutyCycleSet
  6605                           
  6606                           ;main.c: 144:     PWM1_LoadBufferSet();
  6607     07DD  318E  265A  3187   	fcall	_PWM1_LoadBufferSet
  6608                           
  6609                           ;main.c: 145:     PWM1_Start();
  6610     07E0  318E  265C  3187   	fcall	_PWM1_Start
  6611                           
  6612                           ;main.c: 146:     PWM1_Stop();
  6613     07E3  3180  2002         	fcall	_PWM1_Stop
  6614                           
  6615                           ;main.c: 147:     TRISC |= 0x08;
  6616     07E5  0021               	movlb	1	; select bank1
  6617     07E6  158E               	bsf	14,3	;volatile
  6618                           
  6619                           ;main.c: 148:     LATCbits.LATC3 = 0;
  6620     07E7  0022               	movlb	2	; select bank2
  6621     07E8  118E               	bcf	14,3	;volatile
  6622     07E9  0008               	return
  6623     07EA                     __end_of_stopMotor:
  6624                           
  6625                           	psect	text4
  6626     0002                     __ptext4:	
  6627 ;; *************** function _PWM1_Stop *****************
  6628 ;; Defined at:
  6629 ;;		line 118 in file "mcc_generated_files/pwm1.c"
  6630 ;; Parameters:    Size  Location     Type
  6631 ;;		None
  6632 ;; Auto vars:     Size  Location     Type
  6633 ;;		None
  6634 ;; Return value:  Size  Location     Type
  6635 ;;                  1    wreg      void 
  6636 ;; Registers used:
  6637 ;;		None
  6638 ;; Tracked objects:
  6639 ;;		On entry : 1F/1B
  6640 ;;		On exit  : 1F/1B
  6641 ;;		Unchanged: 0/0
  6642 ;; Data sizes:     COMMON   BANK0   BANK1   BANK2   BANK3   BANK4   BANK5   BANK6
  6643 ;;      Params:         0       0       0       0       0       0       0       0
  6644 ;;      Locals:         0       0       0       0       0       0       0       0
  6645 ;;      Temps:          0       0       0       0       0       0       0       0
  6646 ;;      Totals:         0       0       0       0       0       0       0       0
  6647 ;;Total ram usage:        0 bytes
  6648 ;; Hardware stack levels used: 1
  6649 ;; Hardware stack levels required when called: 4
  6650 ;; This function calls:
  6651 ;;		Nothing
  6652 ;; This function is called by:
  6653 ;;		_stopMotor
  6654 ;; This function uses a non-reentrant model
  6655 ;;
  6656                           
  6657     0002                     _PWM1_Stop:	
  6658                           ;psect for function _PWM1_Stop
  6659                           
  6660                           
  6661                           ;mcc_generated_files/pwm1.c: 120:     PWM1CONbits.EN = 0;
  6662                           
  6663                           ;incstack = 0
  6664                           ; Regs used in _PWM1_Stop: []
  6665     0002  139B               	bcf	27,7	;volatile
  6666     0003  0008               	return
  6667     0004                     __end_of_PWM1_Stop:
  6668                           
  6669                           	psect	text5
  6670     0E5C                     __ptext5:	
  6671 ;; *************** function _PWM1_Start *****************
  6672 ;; Defined at:
  6673 ;;		line 113 in file "mcc_generated_files/pwm1.c"
  6674 ;; Parameters:    Size  Location     Type
  6675 ;;		None
  6676 ;; Auto vars:     Size  Location     Type
  6677 ;;		None
  6678 ;; Return value:  Size  Location     Type
  6679 ;;                  1    wreg      void 
  6680 ;; Registers used:
  6681 ;;		None
  6682 ;; Tracked objects:
  6683 ;;		On entry : 1F/1B
  6684 ;;		On exit  : 1F/1B
  6685 ;;		Unchanged: 0/0
  6686 ;; Data sizes:     COMMON   BANK0   BANK1   BANK2   BANK3   BANK4   BANK5   BANK6
  6687 ;;      Params:         0       0       0       0       0       0       0       0
  6688 ;;      Locals:         0       0       0       0       0       0       0       0
  6689 ;;      Temps:          0       0       0       0       0       0       0       0
  6690 ;;      Totals:         0       0       0       0       0       0       0       0
  6691 ;;Total ram usage:        0 bytes
  6692 ;; Hardware stack levels used: 1
  6693 ;; Hardware stack levels required when called: 4
  6694 ;; This function calls:
  6695 ;;		Nothing
  6696 ;; This function is called by:
  6697 ;;		_stopMotor
  6698 ;; This function uses a non-reentrant model
  6699 ;;
  6700                           
  6701     0E5C                     _PWM1_Start:	
  6702                           ;psect for function _PWM1_Start
  6703                           
  6704                           
  6705                           ;mcc_generated_files/pwm1.c: 115:     PWM1CONbits.EN = 1;
  6706                           
  6707                           ;incstack = 0
  6708                           ; Regs used in _PWM1_Start: []
  6709     0E5C  179B               	bsf	27,7	;volatile
  6710     0E5D  0008               	return
  6711     0E5E                     __end_of_PWM1_Start:
  6712                           
  6713                           	psect	text6
  6714     0E5A                     __ptext6:	
  6715 ;; *************** function _PWM1_LoadBufferSet *****************
  6716 ;; Defined at:
  6717 ;;		line 128 in file "mcc_generated_files/pwm1.c"
  6718 ;; Parameters:    Size  Location     Type
  6719 ;;		None
  6720 ;; Auto vars:     Size  Location     Type
  6721 ;;		None
  6722 ;; Return value:  Size  Location     Type
  6723 ;;                  1    wreg      void 
  6724 ;; Registers used:
  6725 ;;		None
  6726 ;; Tracked objects:
  6727 ;;		On entry : 1F/1B
  6728 ;;		On exit  : 1F/1B
  6729 ;;		Unchanged: 0/0
  6730 ;; Data sizes:     COMMON   BANK0   BANK1   BANK2   BANK3   BANK4   BANK5   BANK6
  6731 ;;      Params:         0       0       0       0       0       0       0       0
  6732 ;;      Locals:         0       0       0       0       0       0       0       0
  6733 ;;      Temps:          0       0       0       0       0       0       0       0
  6734 ;;      Totals:         0       0       0       0       0       0       0       0
  6735 ;;Total ram usage:        0 bytes
  6736 ;; Hardware stack levels used: 1
  6737 ;; Hardware stack levels required when called: 4
  6738 ;; This function calls:
  6739 ;;		Nothing
  6740 ;; This function is called by:
  6741 ;;		_stopMotor
  6742 ;; This function uses a non-reentrant model
  6743 ;;
  6744                           
  6745     0E5A                     _PWM1_LoadBufferSet:	
  6746                           ;psect for function _PWM1_LoadBufferSet
  6747                           
  6748                           
  6749                           ;mcc_generated_files/pwm1.c: 130:     PWM1LDCONbits.LDA = 1;
  6750                           
  6751                           ;incstack = 0
  6752                           ; Regs used in _PWM1_LoadBufferSet: []
  6753     0E5A  179F               	bsf	31,7	;volatile
  6754     0E5B  0008               	return
  6755     0E5C                     __end_of_PWM1_LoadBufferSet:
  6756                           
  6757                           	psect	text7
  6758     0EB0                     __ptext7:	
  6759 ;; *************** function _PWM1_DutyCycleSet *****************
  6760 ;; Defined at:
  6761 ;;		line 139 in file "mcc_generated_files/pwm1.c"
  6762 ;; Parameters:    Size  Location     Type
  6763 ;;  dutyCycleCou    2    2[COMMON] unsigned short 
  6764 ;; Auto vars:     Size  Location     Type
  6765 ;;		None
  6766 ;; Return value:  Size  Location     Type
  6767 ;;                  1    wreg      void 
  6768 ;; Registers used:
  6769 ;;		wreg
  6770 ;; Tracked objects:
  6771 ;;		On entry : 1D/2
  6772 ;;		On exit  : 1F/1B
  6773 ;;		Unchanged: 0/0
  6774 ;; Data sizes:     COMMON   BANK0   BANK1   BANK2   BANK3   BANK4   BANK5   BANK6
  6775 ;;      Params:         2       0       0       0       0       0       0       0
  6776 ;;      Locals:         0       0       0       0       0       0       0       0
  6777 ;;      Temps:          0       0       0       0       0       0       0       0
  6778 ;;      Totals:         2       0       0       0       0       0       0       0
  6779 ;;Total ram usage:        2 bytes
  6780 ;; Hardware stack levels used: 1
  6781 ;; Hardware stack levels required when called: 4
  6782 ;; This function calls:
  6783 ;;		Nothing
  6784 ;; This function is called by:
  6785 ;;		_stopMotor
  6786 ;; This function uses a non-reentrant model
  6787 ;;
  6788                           
  6789     0EB0                     _PWM1_DutyCycleSet:	
  6790                           ;psect for function _PWM1_DutyCycleSet
  6791                           
  6792                           
  6793                           ;mcc_generated_files/pwm1.c: 139: void PWM1_DutyCycleSet(uint16_t dutyCycleCount);mcc_ge
      +                          nerated_files/pwm1.c: 140: {;mcc_generated_files/pwm1.c: 141:     PWM1DCH = (uint8_t)(du
      +                          tyCycleCount>>8);
  6794                           
  6795                           ;incstack = 0
  6796                           ; Regs used in _PWM1_DutyCycleSet: [wreg]
  6797     0EB0  0873               	movf	PWM1_DutyCycleSet@dutyCycleCount+1,w
  6798     0EB1  003B               	movlb	27	; select bank27
  6799     0EB2  0094               	movwf	20	;volatile
  6800                           
  6801                           ;mcc_generated_files/pwm1.c: 142:     PWM1DCL = (uint8_t)(dutyCycleCount & 0x00FF);
  6802     0EB3  0872               	movf	PWM1_DutyCycleSet@dutyCycleCount,w
  6803     0EB4  0093               	movwf	19	;volatile
  6804     0EB5  0008               	return
  6805     0EB6                     __end_of_PWM1_DutyCycleSet:
  6806                           
  6807                           	psect	text8
  6808     0EE7                     __ptext8:	
  6809 ;; *************** function _stopAll *****************
  6810 ;; Defined at:
  6811 ;;		line 215 in file "main.c"
  6812 ;; Parameters:    Size  Location     Type
  6813 ;;		None
  6814 ;; Auto vars:     Size  Location     Type
  6815 ;;		None
  6816 ;; Return value:  Size  Location     Type
  6817 ;;                  1    wreg      void 
  6818 ;; Registers used:
  6819 ;;		wreg, status,2, status,0, pclath, cstack
  6820 ;; Tracked objects:
  6821 ;;		On entry : 0/0
  6822 ;;		On exit  : 1F/2
  6823 ;;		Unchanged: 0/0
  6824 ;; Data sizes:     COMMON   BANK0   BANK1   BANK2   BANK3   BANK4   BANK5   BANK6
  6825 ;;      Params:         0       0       0       0       0       0       0       0
  6826 ;;      Locals:         0       0       0       0       0       0       0       0
  6827 ;;      Temps:          0       0       0       0       0       0       0       0
  6828 ;;      Totals:         0       0       0       0       0       0       0       0
  6829 ;;Total ram usage:        0 bytes
  6830 ;; Hardware stack levels used: 1
  6831 ;; Hardware stack levels required when called: 6
  6832 ;; This function calls:
  6833 ;;		_stopBlue
  6834 ;;		_stopGreen
  6835 ;;		_stopRed
  6836 ;; This function is called by:
  6837 ;;		_programStates
  6838 ;; This function uses a non-reentrant model
  6839 ;;
  6840                           
  6841     0EE7                     _stopAll:	
  6842                           ;psect for function _stopAll
  6843                           
  6844                           
  6845                           ;main.c: 216:     stopRed();
  6846                           
  6847                           ;incstack = 0
  6848                           ; Regs used in _stopAll: [wreg+status,2+status,0+pclath+cstack]
  6849     0EE7  3187  27EA  318E   	fcall	_stopRed
  6850                           
  6851                           ;main.c: 217:     stopBlue();
  6852     0EEA  318F  27DA  318E   	fcall	_stopBlue
  6853                           
  6854                           ;main.c: 218:     stopGreen();
  6855     0EED  318F  27ED         	fcall	_stopGreen
  6856     0EEF  0008               	return
  6857     0EF0                     __end_of_stopAll:
  6858                           
  6859                           	psect	text9
  6860     07EA                     __ptext9:	
  6861 ;; *************** function _stopRed *****************
  6862 ;; Defined at:
  6863 ;;		line 190 in file "main.c"
  6864 ;; Parameters:    Size  Location     Type
  6865 ;;		None
  6866 ;; Auto vars:     Size  Location     Type
  6867 ;;		None
  6868 ;; Return value:  Size  Location     Type
  6869 ;;                  1    wreg      void 
  6870 ;; Registers used:
  6871 ;;		wreg, status,2, status,0, pclath, cstack
  6872 ;; Tracked objects:
  6873 ;;		On entry : 0/0
  6874 ;;		On exit  : 1F/2
  6875 ;;		Unchanged: 0/0
  6876 ;; Data sizes:     COMMON   BANK0   BANK1   BANK2   BANK3   BANK4   BANK5   BANK6
  6877 ;;      Params:         0       0       0       0       0       0       0       0
  6878 ;;      Locals:         0       0       0       0       0       0       0       0
  6879 ;;      Temps:          0       0       0       0       0       0       0       0
  6880 ;;      Totals:         0       0       0       0       0       0       0       0
  6881 ;;Total ram usage:        0 bytes
  6882 ;; Hardware stack levels used: 1
  6883 ;; Hardware stack levels required when called: 5
  6884 ;; This function calls:
  6885 ;;		_PWM4_DutyCycleSet
  6886 ;;		_PWM4_LoadBufferSet
  6887 ;;		_PWM4_Start
  6888 ;;		_PWM4_Stop
  6889 ;; This function is called by:
  6890 ;;		_stopYellow
  6891 ;;		_stopAll
  6892 ;;		_main
  6893 ;;		_programStates
  6894 ;; This function uses a non-reentrant model
  6895 ;;
  6896                           
  6897     07EA                     _stopRed:	
  6898                           ;psect for function _stopRed
  6899                           
  6900                           
  6901                           ;main.c: 192:     PWM4_DutyCycleSet(0x00);
  6902                           
  6903                           ;incstack = 0
  6904                           ; Regs used in _stopRed: [wreg+status,2+status,0+pclath+cstack]
  6905     07EA  3000               	movlw	0
  6906     07EB  00F2               	movwf	PWM4_DutyCycleSet@dutyCycleCount
  6907     07EC  00F3               	movwf	PWM4_DutyCycleSet@dutyCycleCount+1
  6908     07ED  318E  26AA  3187   	fcall	_PWM4_DutyCycleSet
  6909                           
  6910                           ;main.c: 193:     PWM4_LoadBufferSet();
  6911     07F0  318E  2650  3187   	fcall	_PWM4_LoadBufferSet
  6912                           
  6913                           ;main.c: 194:     PWM4_Start();
  6914     07F3  318E  2652  3187   	fcall	_PWM4_Start
  6915                           
  6916                           ;main.c: 195:     PWM4_Stop();
  6917     07F6  318E  2658         	fcall	_PWM4_Stop
  6918                           
  6919                           ;main.c: 196:     TRISC |= 0x01;
  6920     07F8  0021               	movlb	1	; select bank1
  6921     07F9  140E               	bsf	14,0	;volatile
  6922                           
  6923                           ;main.c: 197:     LATCbits.LATC0 = 0;
  6924     07FA  0022               	movlb	2	; select bank2
  6925     07FB  100E               	bcf	14,0	;volatile
  6926     07FC  0008               	return
  6927     07FD                     __end_of_stopRed:
  6928                           
  6929                           	psect	text10
  6930     0E58                     __ptext10:	
  6931 ;; *************** function _PWM4_Stop *****************
  6932 ;; Defined at:
  6933 ;;		line 118 in file "mcc_generated_files/pwm4.c"
  6934 ;; Parameters:    Size  Location     Type
  6935 ;;		None
  6936 ;; Auto vars:     Size  Location     Type
  6937 ;;		None
  6938 ;; Return value:  Size  Location     Type
  6939 ;;                  1    wreg      void 
  6940 ;; Registers used:
  6941 ;;		None
  6942 ;; Tracked objects:
  6943 ;;		On entry : 1F/1B
  6944 ;;		On exit  : 1F/1B
  6945 ;;		Unchanged: 0/0
  6946 ;; Data sizes:     COMMON   BANK0   BANK1   BANK2   BANK3   BANK4   BANK5   BANK6
  6947 ;;      Params:         0       0       0       0       0       0       0       0
  6948 ;;      Locals:         0       0       0       0       0       0       0       0
  6949 ;;      Temps:          0       0       0       0       0       0       0       0
  6950 ;;      Totals:         0       0       0       0       0       0       0       0
  6951 ;;Total ram usage:        0 bytes
  6952 ;; Hardware stack levels used: 1
  6953 ;; Hardware stack levels required when called: 4
  6954 ;; This function calls:
  6955 ;;		Nothing
  6956 ;; This function is called by:
  6957 ;;		_stopRed
  6958 ;; This function uses a non-reentrant model
  6959 ;;
  6960                           
  6961     0E58                     _PWM4_Stop:	
  6962                           ;psect for function _PWM4_Stop
  6963                           
  6964                           
  6965                           ;mcc_generated_files/pwm4.c: 120:     PWM4CONbits.EN = 0;
  6966                           
  6967                           ;incstack = 0
  6968                           ; Regs used in _PWM4_Stop: []
  6969     0E58  13CB               	bcf	75,7	;volatile
  6970     0E59  0008               	return
  6971     0E5A                     __end_of_PWM4_Stop:
  6972                           
  6973                           	psect	text11
  6974     0FED                     __ptext11:	
  6975 ;; *************** function _stopGreen *****************
  6976 ;; Defined at:
  6977 ;;		line 157 in file "main.c"
  6978 ;; Parameters:    Size  Location     Type
  6979 ;;		None
  6980 ;; Auto vars:     Size  Location     Type
  6981 ;;		None
  6982 ;; Return value:  Size  Location     Type
  6983 ;;                  1    wreg      void 
  6984 ;; Registers used:
  6985 ;;		wreg, status,2, status,0, pclath, cstack
  6986 ;; Tracked objects:
  6987 ;;		On entry : 1D/0
  6988 ;;		On exit  : 1F/2
  6989 ;;		Unchanged: 0/0
  6990 ;; Data sizes:     COMMON   BANK0   BANK1   BANK2   BANK3   BANK4   BANK5   BANK6
  6991 ;;      Params:         0       0       0       0       0       0       0       0
  6992 ;;      Locals:         0       0       0       0       0       0       0       0
  6993 ;;      Temps:          0       0       0       0       0       0       0       0
  6994 ;;      Totals:         0       0       0       0       0       0       0       0
  6995 ;;Total ram usage:        0 bytes
  6996 ;; Hardware stack levels used: 1
  6997 ;; Hardware stack levels required when called: 5
  6998 ;; This function calls:
  6999 ;;		_PWM2_DutyCycleSet
  7000 ;;		_PWM2_LoadBufferSet
  7001 ;;		_PWM2_Start
  7002 ;;		_PWM2_Stop
  7003 ;; This function is called by:
  7004 ;;		_stopYellow
  7005 ;;		_stopAll
  7006 ;;		_programStates
  7007 ;; This function uses a non-reentrant model
  7008 ;;
  7009                           
  7010     0FED                     _stopGreen:	
  7011                           ;psect for function _stopGreen
  7012                           
  7013                           
  7014                           ;main.c: 159:     PWM2_DutyCycleSet(0x00);
  7015                           
  7016                           ;incstack = 0
  7017                           ; Regs used in _stopGreen: [wreg+status,2+status,0+pclath+cstack]
  7018     0FED  3000               	movlw	0
  7019     0FEE  00F2               	movwf	PWM2_DutyCycleSet@dutyCycleCount
  7020     0FEF  00F3               	movwf	PWM2_DutyCycleSet@dutyCycleCount+1
  7021     0FF0  318E  26A4  318F   	fcall	_PWM2_DutyCycleSet
  7022                           
  7023                           ;main.c: 160:     PWM2_LoadBufferSet();
  7024     0FF3  318E  264C  318F   	fcall	_PWM2_LoadBufferSet
  7025                           
  7026                           ;main.c: 161:     PWM2_Start();
  7027     0FF6  318E  264E  318F   	fcall	_PWM2_Start
  7028                           
  7029                           ;main.c: 162:     PWM2_Stop();
  7030     0FF9  318E  2656         	fcall	_PWM2_Stop
  7031                           
  7032                           ;main.c: 163:     TRISA |= 0x04;
  7033     0FFB  0021               	movlb	1	; select bank1
  7034     0FFC  150C               	bsf	12,2	;volatile
  7035                           
  7036                           ;main.c: 164:     LATAbits.LATA2 = 0;
  7037     0FFD  0022               	movlb	2	; select bank2
  7038     0FFE  110C               	bcf	12,2	;volatile
  7039     0FFF  0008               	return
  7040     1000                     __end_of_stopGreen:
  7041                           
  7042                           	psect	text12
  7043     0E56                     __ptext12:	
  7044 ;; *************** function _PWM2_Stop *****************
  7045 ;; Defined at:
  7046 ;;		line 118 in file "mcc_generated_files/pwm2.c"
  7047 ;; Parameters:    Size  Location     Type
  7048 ;;		None
  7049 ;; Auto vars:     Size  Location     Type
  7050 ;;		None
  7051 ;; Return value:  Size  Location     Type
  7052 ;;                  1    wreg      void 
  7053 ;; Registers used:
  7054 ;;		None
  7055 ;; Tracked objects:
  7056 ;;		On entry : 1F/1B
  7057 ;;		On exit  : 1F/1B
  7058 ;;		Unchanged: 0/0
  7059 ;; Data sizes:     COMMON   BANK0   BANK1   BANK2   BANK3   BANK4   BANK5   BANK6
  7060 ;;      Params:         0       0       0       0       0       0       0       0
  7061 ;;      Locals:         0       0       0       0       0       0       0       0
  7062 ;;      Temps:          0       0       0       0       0       0       0       0
  7063 ;;      Totals:         0       0       0       0       0       0       0       0
  7064 ;;Total ram usage:        0 bytes
  7065 ;; Hardware stack levels used: 1
  7066 ;; Hardware stack levels required when called: 4
  7067 ;; This function calls:
  7068 ;;		Nothing
  7069 ;; This function is called by:
  7070 ;;		_stopGreen
  7071 ;; This function uses a non-reentrant model
  7072 ;;
  7073                           
  7074     0E56                     _PWM2_Stop:	
  7075                           ;psect for function _PWM2_Stop
  7076                           
  7077                           
  7078                           ;mcc_generated_files/pwm2.c: 120:     PWM2CONbits.EN = 0;
  7079                           
  7080                           ;incstack = 0
  7081                           ; Regs used in _PWM2_Stop: []
  7082     0E56  13AB               	bcf	43,7	;volatile
  7083     0E57  0008               	return
  7084     0E58                     __end_of_PWM2_Stop:
  7085                           
  7086                           	psect	text13
  7087     0FDA                     __ptext13:	
  7088 ;; *************** function _stopBlue *****************
  7089 ;; Defined at:
  7090 ;;		line 173 in file "main.c"
  7091 ;; Parameters:    Size  Location     Type
  7092 ;;		None
  7093 ;; Auto vars:     Size  Location     Type
  7094 ;;		None
  7095 ;; Return value:  Size  Location     Type
  7096 ;;                  1    wreg      void 
  7097 ;; Registers used:
  7098 ;;		wreg, status,2, status,0, pclath, cstack
  7099 ;; Tracked objects:
  7100 ;;		On entry : 1D/0
  7101 ;;		On exit  : 1F/2
  7102 ;;		Unchanged: 0/0
  7103 ;; Data sizes:     COMMON   BANK0   BANK1   BANK2   BANK3   BANK4   BANK5   BANK6
  7104 ;;      Params:         0       0       0       0       0       0       0       0
  7105 ;;      Locals:         0       0       0       0       0       0       0       0
  7106 ;;      Temps:          0       0       0       0       0       0       0       0
  7107 ;;      Totals:         0       0       0       0       0       0       0       0
  7108 ;;Total ram usage:        0 bytes
  7109 ;; Hardware stack levels used: 1
  7110 ;; Hardware stack levels required when called: 5
  7111 ;; This function calls:
  7112 ;;		_PWM3_DutyCycleSet
  7113 ;;		_PWM3_LoadBufferSet
  7114 ;;		_PWM3_Start
  7115 ;;		_PWM3_Stop
  7116 ;; This function is called by:
  7117 ;;		_stopAll
  7118 ;;		_programStates
  7119 ;; This function uses a non-reentrant model
  7120 ;;
  7121                           
  7122     0FDA                     _stopBlue:	
  7123                           ;psect for function _stopBlue
  7124                           
  7125                           
  7126                           ;main.c: 175:     PWM3_DutyCycleSet(0x00);
  7127                           
  7128                           ;incstack = 0
  7129                           ; Regs used in _stopBlue: [wreg+status,2+status,0+pclath+cstack]
  7130     0FDA  3000               	movlw	0
  7131     0FDB  00F2               	movwf	PWM3_DutyCycleSet@dutyCycleCount
  7132     0FDC  00F3               	movwf	PWM3_DutyCycleSet@dutyCycleCount+1
  7133     0FDD  318E  269E  318F   	fcall	_PWM3_DutyCycleSet
  7134                           
  7135                           ;main.c: 176:     PWM3_LoadBufferSet();
  7136     0FE0  318E  2648  318F   	fcall	_PWM3_LoadBufferSet
  7137                           
  7138                           ;main.c: 177:     PWM3_Start();
  7139     0FE3  318E  264A  318F   	fcall	_PWM3_Start
  7140                           
  7141                           ;main.c: 178:     PWM3_Stop();
  7142     0FE6  318E  2654         	fcall	_PWM3_Stop
  7143                           
  7144                           ;main.c: 179:     TRISA |= 0x02;
  7145     0FE8  0021               	movlb	1	; select bank1
  7146     0FE9  148C               	bsf	12,1	;volatile
  7147                           
  7148                           ;main.c: 180:     LATAbits.LATA1 = 0;
  7149     0FEA  0022               	movlb	2	; select bank2
  7150     0FEB  108C               	bcf	12,1	;volatile
  7151     0FEC  0008               	return
  7152     0FED                     __end_of_stopBlue:
  7153                           
  7154                           	psect	text14
  7155     0E54                     __ptext14:	
  7156 ;; *************** function _PWM3_Stop *****************
  7157 ;; Defined at:
  7158 ;;		line 118 in file "mcc_generated_files/pwm3.c"
  7159 ;; Parameters:    Size  Location     Type
  7160 ;;		None
  7161 ;; Auto vars:     Size  Location     Type
  7162 ;;		None
  7163 ;; Return value:  Size  Location     Type
  7164 ;;                  1    wreg      void 
  7165 ;; Registers used:
  7166 ;;		None
  7167 ;; Tracked objects:
  7168 ;;		On entry : 1F/1B
  7169 ;;		On exit  : 1F/1B
  7170 ;;		Unchanged: 0/0
  7171 ;; Data sizes:     COMMON   BANK0   BANK1   BANK2   BANK3   BANK4   BANK5   BANK6
  7172 ;;      Params:         0       0       0       0       0       0       0       0
  7173 ;;      Locals:         0       0       0       0       0       0       0       0
  7174 ;;      Temps:          0       0       0       0       0       0       0       0
  7175 ;;      Totals:         0       0       0       0       0       0       0       0
  7176 ;;Total ram usage:        0 bytes
  7177 ;; Hardware stack levels used: 1
  7178 ;; Hardware stack levels required when called: 4
  7179 ;; This function calls:
  7180 ;;		Nothing
  7181 ;; This function is called by:
  7182 ;;		_stopBlue
  7183 ;; This function uses a non-reentrant model
  7184 ;;
  7185                           
  7186     0E54                     _PWM3_Stop:	
  7187                           ;psect for function _PWM3_Stop
  7188                           
  7189                           
  7190                           ;mcc_generated_files/pwm3.c: 120:     PWM3CONbits.EN = 0;
  7191                           
  7192                           ;incstack = 0
  7193                           ; Regs used in _PWM3_Stop: []
  7194     0E54  13BB               	bcf	59,7	;volatile
  7195     0E55  0008               	return
  7196     0E56                     __end_of_PWM3_Stop:
  7197                           
  7198                           	psect	text15
  7199     0F3A                     __ptext15:	
  7200 ;; *************** function _setStartYellow *****************
  7201 ;; Defined at:
  7202 ;;		line 206 in file "main.c"
  7203 ;; Parameters:    Size  Location     Type
  7204 ;;		None
  7205 ;; Auto vars:     Size  Location     Type
  7206 ;;		None
  7207 ;; Return value:  Size  Location     Type
  7208 ;;                  1    wreg      void 
  7209 ;; Registers used:
  7210 ;;		wreg, status,2, status,0, pclath, cstack
  7211 ;; Tracked objects:
  7212 ;;		On entry : 4/0
  7213 ;;		On exit  : 1F/1B
  7214 ;;		Unchanged: 0/0
  7215 ;; Data sizes:     COMMON   BANK0   BANK1   BANK2   BANK3   BANK4   BANK5   BANK6
  7216 ;;      Params:         0       0       0       0       0       0       0       0
  7217 ;;      Locals:         0       0       0       0       0       0       0       0
  7218 ;;      Temps:          0       0       0       0       0       0       0       0
  7219 ;;      Totals:         0       0       0       0       0       0       0       0
  7220 ;;Total ram usage:        0 bytes
  7221 ;; Hardware stack levels used: 1
  7222 ;; Hardware stack levels required when called: 6
  7223 ;; This function calls:
  7224 ;;		_setStartGreen
  7225 ;;		_setStartRed
  7226 ;; This function is called by:
  7227 ;;		_programStates
  7228 ;; This function uses a non-reentrant model
  7229 ;;
  7230                           
  7231     0F3A                     _setStartYellow:	
  7232                           ;psect for function _setStartYellow
  7233                           
  7234                           
  7235                           ;main.c: 207:     setStartRed(32000);
  7236                           
  7237                           ;incstack = 0
  7238                           ; Regs used in _setStartYellow: [wreg+status,2+status,0+pclath+cstack]
  7239     0F3A  3000               	movlw	0
  7240     0F3B  00F4               	movwf	setStartRed@duty
  7241     0F3C  307D               	movlw	125
  7242     0F3D  00F5               	movwf	setStartRed@duty+1
  7243     0F3E  318F  278F  318F   	fcall	_setStartRed
  7244                           
  7245                           ;main.c: 208:     setStartGreen(32000);
  7246     0F41  3000               	movlw	0
  7247     0F42  00F4               	movwf	setStartGreen@duty
  7248     0F43  307D               	movlw	125
  7249     0F44  00F5               	movwf	setStartGreen@duty+1
  7250     0F45  318F  277D         	fcall	_setStartGreen
  7251     0F47  0008               	return
  7252     0F48                     __end_of_setStartYellow:
  7253                           
  7254                           	psect	text16
  7255     0F8F                     __ptext16:	
  7256 ;; *************** function _setStartRed *****************
  7257 ;; Defined at:
  7258 ;;		line 199 in file "main.c"
  7259 ;; Parameters:    Size  Location     Type
  7260 ;;  duty            2    4[COMMON] unsigned short 
  7261 ;; Auto vars:     Size  Location     Type
  7262 ;;		None
  7263 ;; Return value:  Size  Location     Type
  7264 ;;                  1    wreg      void 
  7265 ;; Registers used:
  7266 ;;		wreg, status,2, status,0, pclath, cstack
  7267 ;; Tracked objects:
  7268 ;;		On entry : 4/0
  7269 ;;		On exit  : 1F/1B
  7270 ;;		Unchanged: 0/0
  7271 ;; Data sizes:     COMMON   BANK0   BANK1   BANK2   BANK3   BANK4   BANK5   BANK6
  7272 ;;      Params:         2       0       0       0       0       0       0       0
  7273 ;;      Locals:         0       0       0       0       0       0       0       0
  7274 ;;      Temps:          1       0       0       0       0       0       0       0
  7275 ;;      Totals:         3       0       0       0       0       0       0       0
  7276 ;;Total ram usage:        3 bytes
  7277 ;; Hardware stack levels used: 1
  7278 ;; Hardware stack levels required when called: 5
  7279 ;; This function calls:
  7280 ;;		_PWM4_DutyCycleSet
  7281 ;;		_PWM4_LoadBufferSet
  7282 ;;		_PWM4_Start
  7283 ;; This function is called by:
  7284 ;;		_setStartYellow
  7285 ;;		_main
  7286 ;;		_programStates
  7287 ;; This function uses a non-reentrant model
  7288 ;;
  7289                           
  7290     0F8F                     _setStartRed:	
  7291                           ;psect for function _setStartRed
  7292                           
  7293                           
  7294                           ;main.c: 199: void setStartRed(uint16_t duty);main.c: 200: {;main.c: 201:     TRISC &= ~
      +                          0x01;
  7295                           
  7296                           ;incstack = 0
  7297                           ; Regs used in _setStartRed: [wreg+status,2+status,0+pclath+cstack]
  7298     0F8F  30FE               	movlw	254
  7299     0F90  00F6               	movwf	??_setStartRed
  7300     0F91  0876               	movf	??_setStartRed,w
  7301     0F92  0021               	movlb	1	; select bank1
  7302     0F93  058E               	andwf	14,f	;volatile
  7303                           
  7304                           ;main.c: 202:     PWM4_DutyCycleSet(duty);
  7305     0F94  0875               	movf	setStartRed@duty+1,w
  7306     0F95  00F3               	movwf	PWM4_DutyCycleSet@dutyCycleCount+1
  7307     0F96  0874               	movf	setStartRed@duty,w
  7308     0F97  00F2               	movwf	PWM4_DutyCycleSet@dutyCycleCount
  7309     0F98  318E  26AA  318F   	fcall	_PWM4_DutyCycleSet
  7310                           
  7311                           ;main.c: 203:     PWM4_LoadBufferSet();
  7312     0F9B  318E  2650  318F   	fcall	_PWM4_LoadBufferSet
  7313                           
  7314                           ;main.c: 204:     PWM4_Start();
  7315     0F9E  318E  2652         	fcall	_PWM4_Start
  7316     0FA0  0008               	return
  7317     0FA1                     __end_of_setStartRed:
  7318                           
  7319                           	psect	text17
  7320     0E52                     __ptext17:	
  7321 ;; *************** function _PWM4_Start *****************
  7322 ;; Defined at:
  7323 ;;		line 113 in file "mcc_generated_files/pwm4.c"
  7324 ;; Parameters:    Size  Location     Type
  7325 ;;		None
  7326 ;; Auto vars:     Size  Location     Type
  7327 ;;		None
  7328 ;; Return value:  Size  Location     Type
  7329 ;;                  1    wreg      void 
  7330 ;; Registers used:
  7331 ;;		None
  7332 ;; Tracked objects:
  7333 ;;		On entry : 1F/1B
  7334 ;;		On exit  : 1F/1B
  7335 ;;		Unchanged: 0/0
  7336 ;; Data sizes:     COMMON   BANK0   BANK1   BANK2   BANK3   BANK4   BANK5   BANK6
  7337 ;;      Params:         0       0       0       0       0       0       0       0
  7338 ;;      Locals:         0       0       0       0       0       0       0       0
  7339 ;;      Temps:          0       0       0       0       0       0       0       0
  7340 ;;      Totals:         0       0       0       0       0       0       0       0
  7341 ;;Total ram usage:        0 bytes
  7342 ;; Hardware stack levels used: 1
  7343 ;; Hardware stack levels required when called: 4
  7344 ;; This function calls:
  7345 ;;		Nothing
  7346 ;; This function is called by:
  7347 ;;		_stopRed
  7348 ;;		_setStartRed
  7349 ;; This function uses a non-reentrant model
  7350 ;;
  7351                           
  7352     0E52                     _PWM4_Start:	
  7353                           ;psect for function _PWM4_Start
  7354                           
  7355                           
  7356                           ;mcc_generated_files/pwm4.c: 115:     PWM4CONbits.EN = 1;
  7357                           
  7358                           ;incstack = 0
  7359                           ; Regs used in _PWM4_Start: []
  7360     0E52  17CB               	bsf	75,7	;volatile
  7361     0E53  0008               	return
  7362     0E54                     __end_of_PWM4_Start:
  7363                           
  7364                           	psect	text18
  7365     0E50                     __ptext18:	
  7366 ;; *************** function _PWM4_LoadBufferSet *****************
  7367 ;; Defined at:
  7368 ;;		line 128 in file "mcc_generated_files/pwm4.c"
  7369 ;; Parameters:    Size  Location     Type
  7370 ;;		None
  7371 ;; Auto vars:     Size  Location     Type
  7372 ;;		None
  7373 ;; Return value:  Size  Location     Type
  7374 ;;                  1    wreg      void 
  7375 ;; Registers used:
  7376 ;;		None
  7377 ;; Tracked objects:
  7378 ;;		On entry : 1F/1B
  7379 ;;		On exit  : 1F/1B
  7380 ;;		Unchanged: 0/0
  7381 ;; Data sizes:     COMMON   BANK0   BANK1   BANK2   BANK3   BANK4   BANK5   BANK6
  7382 ;;      Params:         0       0       0       0       0       0       0       0
  7383 ;;      Locals:         0       0       0       0       0       0       0       0
  7384 ;;      Temps:          0       0       0       0       0       0       0       0
  7385 ;;      Totals:         0       0       0       0       0       0       0       0
  7386 ;;Total ram usage:        0 bytes
  7387 ;; Hardware stack levels used: 1
  7388 ;; Hardware stack levels required when called: 4
  7389 ;; This function calls:
  7390 ;;		Nothing
  7391 ;; This function is called by:
  7392 ;;		_stopRed
  7393 ;;		_setStartRed
  7394 ;; This function uses a non-reentrant model
  7395 ;;
  7396                           
  7397     0E50                     _PWM4_LoadBufferSet:	
  7398                           ;psect for function _PWM4_LoadBufferSet
  7399                           
  7400                           
  7401                           ;mcc_generated_files/pwm4.c: 130:     PWM4LDCONbits.LDA = 1;
  7402                           
  7403                           ;incstack = 0
  7404                           ; Regs used in _PWM4_LoadBufferSet: []
  7405     0E50  17CF               	bsf	79,7	;volatile
  7406     0E51  0008               	return
  7407     0E52                     __end_of_PWM4_LoadBufferSet:
  7408                           
  7409                           	psect	text19
  7410     0EAA                     __ptext19:	
  7411 ;; *************** function _PWM4_DutyCycleSet *****************
  7412 ;; Defined at:
  7413 ;;		line 139 in file "mcc_generated_files/pwm4.c"
  7414 ;; Parameters:    Size  Location     Type
  7415 ;;  dutyCycleCou    2    2[COMMON] unsigned short 
  7416 ;; Auto vars:     Size  Location     Type
  7417 ;;		None
  7418 ;; Return value:  Size  Location     Type
  7419 ;;                  1    wreg      void 
  7420 ;; Registers used:
  7421 ;;		wreg
  7422 ;; Tracked objects:
  7423 ;;		On entry : 0/0
  7424 ;;		On exit  : 1F/1B
  7425 ;;		Unchanged: 0/0
  7426 ;; Data sizes:     COMMON   BANK0   BANK1   BANK2   BANK3   BANK4   BANK5   BANK6
  7427 ;;      Params:         2       0       0       0       0       0       0       0
  7428 ;;      Locals:         0       0       0       0       0       0       0       0
  7429 ;;      Temps:          0       0       0       0       0       0       0       0
  7430 ;;      Totals:         2       0       0       0       0       0       0       0
  7431 ;;Total ram usage:        2 bytes
  7432 ;; Hardware stack levels used: 1
  7433 ;; Hardware stack levels required when called: 4
  7434 ;; This function calls:
  7435 ;;		Nothing
  7436 ;; This function is called by:
  7437 ;;		_stopRed
  7438 ;;		_setStartRed
  7439 ;; This function uses a non-reentrant model
  7440 ;;
  7441                           
  7442     0EAA                     _PWM4_DutyCycleSet:	
  7443                           ;psect for function _PWM4_DutyCycleSet
  7444                           
  7445                           
  7446                           ;mcc_generated_files/pwm4.c: 139: void PWM4_DutyCycleSet(uint16_t dutyCycleCount);mcc_ge
      +                          nerated_files/pwm4.c: 140: {;mcc_generated_files/pwm4.c: 141:     PWM4DCH = (dutyCycleCo
      +                          unt>>8);
  7447                           
  7448                           ;incstack = 0
  7449                           ; Regs used in _PWM4_DutyCycleSet: [wreg]
  7450     0EAA  0873               	movf	PWM4_DutyCycleSet@dutyCycleCount+1,w
  7451     0EAB  003B               	movlb	27	; select bank27
  7452     0EAC  00C4               	movwf	68	;volatile
  7453                           
  7454                           ;mcc_generated_files/pwm4.c: 142:     PWM4DCL = (uint8_t)(dutyCycleCount);
  7455     0EAD  0872               	movf	PWM4_DutyCycleSet@dutyCycleCount,w
  7456     0EAE  00C3               	movwf	67	;volatile
  7457     0EAF  0008               	return
  7458     0EB0                     __end_of_PWM4_DutyCycleSet:
  7459                           
  7460                           	psect	text20
  7461     0F7D                     __ptext20:	
  7462 ;; *************** function _setStartGreen *****************
  7463 ;; Defined at:
  7464 ;;		line 166 in file "main.c"
  7465 ;; Parameters:    Size  Location     Type
  7466 ;;  duty            2    4[COMMON] unsigned short 
  7467 ;; Auto vars:     Size  Location     Type
  7468 ;;		None
  7469 ;; Return value:  Size  Location     Type
  7470 ;;                  1    wreg      void 
  7471 ;; Registers used:
  7472 ;;		wreg, status,2, status,0, pclath, cstack
  7473 ;; Tracked objects:
  7474 ;;		On entry : 4/0
  7475 ;;		On exit  : 1F/1B
  7476 ;;		Unchanged: 0/0
  7477 ;; Data sizes:     COMMON   BANK0   BANK1   BANK2   BANK3   BANK4   BANK5   BANK6
  7478 ;;      Params:         2       0       0       0       0       0       0       0
  7479 ;;      Locals:         0       0       0       0       0       0       0       0
  7480 ;;      Temps:          1       0       0       0       0       0       0       0
  7481 ;;      Totals:         3       0       0       0       0       0       0       0
  7482 ;;Total ram usage:        3 bytes
  7483 ;; Hardware stack levels used: 1
  7484 ;; Hardware stack levels required when called: 5
  7485 ;; This function calls:
  7486 ;;		_PWM2_DutyCycleSet
  7487 ;;		_PWM2_LoadBufferSet
  7488 ;;		_PWM2_Start
  7489 ;; This function is called by:
  7490 ;;		_setStartYellow
  7491 ;;		_programStates
  7492 ;; This function uses a non-reentrant model
  7493 ;;
  7494                           
  7495     0F7D                     _setStartGreen:	
  7496                           ;psect for function _setStartGreen
  7497                           
  7498                           
  7499                           ;main.c: 166: void setStartGreen(uint16_t duty);main.c: 167: {;main.c: 168:     TRISA &=
      +                           ~0x04;
  7500                           
  7501                           ;incstack = 0
  7502                           ; Regs used in _setStartGreen: [wreg+status,2+status,0+pclath+cstack]
  7503     0F7D  30FB               	movlw	251
  7504     0F7E  00F6               	movwf	??_setStartGreen
  7505     0F7F  0876               	movf	??_setStartGreen,w
  7506     0F80  0021               	movlb	1	; select bank1
  7507     0F81  058C               	andwf	12,f	;volatile
  7508                           
  7509                           ;main.c: 169:     PWM2_DutyCycleSet(duty);
  7510     0F82  0875               	movf	setStartGreen@duty+1,w
  7511     0F83  00F3               	movwf	PWM2_DutyCycleSet@dutyCycleCount+1
  7512     0F84  0874               	movf	setStartGreen@duty,w
  7513     0F85  00F2               	movwf	PWM2_DutyCycleSet@dutyCycleCount
  7514     0F86  318E  26A4  318F   	fcall	_PWM2_DutyCycleSet
  7515                           
  7516                           ;main.c: 170:     PWM2_LoadBufferSet();
  7517     0F89  318E  264C  318F   	fcall	_PWM2_LoadBufferSet
  7518                           
  7519                           ;main.c: 171:     PWM2_Start();
  7520     0F8C  318E  264E         	fcall	_PWM2_Start
  7521     0F8E  0008               	return
  7522     0F8F                     __end_of_setStartGreen:
  7523                           
  7524                           	psect	text21
  7525     0E4E                     __ptext21:	
  7526 ;; *************** function _PWM2_Start *****************
  7527 ;; Defined at:
  7528 ;;		line 113 in file "mcc_generated_files/pwm2.c"
  7529 ;; Parameters:    Size  Location     Type
  7530 ;;		None
  7531 ;; Auto vars:     Size  Location     Type
  7532 ;;		None
  7533 ;; Return value:  Size  Location     Type
  7534 ;;                  1    wreg      void 
  7535 ;; Registers used:
  7536 ;;		None
  7537 ;; Tracked objects:
  7538 ;;		On entry : 1F/1B
  7539 ;;		On exit  : 1F/1B
  7540 ;;		Unchanged: 0/0
  7541 ;; Data sizes:     COMMON   BANK0   BANK1   BANK2   BANK3   BANK4   BANK5   BANK6
  7542 ;;      Params:         0       0       0       0       0       0       0       0
  7543 ;;      Locals:         0       0       0       0       0       0       0       0
  7544 ;;      Temps:          0       0       0       0       0       0       0       0
  7545 ;;      Totals:         0       0       0       0       0       0       0       0
  7546 ;;Total ram usage:        0 bytes
  7547 ;; Hardware stack levels used: 1
  7548 ;; Hardware stack levels required when called: 4
  7549 ;; This function calls:
  7550 ;;		Nothing
  7551 ;; This function is called by:
  7552 ;;		_stopGreen
  7553 ;;		_setStartGreen
  7554 ;; This function uses a non-reentrant model
  7555 ;;
  7556                           
  7557     0E4E                     _PWM2_Start:	
  7558                           ;psect for function _PWM2_Start
  7559                           
  7560                           
  7561                           ;mcc_generated_files/pwm2.c: 115:     PWM2CONbits.EN = 1;
  7562                           
  7563                           ;incstack = 0
  7564                           ; Regs used in _PWM2_Start: []
  7565     0E4E  17AB               	bsf	43,7	;volatile
  7566     0E4F  0008               	return
  7567     0E50                     __end_of_PWM2_Start:
  7568                           
  7569                           	psect	text22
  7570     0E4C                     __ptext22:	
  7571 ;; *************** function _PWM2_LoadBufferSet *****************
  7572 ;; Defined at:
  7573 ;;		line 128 in file "mcc_generated_files/pwm2.c"
  7574 ;; Parameters:    Size  Location     Type
  7575 ;;		None
  7576 ;; Auto vars:     Size  Location     Type
  7577 ;;		None
  7578 ;; Return value:  Size  Location     Type
  7579 ;;                  1    wreg      void 
  7580 ;; Registers used:
  7581 ;;		None
  7582 ;; Tracked objects:
  7583 ;;		On entry : 1F/1B
  7584 ;;		On exit  : 1F/1B
  7585 ;;		Unchanged: 0/0
  7586 ;; Data sizes:     COMMON   BANK0   BANK1   BANK2   BANK3   BANK4   BANK5   BANK6
  7587 ;;      Params:         0       0       0       0       0       0       0       0
  7588 ;;      Locals:         0       0       0       0       0       0       0       0
  7589 ;;      Temps:          0       0       0       0       0       0       0       0
  7590 ;;      Totals:         0       0       0       0       0       0       0       0
  7591 ;;Total ram usage:        0 bytes
  7592 ;; Hardware stack levels used: 1
  7593 ;; Hardware stack levels required when called: 4
  7594 ;; This function calls:
  7595 ;;		Nothing
  7596 ;; This function is called by:
  7597 ;;		_stopGreen
  7598 ;;		_setStartGreen
  7599 ;; This function uses a non-reentrant model
  7600 ;;
  7601                           
  7602     0E4C                     _PWM2_LoadBufferSet:	
  7603                           ;psect for function _PWM2_LoadBufferSet
  7604                           
  7605                           
  7606                           ;mcc_generated_files/pwm2.c: 130:     PWM2LDCONbits.LDA = 1;
  7607                           
  7608                           ;incstack = 0
  7609                           ; Regs used in _PWM2_LoadBufferSet: []
  7610     0E4C  17AF               	bsf	47,7	;volatile
  7611     0E4D  0008               	return
  7612     0E4E                     __end_of_PWM2_LoadBufferSet:
  7613                           
  7614                           	psect	text23
  7615     0EA4                     __ptext23:	
  7616 ;; *************** function _PWM2_DutyCycleSet *****************
  7617 ;; Defined at:
  7618 ;;		line 139 in file "mcc_generated_files/pwm2.c"
  7619 ;; Parameters:    Size  Location     Type
  7620 ;;  dutyCycleCou    2    2[COMMON] unsigned short 
  7621 ;; Auto vars:     Size  Location     Type
  7622 ;;		None
  7623 ;; Return value:  Size  Location     Type
  7624 ;;                  1    wreg      void 
  7625 ;; Registers used:
  7626 ;;		wreg
  7627 ;; Tracked objects:
  7628 ;;		On entry : 1C/0
  7629 ;;		On exit  : 1F/1B
  7630 ;;		Unchanged: 0/0
  7631 ;; Data sizes:     COMMON   BANK0   BANK1   BANK2   BANK3   BANK4   BANK5   BANK6
  7632 ;;      Params:         2       0       0       0       0       0       0       0
  7633 ;;      Locals:         0       0       0       0       0       0       0       0
  7634 ;;      Temps:          0       0       0       0       0       0       0       0
  7635 ;;      Totals:         2       0       0       0       0       0       0       0
  7636 ;;Total ram usage:        2 bytes
  7637 ;; Hardware stack levels used: 1
  7638 ;; Hardware stack levels required when called: 4
  7639 ;; This function calls:
  7640 ;;		Nothing
  7641 ;; This function is called by:
  7642 ;;		_stopGreen
  7643 ;;		_setStartGreen
  7644 ;; This function uses a non-reentrant model
  7645 ;;
  7646                           
  7647     0EA4                     _PWM2_DutyCycleSet:	
  7648                           ;psect for function _PWM2_DutyCycleSet
  7649                           
  7650                           
  7651                           ;mcc_generated_files/pwm2.c: 139: void PWM2_DutyCycleSet(uint16_t dutyCycleCount);mcc_ge
      +                          nerated_files/pwm2.c: 140: {;mcc_generated_files/pwm2.c: 141:     PWM2DCH = (dutyCycleCo
      +                          unt>>8);
  7652                           
  7653                           ;incstack = 0
  7654                           ; Regs used in _PWM2_DutyCycleSet: [wreg]
  7655     0EA4  0873               	movf	PWM2_DutyCycleSet@dutyCycleCount+1,w
  7656     0EA5  003B               	movlb	27	; select bank27
  7657     0EA6  00A4               	movwf	36	;volatile
  7658                           
  7659                           ;mcc_generated_files/pwm2.c: 142:     PWM2DCL = (uint8_t)(dutyCycleCount);
  7660     0EA7  0872               	movf	PWM2_DutyCycleSet@dutyCycleCount,w
  7661     0EA8  00A3               	movwf	35	;volatile
  7662     0EA9  0008               	return
  7663     0EAA                     __end_of_PWM2_DutyCycleSet:
  7664                           
  7665                           	psect	text24
  7666     0F6B                     __ptext24:	
  7667 ;; *************** function _setStartBlue *****************
  7668 ;; Defined at:
  7669 ;;		line 182 in file "main.c"
  7670 ;; Parameters:    Size  Location     Type
  7671 ;;  duty            2    4[COMMON] unsigned short 
  7672 ;; Auto vars:     Size  Location     Type
  7673 ;;		None
  7674 ;; Return value:  Size  Location     Type
  7675 ;;                  1    wreg      void 
  7676 ;; Registers used:
  7677 ;;		wreg, status,2, status,0, pclath, cstack
  7678 ;; Tracked objects:
  7679 ;;		On entry : 1F/2
  7680 ;;		On exit  : 1F/1B
  7681 ;;		Unchanged: 0/0
  7682 ;; Data sizes:     COMMON   BANK0   BANK1   BANK2   BANK3   BANK4   BANK5   BANK6
  7683 ;;      Params:         2       0       0       0       0       0       0       0
  7684 ;;      Locals:         0       0       0       0       0       0       0       0
  7685 ;;      Temps:          1       0       0       0       0       0       0       0
  7686 ;;      Totals:         3       0       0       0       0       0       0       0
  7687 ;;Total ram usage:        3 bytes
  7688 ;; Hardware stack levels used: 1
  7689 ;; Hardware stack levels required when called: 5
  7690 ;; This function calls:
  7691 ;;		_PWM3_DutyCycleSet
  7692 ;;		_PWM3_LoadBufferSet
  7693 ;;		_PWM3_Start
  7694 ;; This function is called by:
  7695 ;;		_programStates
  7696 ;; This function uses a non-reentrant model
  7697 ;;
  7698                           
  7699     0F6B                     _setStartBlue:	
  7700                           ;psect for function _setStartBlue
  7701                           
  7702                           
  7703                           ;main.c: 182: void setStartBlue(uint16_t duty);main.c: 183: {;main.c: 184:     TRISA &= 
      +                          ~0x02;
  7704                           
  7705                           ;incstack = 0
  7706                           ; Regs used in _setStartBlue: [wreg+status,2+status,0+pclath+cstack]
  7707     0F6B  30FD               	movlw	253
  7708     0F6C  00F6               	movwf	??_setStartBlue
  7709     0F6D  0876               	movf	??_setStartBlue,w
  7710     0F6E  0021               	movlb	1	; select bank1
  7711     0F6F  058C               	andwf	12,f	;volatile
  7712                           
  7713                           ;main.c: 185:     PWM3_DutyCycleSet(duty);
  7714     0F70  0875               	movf	setStartBlue@duty+1,w
  7715     0F71  00F3               	movwf	PWM3_DutyCycleSet@dutyCycleCount+1
  7716     0F72  0874               	movf	setStartBlue@duty,w
  7717     0F73  00F2               	movwf	PWM3_DutyCycleSet@dutyCycleCount
  7718     0F74  318E  269E  318F   	fcall	_PWM3_DutyCycleSet
  7719                           
  7720                           ;main.c: 186:     PWM3_LoadBufferSet();
  7721     0F77  318E  2648  318F   	fcall	_PWM3_LoadBufferSet
  7722                           
  7723                           ;main.c: 187:     PWM3_Start();
  7724     0F7A  318E  264A         	fcall	_PWM3_Start
  7725     0F7C  0008               	return
  7726     0F7D                     __end_of_setStartBlue:
  7727                           
  7728                           	psect	text25
  7729     0E4A                     __ptext25:	
  7730 ;; *************** function _PWM3_Start *****************
  7731 ;; Defined at:
  7732 ;;		line 113 in file "mcc_generated_files/pwm3.c"
  7733 ;; Parameters:    Size  Location     Type
  7734 ;;		None
  7735 ;; Auto vars:     Size  Location     Type
  7736 ;;		None
  7737 ;; Return value:  Size  Location     Type
  7738 ;;                  1    wreg      void 
  7739 ;; Registers used:
  7740 ;;		None
  7741 ;; Tracked objects:
  7742 ;;		On entry : 1F/1B
  7743 ;;		On exit  : 1F/1B
  7744 ;;		Unchanged: 0/0
  7745 ;; Data sizes:     COMMON   BANK0   BANK1   BANK2   BANK3   BANK4   BANK5   BANK6
  7746 ;;      Params:         0       0       0       0       0       0       0       0
  7747 ;;      Locals:         0       0       0       0       0       0       0       0
  7748 ;;      Temps:          0       0       0       0       0       0       0       0
  7749 ;;      Totals:         0       0       0       0       0       0       0       0
  7750 ;;Total ram usage:        0 bytes
  7751 ;; Hardware stack levels used: 1
  7752 ;; Hardware stack levels required when called: 4
  7753 ;; This function calls:
  7754 ;;		Nothing
  7755 ;; This function is called by:
  7756 ;;		_stopBlue
  7757 ;;		_setStartBlue
  7758 ;; This function uses a non-reentrant model
  7759 ;;
  7760                           
  7761     0E4A                     _PWM3_Start:	
  7762                           ;psect for function _PWM3_Start
  7763                           
  7764                           
  7765                           ;mcc_generated_files/pwm3.c: 115:     PWM3CONbits.EN = 1;
  7766                           
  7767                           ;incstack = 0
  7768                           ; Regs used in _PWM3_Start: []
  7769     0E4A  17BB               	bsf	59,7	;volatile
  7770     0E4B  0008               	return
  7771     0E4C                     __end_of_PWM3_Start:
  7772                           
  7773                           	psect	text26
  7774     0E48                     __ptext26:	
  7775 ;; *************** function _PWM3_LoadBufferSet *****************
  7776 ;; Defined at:
  7777 ;;		line 128 in file "mcc_generated_files/pwm3.c"
  7778 ;; Parameters:    Size  Location     Type
  7779 ;;		None
  7780 ;; Auto vars:     Size  Location     Type
  7781 ;;		None
  7782 ;; Return value:  Size  Location     Type
  7783 ;;                  1    wreg      void 
  7784 ;; Registers used:
  7785 ;;		None
  7786 ;; Tracked objects:
  7787 ;;		On entry : 1F/1B
  7788 ;;		On exit  : 1F/1B
  7789 ;;		Unchanged: 0/0
  7790 ;; Data sizes:     COMMON   BANK0   BANK1   BANK2   BANK3   BANK4   BANK5   BANK6
  7791 ;;      Params:         0       0       0       0       0       0       0       0
  7792 ;;      Locals:         0       0       0       0       0       0       0       0
  7793 ;;      Temps:          0       0       0       0       0       0       0       0
  7794 ;;      Totals:         0       0       0       0       0       0       0       0
  7795 ;;Total ram usage:        0 bytes
  7796 ;; Hardware stack levels used: 1
  7797 ;; Hardware stack levels required when called: 4
  7798 ;; This function calls:
  7799 ;;		Nothing
  7800 ;; This function is called by:
  7801 ;;		_stopBlue
  7802 ;;		_setStartBlue
  7803 ;; This function uses a non-reentrant model
  7804 ;;
  7805                           
  7806     0E48                     _PWM3_LoadBufferSet:	
  7807                           ;psect for function _PWM3_LoadBufferSet
  7808                           
  7809                           
  7810                           ;mcc_generated_files/pwm3.c: 130:     PWM3LDCONbits.LDA = 1;
  7811                           
  7812                           ;incstack = 0
  7813                           ; Regs used in _PWM3_LoadBufferSet: []
  7814     0E48  17BF               	bsf	63,7	;volatile
  7815     0E49  0008               	return
  7816     0E4A                     __end_of_PWM3_LoadBufferSet:
  7817                           
  7818                           	psect	text27
  7819     0E9E                     __ptext27:	
  7820 ;; *************** function _PWM3_DutyCycleSet *****************
  7821 ;; Defined at:
  7822 ;;		line 139 in file "mcc_generated_files/pwm3.c"
  7823 ;; Parameters:    Size  Location     Type
  7824 ;;  dutyCycleCou    2    2[COMMON] unsigned short 
  7825 ;; Auto vars:     Size  Location     Type
  7826 ;;		None
  7827 ;; Return value:  Size  Location     Type
  7828 ;;                  1    wreg      void 
  7829 ;; Registers used:
  7830 ;;		wreg
  7831 ;; Tracked objects:
  7832 ;;		On entry : 1C/0
  7833 ;;		On exit  : 1F/1B
  7834 ;;		Unchanged: 0/0
  7835 ;; Data sizes:     COMMON   BANK0   BANK1   BANK2   BANK3   BANK4   BANK5   BANK6
  7836 ;;      Params:         2       0       0       0       0       0       0       0
  7837 ;;      Locals:         0       0       0       0       0       0       0       0
  7838 ;;      Temps:          0       0       0       0       0       0       0       0
  7839 ;;      Totals:         2       0       0       0       0       0       0       0
  7840 ;;Total ram usage:        2 bytes
  7841 ;; Hardware stack levels used: 1
  7842 ;; Hardware stack levels required when called: 4
  7843 ;; This function calls:
  7844 ;;		Nothing
  7845 ;; This function is called by:
  7846 ;;		_stopBlue
  7847 ;;		_setStartBlue
  7848 ;; This function uses a non-reentrant model
  7849 ;;
  7850                           
  7851     0E9E                     _PWM3_DutyCycleSet:	
  7852                           ;psect for function _PWM3_DutyCycleSet
  7853                           
  7854                           
  7855                           ;mcc_generated_files/pwm3.c: 139: void PWM3_DutyCycleSet(uint16_t dutyCycleCount);mcc_ge
      +                          nerated_files/pwm3.c: 140: {;mcc_generated_files/pwm3.c: 141:     PWM3DCH = (dutyCycleCo
      +                          unt>>8);
  7856                           
  7857                           ;incstack = 0
  7858                           ; Regs used in _PWM3_DutyCycleSet: [wreg]
  7859     0E9E  0873               	movf	PWM3_DutyCycleSet@dutyCycleCount+1,w
  7860     0E9F  003B               	movlb	27	; select bank27
  7861     0EA0  00B4               	movwf	52	;volatile
  7862                           
  7863                           ;mcc_generated_files/pwm3.c: 142:     PWM3DCL = (uint8_t)(dutyCycleCount);
  7864     0EA1  0872               	movf	PWM3_DutyCycleSet@dutyCycleCount,w
  7865     0EA2  00B3               	movwf	51	;volatile
  7866     0EA3  0008               	return
  7867     0EA4                     __end_of_PWM3_DutyCycleSet:
  7868                           
  7869                           	psect	text28
  7870     0F13                     __ptext28:	
  7871 ;; *************** function _printf *****************
  7872 ;; Defined at:
  7873 ;;		line 5 in file "C:\Program Files\Microchip\xc8\v2.40\pic\sources\c99\common\printf.c"
  7874 ;; Parameters:    Size  Location     Type
  7875 ;;  fmt             2   17[BANK0 ] PTR const unsigned char 
  7876 ;;		 -> STR_3(11), STR_2(11), STR_1(10), 
  7877 ;; Auto vars:     Size  Location     Type
  7878 ;;  ret             2    0        int 
  7879 ;;  ap              1    9[COMMON] PTR void [1]
  7880 ;;		 -> ?_printf(2), 
  7881 ;; Return value:  Size  Location     Type
  7882 ;;                  2   17[BANK0 ] int 
  7883 ;; Registers used:
  7884 ;;		wreg, fsr0l, fsr0h, fsr1l, fsr1h, status,2, status,0, pclath, cstack
  7885 ;; Tracked objects:
  7886 ;;		On entry : 1F/0
  7887 ;;		On exit  : 1F/0
  7888 ;;		Unchanged: 0/0
  7889 ;; Data sizes:     COMMON   BANK0   BANK1   BANK2   BANK3   BANK4   BANK5   BANK6
  7890 ;;      Params:         0       2       0       0       0       0       0       0
  7891 ;;      Locals:         1       0       0       0       0       0       0       0
  7892 ;;      Temps:          0       0       0       0       0       0       0       0
  7893 ;;      Totals:         1       2       0       0       0       0       0       0
  7894 ;;Total ram usage:        3 bytes
  7895 ;; Hardware stack levels used: 1
  7896 ;; Hardware stack levels required when called: 9
  7897 ;; This function calls:
  7898 ;;		_vfprintf
  7899 ;; This function is called by:
  7900 ;;		_programStates
  7901 ;; This function uses a non-reentrant model
  7902 ;;
  7903                           
  7904     0F13                     _printf:	
  7905                           ;psect for function _printf
  7906                           
  7907                           
  7908                           ;incstack = 0
  7909                           ; Regs used in _printf: [wreg-fsr1h+status,2+status,0+pclath+cstack]
  7910     0F13  306C               	movlw	(low ((?_printf| 0+2)))& (0+255)
  7911     0F14  00F9               	movwf	printf@ap
  7912     0F15  086B               	movf	printf@fmt+1,w
  7913     0F16  00E5               	movwf	vfprintf@fmt+1
  7914     0F17  086A               	movf	printf@fmt,w
  7915     0F18  00E4               	movwf	vfprintf@fmt
  7916     0F19  3079               	movlw	(low (printf@ap| 0))& (0+255)
  7917     0F1A  00E6               	movwf	vfprintf@ap
  7918     0F1B  3000               	movlw	0
  7919     0F1C  3187  27AB         	fcall	_vfprintf
  7920     0F1E  0008               	return
  7921     0F1F                     __end_of_printf:
  7922                           
  7923                           	psect	text29
  7924     07AB                     __ptext29:	
  7925 ;; *************** function _vfprintf *****************
  7926 ;; Defined at:
  7927 ;;		line 1520 in file "C:\Program Files\Microchip\xc8\v2.40\pic\sources\c99\common\doprnt.c"
  7928 ;; Parameters:    Size  Location     Type
  7929 ;;  fp              1    wreg     PTR struct _IO_FILE
  7930 ;;		 -> NULL(0), 
  7931 ;;  fmt             2   11[BANK0 ] PTR const unsigned char 
  7932 ;;		 -> STR_3(11), STR_2(11), STR_1(10), 
  7933 ;;  ap              1   13[BANK0 ] PTR PTR void 
  7934 ;;		 -> printf@ap(1), 
  7935 ;; Auto vars:     Size  Location     Type
  7936 ;;  fp              1   14[BANK0 ] PTR struct _IO_FILE
  7937 ;;		 -> NULL(0), 
  7938 ;;  cfmt            2   15[BANK0 ] PTR unsigned char 
  7939 ;;		 -> STR_3(11), STR_2(11), STR_1(10), 
  7940 ;; Return value:  Size  Location     Type
  7941 ;;                  2   11[BANK0 ] int 
  7942 ;; Registers used:
  7943 ;;		wreg, fsr0l, fsr0h, fsr1l, fsr1h, status,2, status,0, pclath, cstack
  7944 ;; Tracked objects:
  7945 ;;		On entry : 1F/0
  7946 ;;		On exit  : 1F/0
  7947 ;;		Unchanged: 0/0
  7948 ;; Data sizes:     COMMON   BANK0   BANK1   BANK2   BANK3   BANK4   BANK5   BANK6
  7949 ;;      Params:         0       3       0       0       0       0       0       0
  7950 ;;      Locals:         0       3       0       0       0       0       0       0
  7951 ;;      Temps:          1       0       0       0       0       0       0       0
  7952 ;;      Totals:         1       6       0       0       0       0       0       0
  7953 ;;Total ram usage:        7 bytes
  7954 ;; Hardware stack levels used: 1
  7955 ;; Hardware stack levels required when called: 8
  7956 ;; This function calls:
  7957 ;;		_vfpfcnvrt
  7958 ;; This function is called by:
  7959 ;;		_printf
  7960 ;; This function uses a non-reentrant model
  7961 ;;
  7962                           
  7963     07AB                     _vfprintf:	
  7964                           ;psect for function _vfprintf
  7965                           
  7966                           
  7967                           ;incstack = 0
  7968                           ; Regs used in _vfprintf: [wreg-fsr1h+status,2+status,0+pclath+cstack]
  7969                           ;vfprintf@fp stored from wreg
  7970     07AB  00E7               	movwf	vfprintf@fp
  7971                           
  7972                           ;C:\Program Files\Microchip\xc8\v2.40\pic\sources\c99\common\doprnt.c: 1520: int vfprint
      +                          f(FILE *fp, const char *fmt, va_list ap);C:\Program Files\Microchip\xc8\v2.40\pic\source
      +                          s\c99\common\doprnt.c: 1521: {;C:\Program Files\Microchip\xc8\v2.40\pic\sources\c99\comm
      +                          on\doprnt.c: 1523:     char *cfmt;;C:\Program Files\Microchip\xc8\v2.40\pic\sources\c99\
      +                          common\doprnt.c: 1525:     cfmt = (char *)fmt;
  7973     07AC  0865               	movf	vfprintf@fmt+1,w
  7974     07AD  00E9               	movwf	vfprintf@cfmt+1
  7975     07AE  0864               	movf	vfprintf@fmt,w
  7976     07AF  00E8               	movwf	vfprintf@cfmt
  7977     07B0                     l3845:	
  7978                           ;C:\Program Files\Microchip\xc8\v2.40\pic\sources\c99\common\doprnt.c: 1529:     while (
      +                          *cfmt) {
  7979                           
  7980                           
  7981                           ;C:\Program Files\Microchip\xc8\v2.40\pic\sources\c99\common\doprnt.c: 1529:     while (
      +                          *cfmt) {
  7982     07B0  0868               	movf	vfprintf@cfmt,w
  7983     07B1  0084               	movwf	4
  7984     07B2  0869               	movf	vfprintf@cfmt+1,w
  7985     07B3  0085               	movwf	5
  7986     07B4  0012               	moviw fsr0++
  7987     07B5  1903               	btfsc	3,2
  7988     07B6  2FC0               	goto	l3847
  7989                           
  7990                           ;C:\Program Files\Microchip\xc8\v2.40\pic\sources\c99\common\doprnt.c: 1533:    vfpfcnvr
      +                          t(fp, &cfmt, ap);
  7991     07B7  3068               	movlw	(low (vfprintf@cfmt| 0))& (0+255)
  7992     07B8  00DE               	movwf	vfpfcnvrt@fmt
  7993     07B9  0866               	movf	vfprintf@ap,w
  7994     07BA  00DF               	movwf	vfpfcnvrt@ap
  7995     07BB  0867               	movf	vfprintf@fp,w
  7996     07BC  3186  2660  3187   	fcall	_vfpfcnvrt
  7997     07BF  2FB0               	goto	l3845
  7998     07C0                     l3847:
  7999                           
  8000                           ;C:\Program Files\Microchip\xc8\v2.40\pic\sources\c99\common\doprnt.c: 1538:  return 0;
  8001     07C0  01E4               	clrf	?_vfprintf
  8002     07C1  01E5               	clrf	?_vfprintf+1
  8003     07C2  0008               	return
  8004     07C3                     __end_of_vfprintf:
  8005                           
  8006                           	psect	text30
  8007     0660                     __ptext30:	
  8008 ;; *************** function _vfpfcnvrt *****************
  8009 ;; Defined at:
  8010 ;;		line 1007 in file "C:\Program Files\Microchip\xc8\v2.40\pic\sources\c99\common\doprnt.c"
  8011 ;; Parameters:    Size  Location     Type
  8012 ;;  fp              1    wreg     PTR struct _IO_FILE
  8013 ;;		 -> NULL(0), 
  8014 ;;  fmt             1    5[BANK0 ] PTR PTR unsigned char 
  8015 ;;		 -> vfprintf@cfmt(2), 
  8016 ;;  ap              1    6[BANK0 ] PTR PTR void 
  8017 ;;		 -> printf@ap(1), 
  8018 ;; Auto vars:     Size  Location     Type
  8019 ;;  fp              1    7[COMMON] PTR struct _IO_FILE
  8020 ;;		 -> NULL(0), 
  8021 ;;  convarg         8    0        struct .
  8022 ;;  i               2    0        int 
  8023 ;;  done            2    0        int 
  8024 ;;  cp              2    0        PTR unsigned char 
  8025 ;;  c               1    0        unsigned char 
  8026 ;; Return value:  Size  Location     Type
  8027 ;;                  1    wreg      void 
  8028 ;; Registers used:
  8029 ;;		wreg, fsr0l, fsr0h, fsr1l, fsr1h, status,2, status,0, pclath, cstack
  8030 ;; Tracked objects:
  8031 ;;		On entry : 1F/0
  8032 ;;		On exit  : 1F/0
  8033 ;;		Unchanged: 0/0
  8034 ;; Data sizes:     COMMON   BANK0   BANK1   BANK2   BANK3   BANK4   BANK5   BANK6
  8035 ;;      Params:         0       2       0       0       0       0       0       0
  8036 ;;      Locals:         1       0       0       0       0       0       0       0
  8037 ;;      Temps:          0       4       0       0       0       0       0       0
  8038 ;;      Totals:         1       6       0       0       0       0       0       0
  8039 ;;Total ram usage:        7 bytes
  8040 ;; Hardware stack levels used: 1
  8041 ;; Hardware stack levels required when called: 7
  8042 ;; This function calls:
  8043 ;;		_fputc
  8044 ;; This function is called by:
  8045 ;;		_vfprintf
  8046 ;; This function uses a non-reentrant model
  8047 ;;
  8048                           
  8049     0660                     _vfpfcnvrt:	
  8050                           ;psect for function _vfpfcnvrt
  8051                           
  8052                           
  8053                           ;incstack = 0
  8054                           ; Regs used in _vfpfcnvrt: [wreg-fsr1h+status,2+status,0+pclath+cstack]
  8055                           ;vfpfcnvrt@fp stored from wreg
  8056     0660  00F7               	movwf	vfpfcnvrt@fp
  8057                           
  8058                           ;C:\Program Files\Microchip\xc8\v2.40\pic\sources\c99\common\doprnt.c: 1007: vfpfcnvrt(F
      +                          ILE *fp, char *fmt[], va_list ap);C:\Program Files\Microchip\xc8\v2.40\pic\sources\c99\c
      +                          ommon\doprnt.c: 1008: {;C:\Program Files\Microchip\xc8\v2.40\pic\sources\c99\common\dopr
      +                          nt.c: 1009:     char c, *cp;;C:\Program Files\Microchip\xc8\v2.40\pic\sources\c99\common
      +                          \doprnt.c: 1010:     int done, i;;C:\Program Files\Microchip\xc8\v2.40\pic\sources\c99\c
      +                          ommon\doprnt.c: 1016:  } convarg;;C:\Program Files\Microchip\xc8\v2.40\pic\sources\c99\c
      +                          ommon\doprnt.c: 1019:     if ((*fmt)[0] == '%') {
  8059     0661  085E               	movf	vfpfcnvrt@fmt,w
  8060     0662  0086               	movwf	6
  8061     0663  0187               	clrf	7
  8062     0664  3F40               	moviw [0]fsr1
  8063     0665  00E0               	movwf	??_vfpfcnvrt
  8064     0666  3F41               	moviw [1]fsr1
  8065     0667  00E1               	movwf	??_vfpfcnvrt+1
  8066     0668  0860               	movf	??_vfpfcnvrt,w
  8067     0669  0084               	movwf	4
  8068     066A  0861               	movf	??_vfpfcnvrt+1,w
  8069     066B  0085               	movwf	5
  8070     066C  0012               	moviw fsr0++
  8071     066D  3A25               	xorlw	37
  8072     066E  1D03               	btfss	3,2
  8073     066F  2E90               	goto	l3775
  8074                           
  8075                           ;C:\Program Files\Microchip\xc8\v2.40\pic\sources\c99\common\doprnt.c: 1020:         ++*
      +                          fmt;
  8076     0670  085E               	movf	vfpfcnvrt@fmt,w
  8077     0671  0086               	movwf	6
  8078     0672  0187               	clrf	7
  8079     0673  3001               	movlw	1
  8080     0674  0781               	addwf	1,f
  8081     0675  3141               	addfsr 1,1
  8082     0676  1803               	skipnc
  8083     0677  0A81               	incf	1,f
  8084                           
  8085                           ;C:\Program Files\Microchip\xc8\v2.40\pic\sources\c99\common\doprnt.c: 1022:         fla
      +                          gs = width = 0;
  8086     0678  0021               	movlb	1	; select bank1
  8087     0679  01D8               	clrf	_width^(0+128)
  8088     067A  01D9               	clrf	(_width+1)^(0+128)
  8089     067B  1003               	clrc
  8090     067C  3000               	movlw	0
  8091     067D  1803               	btfsc	3,0
  8092     067E  3001               	movlw	1
  8093     067F  0020               	movlb	0	; select bank0
  8094     0680  00C6               	movwf	_flags
  8095                           
  8096                           ;C:\Program Files\Microchip\xc8\v2.40\pic\sources\c99\common\doprnt.c: 1023:         pre
      +                          c = -1;
  8097     0681  30FF               	movlw	255
  8098     0682  0021               	movlb	1	; select bank1
  8099     0683  00DA               	movwf	_prec^(0+128)
  8100     0684  30FF               	movlw	255
  8101     0685  00DB               	movwf	(_prec^(0+128)+1)
  8102     0686                     l3771:
  8103                           
  8104                           ;C:\Program Files\Microchip\xc8\v2.40\pic\sources\c99\common\doprnt.c: 1509:         ++*
      +                          fmt;
  8105     0686  0020               	movlb	0	; select bank0
  8106     0687  085E               	movf	vfpfcnvrt@fmt,w
  8107     0688  0086               	movwf	6
  8108     0689  0187               	clrf	7
  8109     068A  3001               	movlw	1
  8110     068B  0781               	addwf	1,f
  8111     068C  3141               	addfsr 1,1
  8112     068D  1803               	skipnc
  8113     068E  0A81               	incf	1,f
  8114     068F  0008               	return
  8115     0690                     l3775:
  8116                           
  8117                           ;C:\Program Files\Microchip\xc8\v2.40\pic\sources\c99\common\doprnt.c: 1514:     fputc((
      +                          int)(*fmt)[0], fp);
  8118     0690  085E               	movf	vfpfcnvrt@fmt,w
  8119     0691  0086               	movwf	6
  8120     0692  0187               	clrf	7
  8121     0693  3F40               	moviw [0]fsr1
  8122     0694  00E0               	movwf	??_vfpfcnvrt
  8123     0695  3F41               	moviw [1]fsr1
  8124     0696  00E1               	movwf	??_vfpfcnvrt+1
  8125     0697  0860               	movf	??_vfpfcnvrt,w
  8126     0698  0084               	movwf	4
  8127     0699  0861               	movf	??_vfpfcnvrt+1,w
  8128     069A  0085               	movwf	5
  8129     069B  0800               	movf	0,w	;code access
  8130     069C  00E2               	movwf	??_vfpfcnvrt+2
  8131     069D  01E3               	clrf	??_vfpfcnvrt+3
  8132     069E  0862               	movf	??_vfpfcnvrt+2,w
  8133     069F  00F4               	movwf	fputc@c
  8134     06A0  0863               	movf	??_vfpfcnvrt+3,w
  8135     06A1  00F5               	movwf	fputc@c+1
  8136     06A2  0877               	movf	vfpfcnvrt@fp,w
  8137     06A3  00F6               	movwf	fputc@fp
  8138     06A4  3186  26E1  3186   	fcall	_fputc
  8139     06A7  2E86               	goto	l3771
  8140     06A8                     __end_of_vfpfcnvrt:
  8141                           
  8142                           	psect	text31
  8143     06E1                     __ptext31:	
  8144 ;; *************** function _fputc *****************
  8145 ;; Defined at:
  8146 ;;		line 8 in file "C:\Program Files\Microchip\xc8\v2.40\pic\sources\c99\common\nf_fputc.c"
  8147 ;; Parameters:    Size  Location     Type
  8148 ;;  c               2    4[COMMON] int 
  8149 ;;  fp              1    6[COMMON] PTR struct _IO_FILE
  8150 ;;		 -> NULL(0), 
  8151 ;; Auto vars:     Size  Location     Type
  8152 ;;		None
  8153 ;; Return value:  Size  Location     Type
  8154 ;;                  2    4[COMMON] int 
  8155 ;; Registers used:
  8156 ;;		wreg, fsr1l, fsr1h, status,2, status,0, pclath, cstack
  8157 ;; Tracked objects:
  8158 ;;		On entry : 1F/0
  8159 ;;		On exit  : 0/0
  8160 ;;		Unchanged: 0/0
  8161 ;; Data sizes:     COMMON   BANK0   BANK1   BANK2   BANK3   BANK4   BANK5   BANK6
  8162 ;;      Params:         3       0       0       0       0       0       0       0
  8163 ;;      Locals:         0       0       0       0       0       0       0       0
  8164 ;;      Temps:          0       5       0       0       0       0       0       0
  8165 ;;      Totals:         3       5       0       0       0       0       0       0
  8166 ;;Total ram usage:        8 bytes
  8167 ;; Hardware stack levels used: 1
  8168 ;; Hardware stack levels required when called: 6
  8169 ;; This function calls:
  8170 ;;		_putch
  8171 ;; This function is called by:
  8172 ;;		_vfpfcnvrt
  8173 ;; This function uses a non-reentrant model
  8174 ;;
  8175                           
  8176     06E1                     _fputc:	
  8177                           ;psect for function _fputc
  8178                           
  8179                           
  8180                           ;incstack = 0
  8181                           ; Regs used in _fputc: [wreg+fsr1l+fsr1h+status,2+status,0+pclath+cstack]
  8182     06E1  0876               	movf	fputc@fp,w
  8183     06E2  1D03               	btfss	3,2
  8184     06E3  0876               	movf	fputc@fp,w
  8185     06E4  1D03               	btfss	3,2
  8186     06E5  2EEA               	goto	l3731
  8187     06E6  0874               	movf	fputc@c,w
  8188     06E7  318E  2675         	fcall	_putch
  8189     06E9  0008               	return
  8190     06EA                     l3731:
  8191     06EA  0876               	movf	fputc@fp,w
  8192     06EB  3E08               	addlw	8
  8193     06EC  0086               	movwf	6
  8194     06ED  0187               	clrf	7
  8195     06EE  0016               	moviw fsr1++
  8196     06EF  0401               	iorwf	1,w
  8197     06F0  1903               	btfsc	3,2
  8198     06F1  2F0E               	goto	l3735
  8199     06F2  0876               	movf	fputc@fp,w
  8200     06F3  3E08               	addlw	8
  8201     06F4  0086               	movwf	6
  8202     06F5  0187               	clrf	7
  8203     06F6  3F40               	moviw [0]fsr1
  8204     06F7  00D9               	movwf	??_fputc
  8205     06F8  3F41               	moviw [1]fsr1
  8206     06F9  00DA               	movwf	??_fputc+1
  8207     06FA  0876               	movf	fputc@fp,w
  8208     06FB  3E02               	addlw	2
  8209     06FC  0086               	movwf	6
  8210     06FD  0187               	clrf	7
  8211     06FE  3F40               	moviw [0]fsr1
  8212     06FF  00DB               	movwf	??_fputc+2
  8213     0700  3F41               	moviw [1]fsr1
  8214     0701  00DC               	movwf	??_fputc+3
  8215     0702  085C               	movf	??_fputc+3,w
  8216     0703  3A80               	xorlw	128
  8217     0704  00DD               	movwf	??_fputc+4
  8218     0705  085A               	movf	??_fputc+1,w
  8219     0706  3A80               	xorlw	128
  8220     0707  025D               	subwf	??_fputc+4,w
  8221     0708  1D03               	skipz
  8222     0709  2F0C               	goto	u3155
  8223     070A  0859               	movf	??_fputc,w
  8224     070B  025B               	subwf	??_fputc+2,w
  8225     070C                     u3155:
  8226     070C  1803               	skipnc
  8227     070D  0008               	return
  8228     070E                     l3735:
  8229     070E  0876               	movf	fputc@fp,w
  8230     070F  3E02               	addlw	2
  8231     0710  0086               	movwf	6
  8232     0711  0187               	clrf	7
  8233     0712  3001               	movlw	1
  8234     0713  0781               	addwf	1,f
  8235     0714  3141               	addfsr 1,1
  8236     0715  1803               	skipnc
  8237     0716  0A81               	incf	1,f
  8238     0717  0008               	return
  8239     0718                     __end_of_fputc:
  8240                           
  8241                           	psect	text32
  8242     0E75                     __ptext32:	
  8243 ;; *************** function _putch *****************
  8244 ;; Defined at:
  8245 ;;		line 146 in file "mcc_generated_files/eusart.c"
  8246 ;; Parameters:    Size  Location     Type
  8247 ;;  txData          1    wreg     unsigned char 
  8248 ;; Auto vars:     Size  Location     Type
  8249 ;;  txData          1    3[COMMON] unsigned char 
  8250 ;; Return value:  Size  Location     Type
  8251 ;;                  1    wreg      void 
  8252 ;; Registers used:
  8253 ;;		wreg, status,2, status,0, pclath, cstack
  8254 ;; Tracked objects:
  8255 ;;		On entry : 1F/0
  8256 ;;		On exit  : 1F/3
  8257 ;;		Unchanged: 0/0
  8258 ;; Data sizes:     COMMON   BANK0   BANK1   BANK2   BANK3   BANK4   BANK5   BANK6
  8259 ;;      Params:         0       0       0       0       0       0       0       0
  8260 ;;      Locals:         1       0       0       0       0       0       0       0
  8261 ;;      Temps:          0       0       0       0       0       0       0       0
  8262 ;;      Totals:         1       0       0       0       0       0       0       0
  8263 ;;Total ram usage:        1 bytes
  8264 ;; Hardware stack levels used: 1
  8265 ;; Hardware stack levels required when called: 5
  8266 ;; This function calls:
  8267 ;;		_EUSART_Write
  8268 ;; This function is called by:
  8269 ;;		_fputc
  8270 ;; This function uses a non-reentrant model
  8271 ;;
  8272                           
  8273     0E75                     _putch:	
  8274                           ;psect for function _putch
  8275                           
  8276                           
  8277                           ;incstack = 0
  8278                           ; Regs used in _putch: [wreg+status,2+status,0+pclath+cstack]
  8279                           ;putch@txData stored from wreg
  8280     0E75  00F3               	movwf	putch@txData
  8281                           
  8282                           ;mcc_generated_files/eusart.c: 146: void putch(char txData);mcc_generated_files/eusart.c
      +                          : 147: {;mcc_generated_files/eusart.c: 148:     EUSART_Write(txData);
  8283     0E76  0873               	movf	putch@txData,w
  8284     0E77  318E  26D0         	fcall	_EUSART_Write
  8285     0E79  0008               	return
  8286     0E7A                     __end_of_putch:
  8287                           
  8288                           	psect	text33
  8289     0ED0                     __ptext33:	
  8290 ;; *************** function _EUSART_Write *****************
  8291 ;; Defined at:
  8292 ;;		line 132 in file "mcc_generated_files/eusart.c"
  8293 ;; Parameters:    Size  Location     Type
  8294 ;;  txData          1    wreg     unsigned char 
  8295 ;; Auto vars:     Size  Location     Type
  8296 ;;  txData          1    2[COMMON] unsigned char 
  8297 ;; Return value:  Size  Location     Type
  8298 ;;                  1    wreg      void 
  8299 ;; Registers used:
  8300 ;;		wreg
  8301 ;; Tracked objects:
  8302 ;;		On entry : 1F/0
  8303 ;;		On exit  : 1F/3
  8304 ;;		Unchanged: 0/0
  8305 ;; Data sizes:     COMMON   BANK0   BANK1   BANK2   BANK3   BANK4   BANK5   BANK6
  8306 ;;      Params:         0       0       0       0       0       0       0       0
  8307 ;;      Locals:         1       0       0       0       0       0       0       0
  8308 ;;      Temps:          0       0       0       0       0       0       0       0
  8309 ;;      Totals:         1       0       0       0       0       0       0       0
  8310 ;;Total ram usage:        1 bytes
  8311 ;; Hardware stack levels used: 1
  8312 ;; Hardware stack levels required when called: 4
  8313 ;; This function calls:
  8314 ;;		Nothing
  8315 ;; This function is called by:
  8316 ;;		_putch
  8317 ;; This function uses a non-reentrant model
  8318 ;;
  8319                           
  8320     0ED0                     _EUSART_Write:	
  8321                           ;psect for function _EUSART_Write
  8322                           
  8323                           
  8324                           ;incstack = 0
  8325                           ; Regs used in _EUSART_Write: [wreg]
  8326                           ;EUSART_Write@txData stored from wreg
  8327     0ED0  00F2               	movwf	EUSART_Write@txData
  8328     0ED1                     l42:	
  8329                           ;mcc_generated_files/eusart.c: 135:     {;mcc_generated_files/eusart.c: 136:     }
  8330                           
  8331                           
  8332                           ;mcc_generated_files/eusart.c: 134:     while(0 == PIR1bits.TXIF)
  8333     0ED1  1E11               	btfss	17,4	;volatile
  8334     0ED2  2ED1               	goto	l42
  8335                           
  8336                           ;mcc_generated_files/eusart.c: 138:     TXREG = txData;
  8337     0ED3  0872               	movf	EUSART_Write@txData,w
  8338     0ED4  0023               	movlb	3	; select bank3
  8339     0ED5  009A               	movwf	26	;volatile
  8340     0ED6  0008               	return
  8341     0ED7                     __end_of_EUSART_Write:
  8342                           
  8343                           	psect	text34
  8344     0718                     __ptext34:	
  8345 ;; *************** function _checkBattery *****************
  8346 ;; Defined at:
  8347 ;;		line 107 in file "main.c"
  8348 ;; Parameters:    Size  Location     Type
  8349 ;;		None
  8350 ;; Auto vars:     Size  Location     Type
  8351 ;;  battery_volt    2    2[COMMON] unsigned short 
  8352 ;; Return value:  Size  Location     Type
  8353 ;;                  1    wreg      void 
  8354 ;; Registers used:
  8355 ;;		wreg
  8356 ;; Tracked objects:
  8357 ;;		On entry : 0/0
  8358 ;;		On exit  : 1F/0
  8359 ;;		Unchanged: 0/0
  8360 ;; Data sizes:     COMMON   BANK0   BANK1   BANK2   BANK3   BANK4   BANK5   BANK6
  8361 ;;      Params:         0       0       0       0       0       0       0       0
  8362 ;;      Locals:         2       0       0       0       0       0       0       0
  8363 ;;      Temps:          0       0       0       0       0       0       0       0
  8364 ;;      Totals:         2       0       0       0       0       0       0       0
  8365 ;;Total ram usage:        2 bytes
  8366 ;; Hardware stack levels used: 1
  8367 ;; Hardware stack levels required when called: 4
  8368 ;; This function calls:
  8369 ;;		Nothing
  8370 ;; This function is called by:
  8371 ;;		_programStates
  8372 ;; This function uses a non-reentrant model
  8373 ;;
  8374                           
  8375     0718                     _checkBattery:	
  8376                           ;psect for function _checkBattery
  8377                           
  8378                           
  8379                           ;main.c: 109:     uint16_t battery_voltage;;main.c: 110:     battery_voltage = adc_value
      +                          ;
  8380                           
  8381                           ;incstack = 0
  8382                           ; Regs used in _checkBattery: [wreg]
  8383     0718  0020               	movlb	0	; select bank0
  8384     0719  0845               	movf	_adc_value+1,w
  8385     071A  00F3               	movwf	checkBattery@battery_voltage+1
  8386     071B  0844               	movf	_adc_value,w
  8387     071C  00F2               	movwf	checkBattery@battery_voltage
  8388                           
  8389                           ;main.c: 114:     if (battery_voltage >= 676)
  8390     071D  3002               	movlw	2
  8391     071E  0273               	subwf	checkBattery@battery_voltage+1,w
  8392     071F  30A4               	movlw	164
  8393     0720  1903               	skipnz
  8394     0721  0272               	subwf	checkBattery@battery_voltage,w
  8395     0722  1C03               	skipc
  8396     0723  2F26               	goto	l3855
  8397                           
  8398                           ;main.c: 115:     {;main.c: 116:         battery_status = (uint16_t)4;
  8399     0724  3004               	movlw	4
  8400     0725  2F45               	goto	L4
  8401     0726                     l3855:	
  8402                           ;main.c: 118:     }
  8403                           
  8404     0726  3002               	movlw	2
  8405     0727  0273               	subwf	checkBattery@battery_voltage+1,w
  8406     0728  30A4               	movlw	164
  8407     0729  1903               	skipnz
  8408     072A  0272               	subwf	checkBattery@battery_voltage,w
  8409     072B  1803               	skipnc
  8410     072C  2F36               	goto	l3861
  8411     072D  3002               	movlw	2
  8412     072E  0273               	subwf	checkBattery@battery_voltage+1,w
  8413     072F  307B               	movlw	123
  8414     0730  1903               	skipnz
  8415     0731  0272               	subwf	checkBattery@battery_voltage,w
  8416     0732  1C03               	skipc
  8417     0733  2F36               	goto	l3861
  8418                           
  8419                           ;main.c: 120:     {;main.c: 121:         battery_status = (uint8_t)3;
  8420     0734  3003               	movlw	3
  8421     0735  2F45               	goto	L4
  8422     0736                     l3861:	
  8423                           ;main.c: 123:     }
  8424                           
  8425     0736  3002               	movlw	2
  8426     0737  0273               	subwf	checkBattery@battery_voltage+1,w
  8427     0738  307B               	movlw	123
  8428     0739  1903               	skipnz
  8429     073A  0272               	subwf	checkBattery@battery_voltage,w
  8430     073B  1803               	skipnc
  8431     073C  2F47               	goto	l655
  8432     073D  3002               	movlw	2
  8433     073E  0273               	subwf	checkBattery@battery_voltage+1,w
  8434     073F  3047               	movlw	71
  8435     0740  1903               	skipnz
  8436     0741  0272               	subwf	checkBattery@battery_voltage,w
  8437     0742  1C03               	skipc
  8438     0743  2F47               	goto	l655
  8439                           
  8440                           ;main.c: 125:     {;main.c: 126:         battery_status = (uint8_t)2;
  8441     0744  3002               	movlw	2
  8442     0745                     L4:
  8443     0745  00FB               	movwf	_battery_status
  8444                           
  8445                           ;main.c: 128:     }
  8446     0746  2F49               	goto	l652
  8447     0747                     l655:	
  8448                           ;main.c: 129:     else
  8449                           
  8450                           
  8451                           ;main.c: 130:     {;main.c: 131:         battery_status = (uint8_t)1;
  8452     0747  01FB               	clrf	_battery_status
  8453     0748  0AFB               	incf	_battery_status,f
  8454     0749                     l652:
  8455                           
  8456                           ;main.c: 134:     batteryStatusUpdated = 1;
  8457     0749  01CE               	clrf	_batteryStatusUpdated
  8458     074A  0ACE               	incf	_batteryStatusUpdated,f
  8459     074B  0008               	return
  8460     074C                     __end_of_checkBattery:
  8461                           
  8462                           	psect	text35
  8463     074C                     __ptext35:	
  8464 ;; *************** function _SYSTEM_Initialize *****************
  8465 ;; Defined at:
  8466 ;;		line 50 in file "mcc_generated_files/mcc.c"
  8467 ;; Parameters:    Size  Location     Type
  8468 ;;		None
  8469 ;; Auto vars:     Size  Location     Type
  8470 ;;		None
  8471 ;; Return value:  Size  Location     Type
  8472 ;;                  1    wreg      void 
  8473 ;; Registers used:
  8474 ;;		wreg, status,2, status,0, pclath, cstack
  8475 ;; Tracked objects:
  8476 ;;		On entry : B1F/0
  8477 ;;		On exit  : 1F/0
  8478 ;;		Unchanged: 0/0
  8479 ;; Data sizes:     COMMON   BANK0   BANK1   BANK2   BANK3   BANK4   BANK5   BANK6
  8480 ;;      Params:         0       0       0       0       0       0       0       0
  8481 ;;      Locals:         0       0       0       0       0       0       0       0
  8482 ;;      Temps:          0       0       0       0       0       0       0       0
  8483 ;;      Totals:         0       0       0       0       0       0       0       0
  8484 ;;Total ram usage:        0 bytes
  8485 ;; Hardware stack levels used: 1
  8486 ;; Hardware stack levels required when called: 6
  8487 ;; This function calls:
  8488 ;;		_ADC1_Initialize
  8489 ;;		_EUSART_Initialize
  8490 ;;		_FVR_Initialize
  8491 ;;		_OSCILLATOR_Initialize
  8492 ;;		_PIN_MANAGER_Initialize
  8493 ;;		_PWM1_Initialize
  8494 ;;		_PWM2_Initialize
  8495 ;;		_PWM3_Initialize
  8496 ;;		_PWM4_Initialize
  8497 ;;		_TMR0_Initialize
  8498 ;;		_TMR1_Initialize
  8499 ;;		_WDT_Initialize
  8500 ;; This function is called by:
  8501 ;;		_main
  8502 ;; This function uses a non-reentrant model
  8503 ;;
  8504                           
  8505     074C                     _SYSTEM_Initialize:	
  8506                           ;psect for function _SYSTEM_Initialize
  8507                           
  8508                           
  8509                           ;mcc_generated_files/mcc.c: 53:     PIN_MANAGER_Initialize();
  8510                           
  8511                           ;incstack = 0
  8512                           ; Regs used in _SYSTEM_Initialize: [wreg+status,2+status,0+pclath+cstack]
  8513     074C  3186  26A8  3187   	fcall	_PIN_MANAGER_Initialize
  8514                           
  8515                           ;mcc_generated_files/mcc.c: 54:     OSCILLATOR_Initialize();
  8516     074F  318E  26C9  3187   	fcall	_OSCILLATOR_Initialize
  8517                           
  8518                           ;mcc_generated_files/mcc.c: 55:     WDT_Initialize();
  8519     0752  318E  2662  3187   	fcall	_WDT_Initialize
  8520                           
  8521                           ;mcc_generated_files/mcc.c: 56:     FVR_Initialize();
  8522     0755  318E  265E  3187   	fcall	_FVR_Initialize
  8523                           
  8524                           ;mcc_generated_files/mcc.c: 57:     PWM1_Initialize();
  8525     0758  3187  2792  3187   	fcall	_PWM1_Initialize
  8526                           
  8527                           ;mcc_generated_files/mcc.c: 58:     PWM2_Initialize();
  8528     075B  318F  27A1  3187   	fcall	_PWM2_Initialize
  8529                           
  8530                           ;mcc_generated_files/mcc.c: 59:     ADC1_Initialize();
  8531     075E  318F  2748  3187   	fcall	_ADC1_Initialize
  8532                           
  8533                           ;mcc_generated_files/mcc.c: 60:     PWM4_Initialize();
  8534     0761  3187  27C3  3187   	fcall	_PWM4_Initialize
  8535                           
  8536                           ;mcc_generated_files/mcc.c: 61:     PWM3_Initialize();
  8537     0764  318F  27B4  3187   	fcall	_PWM3_Initialize
  8538                           
  8539                           ;mcc_generated_files/mcc.c: 62:     TMR1_Initialize();
  8540     0767  318F  2759  3187   	fcall	_TMR1_Initialize
  8541                           
  8542                           ;mcc_generated_files/mcc.c: 63:     TMR0_Initialize();
  8543     076A  318F  27C7  3187   	fcall	_TMR0_Initialize
  8544                           
  8545                           ;mcc_generated_files/mcc.c: 64:     EUSART_Initialize();
  8546     076D  3187  2770         	fcall	_EUSART_Initialize
  8547     076F  0008               	return
  8548     0770                     __end_of_SYSTEM_Initialize:
  8549                           
  8550                           	psect	text36
  8551     0E62                     __ptext36:	
  8552 ;; *************** function _WDT_Initialize *****************
  8553 ;; Defined at:
  8554 ;;		line 77 in file "mcc_generated_files/mcc.c"
  8555 ;; Parameters:    Size  Location     Type
  8556 ;;		None
  8557 ;; Auto vars:     Size  Location     Type
  8558 ;;		None
  8559 ;; Return value:  Size  Location     Type
  8560 ;;                  1    wreg      void 
  8561 ;; Registers used:
  8562 ;;		wreg
  8563 ;; Tracked objects:
  8564 ;;		On entry : 1F/2
  8565 ;;		On exit  : 1F/1
  8566 ;;		Unchanged: 0/0
  8567 ;; Data sizes:     COMMON   BANK0   BANK1   BANK2   BANK3   BANK4   BANK5   BANK6
  8568 ;;      Params:         0       0       0       0       0       0       0       0
  8569 ;;      Locals:         0       0       0       0       0       0       0       0
  8570 ;;      Temps:          0       0       0       0       0       0       0       0
  8571 ;;      Totals:         0       0       0       0       0       0       0       0
  8572 ;;Total ram usage:        0 bytes
  8573 ;; Hardware stack levels used: 1
  8574 ;; Hardware stack levels required when called: 4
  8575 ;; This function calls:
  8576 ;;		Nothing
  8577 ;; This function is called by:
  8578 ;;		_SYSTEM_Initialize
  8579 ;; This function uses a non-reentrant model
  8580 ;;
  8581                           
  8582     0E62                     _WDT_Initialize:	
  8583                           ;psect for function _WDT_Initialize
  8584                           
  8585                           
  8586                           ;mcc_generated_files/mcc.c: 80:     WDTCON = 0x16;
  8587                           
  8588                           ;incstack = 0
  8589                           ; Regs used in _WDT_Initialize: [wreg]
  8590     0E62  3016               	movlw	22
  8591     0E63  0021               	movlb	1	; select bank1
  8592     0E64  0097               	movwf	23	;volatile
  8593     0E65  0008               	return
  8594     0E66                     __end_of_WDT_Initialize:
  8595                           
  8596                           	psect	text37
  8597     0F59                     __ptext37:	
  8598 ;; *************** function _TMR1_Initialize *****************
  8599 ;; Defined at:
  8600 ;;		line 63 in file "mcc_generated_files/tmr1.c"
  8601 ;; Parameters:    Size  Location     Type
  8602 ;;		None
  8603 ;; Auto vars:     Size  Location     Type
  8604 ;;		None
  8605 ;; Return value:  Size  Location     Type
  8606 ;;                  1    wreg      void 
  8607 ;; Registers used:
  8608 ;;		wreg, status,2
  8609 ;; Tracked objects:
  8610 ;;		On entry : 1F/1B
  8611 ;;		On exit  : 1F/0
  8612 ;;		Unchanged: 0/0
  8613 ;; Data sizes:     COMMON   BANK0   BANK1   BANK2   BANK3   BANK4   BANK5   BANK6
  8614 ;;      Params:         0       0       0       0       0       0       0       0
  8615 ;;      Locals:         0       0       0       0       0       0       0       0
  8616 ;;      Temps:          0       0       0       0       0       0       0       0
  8617 ;;      Totals:         0       0       0       0       0       0       0       0
  8618 ;;Total ram usage:        0 bytes
  8619 ;; Hardware stack levels used: 1
  8620 ;; Hardware stack levels required when called: 4
  8621 ;; This function calls:
  8622 ;;		Nothing
  8623 ;; This function is called by:
  8624 ;;		_SYSTEM_Initialize
  8625 ;; This function uses a non-reentrant model
  8626 ;;
  8627                           
  8628     0F59                     _TMR1_Initialize:	
  8629                           ;psect for function _TMR1_Initialize
  8630                           
  8631                           
  8632                           ;mcc_generated_files/tmr1.c: 68:     T1GCON = 0x00;
  8633                           
  8634                           ;incstack = 0
  8635                           ; Regs used in _TMR1_Initialize: [wreg+status,2]
  8636     0F59  0020               	movlb	0	; select bank0
  8637     0F5A  0199               	clrf	25	;volatile
  8638                           
  8639                           ;mcc_generated_files/tmr1.c: 71:     TMR1H = 0xB1;
  8640     0F5B  30B1               	movlw	177
  8641     0F5C  0097               	movwf	23	;volatile
  8642                           
  8643                           ;mcc_generated_files/tmr1.c: 74:     TMR1L = 0xE0;
  8644     0F5D  30E0               	movlw	224
  8645     0F5E  0096               	movwf	22	;volatile
  8646                           
  8647                           ;mcc_generated_files/tmr1.c: 77:     PIR1bits.TMR1IF = 0;
  8648     0F5F  1011               	bcf	17,0	;volatile
  8649                           
  8650                           ;mcc_generated_files/tmr1.c: 80:     timer1ReloadVal=(uint16_t)((TMR1H << 8) | TMR1L);
  8651     0F60  0817               	movf	23,w	;volatile
  8652     0F61  0021               	movlb	1	; select bank1
  8653     0F62  00DF               	movwf	(_timer1ReloadVal+1)^(0+128)	;volatile
  8654     0F63  0020               	movlb	0	; select bank0
  8655     0F64  0816               	movf	22,w	;volatile
  8656     0F65  0021               	movlb	1	; select bank1
  8657     0F66  00DE               	movwf	_timer1ReloadVal^(0+128)	;volatile
  8658                           
  8659                           ;mcc_generated_files/tmr1.c: 83:     T1CON = 0x11;
  8660     0F67  3011               	movlw	17
  8661     0F68  0020               	movlb	0	; select bank0
  8662     0F69  0098               	movwf	24	;volatile
  8663     0F6A  0008               	return
  8664     0F6B                     __end_of_TMR1_Initialize:
  8665                           
  8666                           	psect	text38
  8667     0FC7                     __ptext38:	
  8668 ;; *************** function _TMR0_Initialize *****************
  8669 ;; Defined at:
  8670 ;;		line 64 in file "mcc_generated_files/tmr0.c"
  8671 ;; Parameters:    Size  Location     Type
  8672 ;;		None
  8673 ;; Auto vars:     Size  Location     Type
  8674 ;;		None
  8675 ;; Return value:  Size  Location     Type
  8676 ;;                  1    wreg      void 
  8677 ;; Registers used:
  8678 ;;		wreg, status,2, status,0, pclath, cstack
  8679 ;; Tracked objects:
  8680 ;;		On entry : 1F/0
  8681 ;;		On exit  : 1F/1
  8682 ;;		Unchanged: 0/0
  8683 ;; Data sizes:     COMMON   BANK0   BANK1   BANK2   BANK3   BANK4   BANK5   BANK6
  8684 ;;      Params:         0       0       0       0       0       0       0       0
  8685 ;;      Locals:         0       0       0       0       0       0       0       0
  8686 ;;      Temps:          0       0       0       0       0       0       0       0
  8687 ;;      Totals:         0       0       0       0       0       0       0       0
  8688 ;;Total ram usage:        0 bytes
  8689 ;; Hardware stack levels used: 1
  8690 ;; Hardware stack levels required when called: 5
  8691 ;; This function calls:
  8692 ;;		_TMR0_SetInterruptHandler
  8693 ;; This function is called by:
  8694 ;;		_SYSTEM_Initialize
  8695 ;; This function uses a non-reentrant model
  8696 ;;
  8697                           
  8698     0FC7                     _TMR0_Initialize:	
  8699                           ;psect for function _TMR0_Initialize
  8700                           
  8701                           
  8702                           ;mcc_generated_files/tmr0.c: 69:     OPTION_REG = (uint8_t)((OPTION_REG & 0xC0) | (0xD7 
      +                          & 0x3F));
  8703                           
  8704                           ;incstack = 0
  8705                           ; Regs used in _TMR0_Initialize: [wreg+status,2+status,0+pclath+cstack]
  8706     0FC7  0021               	movlb	1	; select bank1
  8707     0FC8  0815               	movf	21,w	;volatile
  8708     0FC9  39C0               	andlw	192
  8709     0FCA  3817               	iorlw	23
  8710     0FCB  0095               	movwf	21	;volatile
  8711                           
  8712                           ;mcc_generated_files/tmr0.c: 72:     TMR0 = 0x64;
  8713     0FCC  3064               	movlw	100
  8714     0FCD  0020               	movlb	0	; select bank0
  8715     0FCE  0095               	movwf	21	;volatile
  8716                           
  8717                           ;mcc_generated_files/tmr0.c: 75:     timer0ReloadVal= 100;
  8718     0FCF  3064               	movlw	100
  8719     0FD0  00EE               	movwf	_timer0ReloadVal	;volatile
  8720                           
  8721                           ;mcc_generated_files/tmr0.c: 78:     INTCONbits.TMR0IF = 0;
  8722     0FD1  110B               	bcf	11,2	;volatile
  8723                           
  8724                           ;mcc_generated_files/tmr0.c: 81:     INTCONbits.TMR0IE = 1;
  8725     0FD2  168B               	bsf	11,5	;volatile
  8726                           
  8727                           ;mcc_generated_files/tmr0.c: 84:     TMR0_SetInterruptHandler(TMR0_DefaultInterruptHandl
      +                          er);
  8728     0FD3  3043               	movlw	low _TMR0_DefaultInterruptHandler
  8729     0FD4  00F2               	movwf	TMR0_SetInterruptHandler@InterruptHandler
  8730     0FD5  300E               	movlw	high _TMR0_DefaultInterruptHandler
  8731     0FD6  00F3               	movwf	TMR0_SetInterruptHandler@InterruptHandler+1
  8732     0FD7  318E  2698         	fcall	_TMR0_SetInterruptHandler
  8733     0FD9  0008               	return
  8734     0FDA                     __end_of_TMR0_Initialize:
  8735                           
  8736                           	psect	text39
  8737     0E98                     __ptext39:	
  8738 ;; *************** function _TMR0_SetInterruptHandler *****************
  8739 ;; Defined at:
  8740 ;;		line 133 in file "mcc_generated_files/tmr0.c"
  8741 ;; Parameters:    Size  Location     Type
  8742 ;;  InterruptHan    2    2[COMMON] PTR FTN()void 
  8743 ;;		 -> timer0ISR(1), TMR0_DefaultInterruptHandler(1), 
  8744 ;; Auto vars:     Size  Location     Type
  8745 ;;		None
  8746 ;; Return value:  Size  Location     Type
  8747 ;;                  1    wreg      void 
  8748 ;; Registers used:
  8749 ;;		wreg
  8750 ;; Tracked objects:
  8751 ;;		On entry : 1E/1
  8752 ;;		On exit  : 1F/1
  8753 ;;		Unchanged: 0/0
  8754 ;; Data sizes:     COMMON   BANK0   BANK1   BANK2   BANK3   BANK4   BANK5   BANK6
  8755 ;;      Params:         2       0       0       0       0       0       0       0
  8756 ;;      Locals:         0       0       0       0       0       0       0       0
  8757 ;;      Temps:          0       0       0       0       0       0       0       0
  8758 ;;      Totals:         2       0       0       0       0       0       0       0
  8759 ;;Total ram usage:        2 bytes
  8760 ;; Hardware stack levels used: 1
  8761 ;; Hardware stack levels required when called: 4
  8762 ;; This function calls:
  8763 ;;		Nothing
  8764 ;; This function is called by:
  8765 ;;		_TMR0_Initialize
  8766 ;;		_main
  8767 ;; This function uses a non-reentrant model
  8768 ;;
  8769                           
  8770     0E98                     _TMR0_SetInterruptHandler:	
  8771                           ;psect for function _TMR0_SetInterruptHandler
  8772                           
  8773                           
  8774                           ;mcc_generated_files/tmr0.c: 134:     TMR0_InterruptHandler = InterruptHandler;
  8775                           
  8776                           ;incstack = 0
  8777                           ; Regs used in _TMR0_SetInterruptHandler: [wreg]
  8778     0E98  0873               	movf	TMR0_SetInterruptHandler@InterruptHandler+1,w
  8779     0E99  0021               	movlb	1	; select bank1
  8780     0E9A  00E3               	movwf	(_TMR0_InterruptHandler+1)^(0+128)
  8781     0E9B  0872               	movf	TMR0_SetInterruptHandler@InterruptHandler,w
  8782     0E9C  00E2               	movwf	_TMR0_InterruptHandler^(0+128)
  8783     0E9D  0008               	return
  8784     0E9E                     __end_of_TMR0_SetInterruptHandler:
  8785                           
  8786                           	psect	text40
  8787     07C3                     __ptext40:	
  8788 ;; *************** function _PWM4_Initialize *****************
  8789 ;; Defined at:
  8790 ;;		line 58 in file "mcc_generated_files/pwm4.c"
  8791 ;; Parameters:    Size  Location     Type
  8792 ;;		None
  8793 ;; Auto vars:     Size  Location     Type
  8794 ;;		None
  8795 ;; Return value:  Size  Location     Type
  8796 ;;                  1    wreg      void 
  8797 ;; Registers used:
  8798 ;;		wreg, status,2
  8799 ;; Tracked objects:
  8800 ;;		On entry : 1F/1
  8801 ;;		On exit  : 1F/1B
  8802 ;;		Unchanged: 0/0
  8803 ;; Data sizes:     COMMON   BANK0   BANK1   BANK2   BANK3   BANK4   BANK5   BANK6
  8804 ;;      Params:         0       0       0       0       0       0       0       0
  8805 ;;      Locals:         0       0       0       0       0       0       0       0
  8806 ;;      Temps:          0       0       0       0       0       0       0       0
  8807 ;;      Totals:         0       0       0       0       0       0       0       0
  8808 ;;Total ram usage:        0 bytes
  8809 ;; Hardware stack levels used: 1
  8810 ;; Hardware stack levels required when called: 4
  8811 ;; This function calls:
  8812 ;;		Nothing
  8813 ;; This function is called by:
  8814 ;;		_SYSTEM_Initialize
  8815 ;; This function uses a non-reentrant model
  8816 ;;
  8817                           
  8818     07C3                     _PWM4_Initialize:	
  8819                           ;psect for function _PWM4_Initialize
  8820                           
  8821                           
  8822                           ;mcc_generated_files/pwm4.c: 63:     PWM4INTE = 0x00;
  8823                           
  8824                           ;incstack = 0
  8825                           ; Regs used in _PWM4_Initialize: [wreg+status,2]
  8826     07C3  003B               	movlb	27	; select bank27
  8827     07C4  01CC               	clrf	76	;volatile
  8828                           
  8829                           ;mcc_generated_files/pwm4.c: 66:     PWM4INTF = 0x00;
  8830     07C5  01CD               	clrf	77	;volatile
  8831                           
  8832                           ;mcc_generated_files/pwm4.c: 69:     PWM4CLKCON = 0x00;
  8833     07C6  01CE               	clrf	78	;volatile
  8834                           
  8835                           ;mcc_generated_files/pwm4.c: 72:     PWM4LDCON = 0x80;
  8836     07C7  3080               	movlw	128
  8837     07C8  00CF               	movwf	79	;volatile
  8838                           
  8839                           ;mcc_generated_files/pwm4.c: 75:     PWM4OFCON = 0x00;
  8840     07C9  01D0               	clrf	80	;volatile
  8841                           
  8842                           ;mcc_generated_files/pwm4.c: 78:     PWM4PHH = 0x00;
  8843     07CA  01C2               	clrf	66	;volatile
  8844                           
  8845                           ;mcc_generated_files/pwm4.c: 81:     PWM4PHL = 0x00;
  8846     07CB  01C1               	clrf	65	;volatile
  8847                           
  8848                           ;mcc_generated_files/pwm4.c: 84:     PWM4DCH = 0x00;
  8849     07CC  01C4               	clrf	68	;volatile
  8850                           
  8851                           ;mcc_generated_files/pwm4.c: 87:     PWM4DCL = 0x00;
  8852     07CD  01C3               	clrf	67	;volatile
  8853                           
  8854                           ;mcc_generated_files/pwm4.c: 90:     PWM4PRH = 0x7D;
  8855     07CE  307D               	movlw	125
  8856     07CF  00C6               	movwf	70	;volatile
  8857                           
  8858                           ;mcc_generated_files/pwm4.c: 93:     PWM4PRL = 0x00;
  8859     07D0  01C5               	clrf	69	;volatile
  8860                           
  8861                           ;mcc_generated_files/pwm4.c: 96:     PWM4OFH = 0x00;
  8862     07D1  01C8               	clrf	72	;volatile
  8863                           
  8864                           ;mcc_generated_files/pwm4.c: 99:     PWM4OFL = 0x1F;
  8865     07D2  301F               	movlw	31
  8866     07D3  00C7               	movwf	71	;volatile
  8867                           
  8868                           ;mcc_generated_files/pwm4.c: 102:     PWM4TMRH = 0x00;
  8869     07D4  01CA               	clrf	74	;volatile
  8870                           
  8871                           ;mcc_generated_files/pwm4.c: 105:     PWM4TMRL = 0x00;
  8872     07D5  01C9               	clrf	73	;volatile
  8873     07D6  0008               	return
  8874     07D7                     __end_of_PWM4_Initialize:
  8875                           
  8876                           	psect	text41
  8877     0FB4                     __ptext41:	
  8878 ;; *************** function _PWM3_Initialize *****************
  8879 ;; Defined at:
  8880 ;;		line 58 in file "mcc_generated_files/pwm3.c"
  8881 ;; Parameters:    Size  Location     Type
  8882 ;;		None
  8883 ;; Auto vars:     Size  Location     Type
  8884 ;;		None
  8885 ;; Return value:  Size  Location     Type
  8886 ;;                  1    wreg      void 
  8887 ;; Registers used:
  8888 ;;		wreg, status,2
  8889 ;; Tracked objects:
  8890 ;;		On entry : 1F/1B
  8891 ;;		On exit  : 1F/1B
  8892 ;;		Unchanged: 0/0
  8893 ;; Data sizes:     COMMON   BANK0   BANK1   BANK2   BANK3   BANK4   BANK5   BANK6
  8894 ;;      Params:         0       0       0       0       0       0       0       0
  8895 ;;      Locals:         0       0       0       0       0       0       0       0
  8896 ;;      Temps:          0       0       0       0       0       0       0       0
  8897 ;;      Totals:         0       0       0       0       0       0       0       0
  8898 ;;Total ram usage:        0 bytes
  8899 ;; Hardware stack levels used: 1
  8900 ;; Hardware stack levels required when called: 4
  8901 ;; This function calls:
  8902 ;;		Nothing
  8903 ;; This function is called by:
  8904 ;;		_SYSTEM_Initialize
  8905 ;; This function uses a non-reentrant model
  8906 ;;
  8907                           
  8908     0FB4                     _PWM3_Initialize:	
  8909                           ;psect for function _PWM3_Initialize
  8910                           
  8911                           
  8912                           ;mcc_generated_files/pwm3.c: 63:     PWM3INTE = 0x00;
  8913                           
  8914                           ;incstack = 0
  8915                           ; Regs used in _PWM3_Initialize: [wreg+status,2]
  8916     0FB4  01BC               	clrf	60	;volatile
  8917                           
  8918                           ;mcc_generated_files/pwm3.c: 66:     PWM3INTF = 0x00;
  8919     0FB5  01BD               	clrf	61	;volatile
  8920                           
  8921                           ;mcc_generated_files/pwm3.c: 69:     PWM3CLKCON = 0x00;
  8922     0FB6  01BE               	clrf	62	;volatile
  8923                           
  8924                           ;mcc_generated_files/pwm3.c: 72:     PWM3LDCON = 0x80;
  8925     0FB7  3080               	movlw	128
  8926     0FB8  00BF               	movwf	63	;volatile
  8927                           
  8928                           ;mcc_generated_files/pwm3.c: 75:     PWM3OFCON = 0x00;
  8929     0FB9  01C0               	clrf	64	;volatile
  8930                           
  8931                           ;mcc_generated_files/pwm3.c: 78:     PWM3PHH = 0x00;
  8932     0FBA  01B2               	clrf	50	;volatile
  8933                           
  8934                           ;mcc_generated_files/pwm3.c: 81:     PWM3PHL = 0x00;
  8935     0FBB  01B1               	clrf	49	;volatile
  8936                           
  8937                           ;mcc_generated_files/pwm3.c: 84:     PWM3DCH = 0x00;
  8938     0FBC  01B4               	clrf	52	;volatile
  8939                           
  8940                           ;mcc_generated_files/pwm3.c: 87:     PWM3DCL = 0x00;
  8941     0FBD  01B3               	clrf	51	;volatile
  8942                           
  8943                           ;mcc_generated_files/pwm3.c: 90:     PWM3PRH = 0x7D;
  8944     0FBE  307D               	movlw	125
  8945     0FBF  00B6               	movwf	54	;volatile
  8946                           
  8947                           ;mcc_generated_files/pwm3.c: 93:     PWM3PRL = 0x00;
  8948     0FC0  01B5               	clrf	53	;volatile
  8949                           
  8950                           ;mcc_generated_files/pwm3.c: 96:     PWM3OFH = 0x00;
  8951     0FC1  01B8               	clrf	56	;volatile
  8952                           
  8953                           ;mcc_generated_files/pwm3.c: 99:     PWM3OFL = 0x1F;
  8954     0FC2  301F               	movlw	31
  8955     0FC3  00B7               	movwf	55	;volatile
  8956                           
  8957                           ;mcc_generated_files/pwm3.c: 102:     PWM3TMRH = 0x00;
  8958     0FC4  01BA               	clrf	58	;volatile
  8959                           
  8960                           ;mcc_generated_files/pwm3.c: 105:     PWM3TMRL = 0x00;
  8961     0FC5  01B9               	clrf	57	;volatile
  8962     0FC6  0008               	return
  8963     0FC7                     __end_of_PWM3_Initialize:
  8964                           
  8965                           	psect	text42
  8966     0FA1                     __ptext42:	
  8967 ;; *************** function _PWM2_Initialize *****************
  8968 ;; Defined at:
  8969 ;;		line 58 in file "mcc_generated_files/pwm2.c"
  8970 ;; Parameters:    Size  Location     Type
  8971 ;;		None
  8972 ;; Auto vars:     Size  Location     Type
  8973 ;;		None
  8974 ;; Return value:  Size  Location     Type
  8975 ;;                  1    wreg      void 
  8976 ;; Registers used:
  8977 ;;		wreg, status,2
  8978 ;; Tracked objects:
  8979 ;;		On entry : 1F/1B
  8980 ;;		On exit  : 1F/1B
  8981 ;;		Unchanged: 0/0
  8982 ;; Data sizes:     COMMON   BANK0   BANK1   BANK2   BANK3   BANK4   BANK5   BANK6
  8983 ;;      Params:         0       0       0       0       0       0       0       0
  8984 ;;      Locals:         0       0       0       0       0       0       0       0
  8985 ;;      Temps:          0       0       0       0       0       0       0       0
  8986 ;;      Totals:         0       0       0       0       0       0       0       0
  8987 ;;Total ram usage:        0 bytes
  8988 ;; Hardware stack levels used: 1
  8989 ;; Hardware stack levels required when called: 4
  8990 ;; This function calls:
  8991 ;;		Nothing
  8992 ;; This function is called by:
  8993 ;;		_SYSTEM_Initialize
  8994 ;; This function uses a non-reentrant model
  8995 ;;
  8996                           
  8997     0FA1                     _PWM2_Initialize:	
  8998                           ;psect for function _PWM2_Initialize
  8999                           
  9000                           
  9001                           ;mcc_generated_files/pwm2.c: 63:     PWM2INTE = 0x00;
  9002                           
  9003                           ;incstack = 0
  9004                           ; Regs used in _PWM2_Initialize: [wreg+status,2]
  9005     0FA1  01AC               	clrf	44	;volatile
  9006                           
  9007                           ;mcc_generated_files/pwm2.c: 66:     PWM2INTF = 0x00;
  9008     0FA2  01AD               	clrf	45	;volatile
  9009                           
  9010                           ;mcc_generated_files/pwm2.c: 69:     PWM2CLKCON = 0x00;
  9011     0FA3  01AE               	clrf	46	;volatile
  9012                           
  9013                           ;mcc_generated_files/pwm2.c: 72:     PWM2LDCON = 0x80;
  9014     0FA4  3080               	movlw	128
  9015     0FA5  00AF               	movwf	47	;volatile
  9016                           
  9017                           ;mcc_generated_files/pwm2.c: 75:     PWM2OFCON = 0x00;
  9018     0FA6  01B0               	clrf	48	;volatile
  9019                           
  9020                           ;mcc_generated_files/pwm2.c: 78:     PWM2PHH = 0x00;
  9021     0FA7  01A2               	clrf	34	;volatile
  9022                           
  9023                           ;mcc_generated_files/pwm2.c: 81:     PWM2PHL = 0x00;
  9024     0FA8  01A1               	clrf	33	;volatile
  9025                           
  9026                           ;mcc_generated_files/pwm2.c: 84:     PWM2DCH = 0x00;
  9027     0FA9  01A4               	clrf	36	;volatile
  9028                           
  9029                           ;mcc_generated_files/pwm2.c: 87:     PWM2DCL = 0x00;
  9030     0FAA  01A3               	clrf	35	;volatile
  9031                           
  9032                           ;mcc_generated_files/pwm2.c: 90:     PWM2PRH = 0x7D;
  9033     0FAB  307D               	movlw	125
  9034     0FAC  00A6               	movwf	38	;volatile
  9035                           
  9036                           ;mcc_generated_files/pwm2.c: 93:     PWM2PRL = 0x00;
  9037     0FAD  01A5               	clrf	37	;volatile
  9038                           
  9039                           ;mcc_generated_files/pwm2.c: 96:     PWM2OFH = 0x00;
  9040     0FAE  01A8               	clrf	40	;volatile
  9041                           
  9042                           ;mcc_generated_files/pwm2.c: 99:     PWM2OFL = 0x1F;
  9043     0FAF  301F               	movlw	31
  9044     0FB0  00A7               	movwf	39	;volatile
  9045                           
  9046                           ;mcc_generated_files/pwm2.c: 102:     PWM2TMRH = 0x00;
  9047     0FB1  01AA               	clrf	42	;volatile
  9048                           
  9049                           ;mcc_generated_files/pwm2.c: 105:     PWM2TMRL = 0x00;
  9050     0FB2  01A9               	clrf	41	;volatile
  9051     0FB3  0008               	return
  9052     0FB4                     __end_of_PWM2_Initialize:
  9053                           
  9054                           	psect	text43
  9055     0792                     __ptext43:	
  9056 ;; *************** function _PWM1_Initialize *****************
  9057 ;; Defined at:
  9058 ;;		line 58 in file "mcc_generated_files/pwm1.c"
  9059 ;; Parameters:    Size  Location     Type
  9060 ;;		None
  9061 ;; Auto vars:     Size  Location     Type
  9062 ;;		None
  9063 ;; Return value:  Size  Location     Type
  9064 ;;                  1    wreg      void 
  9065 ;; Registers used:
  9066 ;;		wreg, status,2
  9067 ;; Tracked objects:
  9068 ;;		On entry : 1F/2
  9069 ;;		On exit  : 1F/1B
  9070 ;;		Unchanged: 0/0
  9071 ;; Data sizes:     COMMON   BANK0   BANK1   BANK2   BANK3   BANK4   BANK5   BANK6
  9072 ;;      Params:         0       0       0       0       0       0       0       0
  9073 ;;      Locals:         0       0       0       0       0       0       0       0
  9074 ;;      Temps:          0       0       0       0       0       0       0       0
  9075 ;;      Totals:         0       0       0       0       0       0       0       0
  9076 ;;Total ram usage:        0 bytes
  9077 ;; Hardware stack levels used: 1
  9078 ;; Hardware stack levels required when called: 4
  9079 ;; This function calls:
  9080 ;;		Nothing
  9081 ;; This function is called by:
  9082 ;;		_SYSTEM_Initialize
  9083 ;; This function uses a non-reentrant model
  9084 ;;
  9085                           
  9086     0792                     _PWM1_Initialize:	
  9087                           ;psect for function _PWM1_Initialize
  9088                           
  9089                           
  9090                           ;mcc_generated_files/pwm1.c: 63:     PWM1INTE = 0x00;
  9091                           
  9092                           ;incstack = 0
  9093                           ; Regs used in _PWM1_Initialize: [wreg+status,2]
  9094     0792  003B               	movlb	27	; select bank27
  9095     0793  019C               	clrf	28	;volatile
  9096                           
  9097                           ;mcc_generated_files/pwm1.c: 66:     PWM1INTF = 0x00;
  9098     0794  019D               	clrf	29	;volatile
  9099                           
  9100                           ;mcc_generated_files/pwm1.c: 69:     PWM1CLKCON = 0x00;
  9101     0795  019E               	clrf	30	;volatile
  9102                           
  9103                           ;mcc_generated_files/pwm1.c: 72:     PWM1LDCON = 0x80;
  9104     0796  3080               	movlw	128
  9105     0797  009F               	movwf	31	;volatile
  9106                           
  9107                           ;mcc_generated_files/pwm1.c: 75:     PWM1OFCON = 0x00;
  9108     0798  01A0               	clrf	32	;volatile
  9109                           
  9110                           ;mcc_generated_files/pwm1.c: 78:     PWM1PHH = 0x00;
  9111     0799  0192               	clrf	18	;volatile
  9112                           
  9113                           ;mcc_generated_files/pwm1.c: 81:     PWM1PHL = 0x00;
  9114     079A  0191               	clrf	17	;volatile
  9115                           
  9116                           ;mcc_generated_files/pwm1.c: 84:     PWM1DCH = 0x01;
  9117     079B  3001               	movlw	1
  9118     079C  0094               	movwf	20	;volatile
  9119                           
  9120                           ;mcc_generated_files/pwm1.c: 87:     PWM1DCL = 0x2E;
  9121     079D  302E               	movlw	46
  9122     079E  0093               	movwf	19	;volatile
  9123                           
  9124                           ;mcc_generated_files/pwm1.c: 90:     PWM1PRH = 0x02;
  9125     079F  3002               	movlw	2
  9126     07A0  0096               	movwf	22	;volatile
  9127                           
  9128                           ;mcc_generated_files/pwm1.c: 93:     PWM1PRL = 0x5C;
  9129     07A1  305C               	movlw	92
  9130     07A2  0095               	movwf	21	;volatile
  9131                           
  9132                           ;mcc_generated_files/pwm1.c: 96:     PWM1OFH = 0x00;
  9133     07A3  0198               	clrf	24	;volatile
  9134                           
  9135                           ;mcc_generated_files/pwm1.c: 99:     PWM1OFL = 0x1F;
  9136     07A4  301F               	movlw	31
  9137     07A5  0097               	movwf	23	;volatile
  9138                           
  9139                           ;mcc_generated_files/pwm1.c: 102:     PWM1TMRH = 0x00;
  9140     07A6  019A               	clrf	26	;volatile
  9141                           
  9142                           ;mcc_generated_files/pwm1.c: 105:     PWM1TMRL = 0x00;
  9143     07A7  0199               	clrf	25	;volatile
  9144                           
  9145                           ;mcc_generated_files/pwm1.c: 108:     PWM1CON = 0x80;
  9146     07A8  3080               	movlw	128
  9147     07A9  009B               	movwf	27	;volatile
  9148     07AA  0008               	return
  9149     07AB                     __end_of_PWM1_Initialize:
  9150                           
  9151                           	psect	text44
  9152     06A8                     __ptext44:	
  9153 ;; *************** function _PIN_MANAGER_Initialize *****************
  9154 ;; Defined at:
  9155 ;;		line 57 in file "mcc_generated_files/pin_manager.c"
  9156 ;; Parameters:    Size  Location     Type
  9157 ;;		None
  9158 ;; Auto vars:     Size  Location     Type
  9159 ;;		None
  9160 ;; Return value:  Size  Location     Type
  9161 ;;                  1    wreg      void 
  9162 ;; Registers used:
  9163 ;;		wreg, status,2, status,0, pclath, cstack
  9164 ;; Tracked objects:
  9165 ;;		On entry : B1F/0
  9166 ;;		On exit  : 1F/1D
  9167 ;;		Unchanged: 0/0
  9168 ;; Data sizes:     COMMON   BANK0   BANK1   BANK2   BANK3   BANK4   BANK5   BANK6
  9169 ;;      Params:         0       0       0       0       0       0       0       0
  9170 ;;      Locals:         0       0       0       0       0       0       0       0
  9171 ;;      Temps:          0       0       0       0       0       0       0       0
  9172 ;;      Totals:         0       0       0       0       0       0       0       0
  9173 ;;Total ram usage:        0 bytes
  9174 ;; Hardware stack levels used: 1
  9175 ;; Hardware stack levels required when called: 5
  9176 ;; This function calls:
  9177 ;;		_IOCAF3_SetInterruptHandler
  9178 ;; This function is called by:
  9179 ;;		_SYSTEM_Initialize
  9180 ;; This function uses a non-reentrant model
  9181 ;;
  9182                           
  9183     06A8                     _PIN_MANAGER_Initialize:	
  9184                           ;psect for function _PIN_MANAGER_Initialize
  9185                           
  9186                           
  9187                           ;mcc_generated_files/pin_manager.c: 62:     LATA = 0x00;
  9188                           
  9189                           ;incstack = 0
  9190                           ; Regs used in _PIN_MANAGER_Initialize: [wreg+status,2+status,0+pclath+cstack]
  9191     06A8  0022               	movlb	2	; select bank2
  9192     06A9  018C               	clrf	12	;volatile
  9193                           
  9194                           ;mcc_generated_files/pin_manager.c: 63:     LATC = 0x00;
  9195     06AA  018E               	clrf	14	;volatile
  9196                           
  9197                           ;mcc_generated_files/pin_manager.c: 68:     TRISA = 0x29;
  9198     06AB  3029               	movlw	41
  9199     06AC  0021               	movlb	1	; select bank1
  9200     06AD  008C               	movwf	12	;volatile
  9201                           
  9202                           ;mcc_generated_files/pin_manager.c: 69:     TRISC = 0x06;
  9203     06AE  3006               	movlw	6
  9204     06AF  008E               	movwf	14	;volatile
  9205                           
  9206                           ;mcc_generated_files/pin_manager.c: 74:     ANSELC = 0x00;
  9207     06B0  0023               	movlb	3	; select bank3
  9208     06B1  018E               	clrf	14	;volatile
  9209                           
  9210                           ;mcc_generated_files/pin_manager.c: 75:     ANSELA = 0x01;
  9211     06B2  3001               	movlw	1
  9212     06B3  008C               	movwf	12	;volatile
  9213                           
  9214                           ;mcc_generated_files/pin_manager.c: 80:     WPUA = 0x00;
  9215     06B4  0024               	movlb	4	; select bank4
  9216     06B5  018C               	clrf	12	;volatile
  9217                           
  9218                           ;mcc_generated_files/pin_manager.c: 81:     WPUC = 0x04;
  9219     06B6  3004               	movlw	4
  9220     06B7  008E               	movwf	14	;volatile
  9221                           
  9222                           ;mcc_generated_files/pin_manager.c: 82:     OPTION_REGbits.nWPUEN = 0;
  9223     06B8  0021               	movlb	1	; select bank1
  9224     06B9  1395               	bcf	21,7	;volatile
  9225                           
  9226                           ;mcc_generated_files/pin_manager.c: 87:     ODCONA = 0x00;
  9227     06BA  0025               	movlb	5	; select bank5
  9228     06BB  018C               	clrf	12	;volatile
  9229                           
  9230                           ;mcc_generated_files/pin_manager.c: 88:     ODCONC = 0x00;
  9231     06BC  018E               	clrf	14	;volatile
  9232                           
  9233                           ;mcc_generated_files/pin_manager.c: 93:     SLRCONA = 0x31;
  9234     06BD  3031               	movlw	49
  9235     06BE  0026               	movlb	6	; select bank6
  9236     06BF  008C               	movwf	12	;volatile
  9237                           
  9238                           ;mcc_generated_files/pin_manager.c: 94:     SLRCONC = 0x36;
  9239     06C0  3036               	movlw	54
  9240     06C1  008E               	movwf	14	;volatile
  9241                           
  9242                           ;mcc_generated_files/pin_manager.c: 99:     INLVLA = 0x1F;
  9243     06C2  301F               	movlw	31
  9244     06C3  0027               	movlb	7	; select bank7
  9245     06C4  008C               	movwf	12	;volatile
  9246                           
  9247                           ;mcc_generated_files/pin_manager.c: 100:     INLVLC = 0x3F;
  9248     06C5  303F               	movlw	63
  9249     06C6  008E               	movwf	14	;volatile
  9250                           
  9251                           ;mcc_generated_files/pin_manager.c: 107:     IOCAFbits.IOCAF3 = 0;
  9252     06C7  1193               	bcf	19,3	;volatile
  9253                           
  9254                           ;mcc_generated_files/pin_manager.c: 109:     IOCANbits.IOCAN3 = 1;
  9255     06C8  1592               	bsf	18,3	;volatile
  9256                           
  9257                           ;mcc_generated_files/pin_manager.c: 111:     IOCAPbits.IOCAP3 = 1;
  9258     06C9  1591               	bsf	17,3	;volatile
  9259                           
  9260                           ;mcc_generated_files/pin_manager.c: 116:     IOCAF3_SetInterruptHandler(IOCAF3_DefaultIn
      +                          terruptHandler);
  9261     06CA  3042               	movlw	low _IOCAF3_DefaultInterruptHandler
  9262     06CB  00F2               	movwf	IOCAF3_SetInterruptHandler@InterruptHandler
  9263     06CC  300E               	movlw	high _IOCAF3_DefaultInterruptHandler
  9264     06CD  00F3               	movwf	IOCAF3_SetInterruptHandler@InterruptHandler+1
  9265     06CE  318E  2692         	fcall	_IOCAF3_SetInterruptHandler
  9266                           
  9267                           ;mcc_generated_files/pin_manager.c: 119:     INTCONbits.IOCIE = 1;
  9268     06D0  158B               	bsf	11,3	;volatile
  9269                           
  9270                           ;mcc_generated_files/pin_manager.c: 122:     RC0PPS = 0x06;
  9271     06D1  3006               	movlw	6
  9272     06D2  003D               	movlb	29	; select bank29
  9273     06D3  00A0               	movwf	32	;volatile
  9274                           
  9275                           ;mcc_generated_files/pin_manager.c: 123:     RC3PPS = 0x03;
  9276     06D4  3003               	movlw	3
  9277     06D5  00A3               	movwf	35	;volatile
  9278                           
  9279                           ;mcc_generated_files/pin_manager.c: 124:     ADCACTPPS = 0x12;
  9280     06D6  3012               	movlw	18
  9281     06D7  003C               	movlb	28	; select bank28
  9282     06D8  0097               	movwf	23	;volatile
  9283                           
  9284                           ;mcc_generated_files/pin_manager.c: 125:     RC4PPS = 0x09;
  9285     06D9  3009               	movlw	9
  9286     06DA  003D               	movlb	29	; select bank29
  9287     06DB  00A4               	movwf	36	;volatile
  9288                           
  9289                           ;mcc_generated_files/pin_manager.c: 126:     RA1PPS = 0x05;
  9290     06DC  3005               	movlw	5
  9291     06DD  0091               	movwf	17	;volatile
  9292                           
  9293                           ;mcc_generated_files/pin_manager.c: 127:     RA2PPS = 0x04;
  9294     06DE  3004               	movlw	4
  9295     06DF  0092               	movwf	18	;volatile
  9296     06E0  0008               	return
  9297     06E1                     __end_of_PIN_MANAGER_Initialize:
  9298                           
  9299                           	psect	text45
  9300     0E92                     __ptext45:	
  9301 ;; *************** function _IOCAF3_SetInterruptHandler *****************
  9302 ;; Defined at:
  9303 ;;		line 157 in file "mcc_generated_files/pin_manager.c"
  9304 ;; Parameters:    Size  Location     Type
  9305 ;;  InterruptHan    2    2[COMMON] PTR FTN()void 
  9306 ;;		 -> iocISR(1), IOCAF3_DefaultInterruptHandler(1), 
  9307 ;; Auto vars:     Size  Location     Type
  9308 ;;		None
  9309 ;; Return value:  Size  Location     Type
  9310 ;;                  1    wreg      void 
  9311 ;; Registers used:
  9312 ;;		wreg
  9313 ;; Tracked objects:
  9314 ;;		On entry : 19/1
  9315 ;;		On exit  : 1F/1
  9316 ;;		Unchanged: 0/0
  9317 ;; Data sizes:     COMMON   BANK0   BANK1   BANK2   BANK3   BANK4   BANK5   BANK6
  9318 ;;      Params:         2       0       0       0       0       0       0       0
  9319 ;;      Locals:         0       0       0       0       0       0       0       0
  9320 ;;      Temps:          0       0       0       0       0       0       0       0
  9321 ;;      Totals:         2       0       0       0       0       0       0       0
  9322 ;;Total ram usage:        2 bytes
  9323 ;; Hardware stack levels used: 1
  9324 ;; Hardware stack levels required when called: 4
  9325 ;; This function calls:
  9326 ;;		Nothing
  9327 ;; This function is called by:
  9328 ;;		_PIN_MANAGER_Initialize
  9329 ;;		_main
  9330 ;; This function uses a non-reentrant model
  9331 ;;
  9332                           
  9333     0E92                     _IOCAF3_SetInterruptHandler:	
  9334                           ;psect for function _IOCAF3_SetInterruptHandler
  9335                           
  9336                           
  9337                           ;mcc_generated_files/pin_manager.c: 158:     IOCAF3_InterruptHandler = InterruptHandler;
  9338                           
  9339                           ;incstack = 0
  9340                           ; Regs used in _IOCAF3_SetInterruptHandler: [wreg]
  9341     0E92  0873               	movf	IOCAF3_SetInterruptHandler@InterruptHandler+1,w
  9342     0E93  0021               	movlb	1	; select bank1
  9343     0E94  00E5               	movwf	(_IOCAF3_InterruptHandler+1)^(0+128)
  9344     0E95  0872               	movf	IOCAF3_SetInterruptHandler@InterruptHandler,w
  9345     0E96  00E4               	movwf	_IOCAF3_InterruptHandler^(0+128)
  9346     0E97  0008               	return
  9347     0E98                     __end_of_IOCAF3_SetInterruptHandler:
  9348                           
  9349                           	psect	text46
  9350     0EC9                     __ptext46:	
  9351 ;; *************** function _OSCILLATOR_Initialize *****************
  9352 ;; Defined at:
  9353 ;;		line 67 in file "mcc_generated_files/mcc.c"
  9354 ;; Parameters:    Size  Location     Type
  9355 ;;		None
  9356 ;; Auto vars:     Size  Location     Type
  9357 ;;		None
  9358 ;; Return value:  Size  Location     Type
  9359 ;;                  1    wreg      void 
  9360 ;; Registers used:
  9361 ;;		wreg, status,2
  9362 ;; Tracked objects:
  9363 ;;		On entry : 1F/1D
  9364 ;;		On exit  : 1F/2
  9365 ;;		Unchanged: 0/0
  9366 ;; Data sizes:     COMMON   BANK0   BANK1   BANK2   BANK3   BANK4   BANK5   BANK6
  9367 ;;      Params:         0       0       0       0       0       0       0       0
  9368 ;;      Locals:         0       0       0       0       0       0       0       0
  9369 ;;      Temps:          0       0       0       0       0       0       0       0
  9370 ;;      Totals:         0       0       0       0       0       0       0       0
  9371 ;;Total ram usage:        0 bytes
  9372 ;; Hardware stack levels used: 1
  9373 ;; Hardware stack levels required when called: 4
  9374 ;; This function calls:
  9375 ;;		Nothing
  9376 ;; This function is called by:
  9377 ;;		_SYSTEM_Initialize
  9378 ;; This function uses a non-reentrant model
  9379 ;;
  9380                           
  9381     0EC9                     _OSCILLATOR_Initialize:	
  9382                           ;psect for function _OSCILLATOR_Initialize
  9383                           
  9384                           
  9385                           ;mcc_generated_files/mcc.c: 70:     OSCCON = 0x78;
  9386                           
  9387                           ;incstack = 0
  9388                           ; Regs used in _OSCILLATOR_Initialize: [wreg+status,2]
  9389     0EC9  3078               	movlw	120
  9390     0ECA  0021               	movlb	1	; select bank1
  9391     0ECB  0099               	movwf	25	;volatile
  9392                           
  9393                           ;mcc_generated_files/mcc.c: 72:     OSCTUNE = 0x00;
  9394     0ECC  0198               	clrf	24	;volatile
  9395                           
  9396                           ;mcc_generated_files/mcc.c: 74:     BORCON = 0x00;
  9397     0ECD  0022               	movlb	2	; select bank2
  9398     0ECE  0196               	clrf	22	;volatile
  9399     0ECF  0008               	return
  9400     0ED0                     __end_of_OSCILLATOR_Initialize:
  9401                           
  9402                           	psect	text47
  9403     0E5E                     __ptext47:	
  9404 ;; *************** function _FVR_Initialize *****************
  9405 ;; Defined at:
  9406 ;;		line 58 in file "mcc_generated_files/fvr.c"
  9407 ;; Parameters:    Size  Location     Type
  9408 ;;		None
  9409 ;; Auto vars:     Size  Location     Type
  9410 ;;		None
  9411 ;; Return value:  Size  Location     Type
  9412 ;;                  1    wreg      void 
  9413 ;; Registers used:
  9414 ;;		wreg
  9415 ;; Tracked objects:
  9416 ;;		On entry : 1F/1
  9417 ;;		On exit  : 1F/2
  9418 ;;		Unchanged: 0/0
  9419 ;; Data sizes:     COMMON   BANK0   BANK1   BANK2   BANK3   BANK4   BANK5   BANK6
  9420 ;;      Params:         0       0       0       0       0       0       0       0
  9421 ;;      Locals:         0       0       0       0       0       0       0       0
  9422 ;;      Temps:          0       0       0       0       0       0       0       0
  9423 ;;      Totals:         0       0       0       0       0       0       0       0
  9424 ;;Total ram usage:        0 bytes
  9425 ;; Hardware stack levels used: 1
  9426 ;; Hardware stack levels required when called: 4
  9427 ;; This function calls:
  9428 ;;		Nothing
  9429 ;; This function is called by:
  9430 ;;		_SYSTEM_Initialize
  9431 ;; This function uses a non-reentrant model
  9432 ;;
  9433                           
  9434     0E5E                     _FVR_Initialize:	
  9435                           ;psect for function _FVR_Initialize
  9436                           
  9437                           
  9438                           ;mcc_generated_files/fvr.c: 61:     FVRCON = 0x82;
  9439                           
  9440                           ;incstack = 0
  9441                           ; Regs used in _FVR_Initialize: [wreg]
  9442     0E5E  3082               	movlw	130
  9443     0E5F  0022               	movlb	2	; select bank2
  9444     0E60  0097               	movwf	23	;volatile
  9445     0E61  0008               	return
  9446     0E62                     __end_of_FVR_Initialize:
  9447                           
  9448                           	psect	text48
  9449     0770                     __ptext48:	
  9450 ;; *************** function _EUSART_Initialize *****************
  9451 ;; Defined at:
  9452 ;;		line 66 in file "mcc_generated_files/eusart.c"
  9453 ;; Parameters:    Size  Location     Type
  9454 ;;		None
  9455 ;; Auto vars:     Size  Location     Type
  9456 ;;		None
  9457 ;; Return value:  Size  Location     Type
  9458 ;;                  1    wreg      void 
  9459 ;; Registers used:
  9460 ;;		wreg, status,2, status,0, pclath, cstack
  9461 ;; Tracked objects:
  9462 ;;		On entry : 1F/1
  9463 ;;		On exit  : 1F/0
  9464 ;;		Unchanged: 0/0
  9465 ;; Data sizes:     COMMON   BANK0   BANK1   BANK2   BANK3   BANK4   BANK5   BANK6
  9466 ;;      Params:         0       0       0       0       0       0       0       0
  9467 ;;      Locals:         0       0       0       0       0       0       0       0
  9468 ;;      Temps:          0       0       0       0       0       0       0       0
  9469 ;;      Totals:         0       0       0       0       0       0       0       0
  9470 ;;Total ram usage:        0 bytes
  9471 ;; Hardware stack levels used: 1
  9472 ;; Hardware stack levels required when called: 5
  9473 ;; This function calls:
  9474 ;;		_EUSART_SetErrorHandler
  9475 ;;		_EUSART_SetFramingErrorHandler
  9476 ;;		_EUSART_SetOverrunErrorHandler
  9477 ;; This function is called by:
  9478 ;;		_SYSTEM_Initialize
  9479 ;; This function uses a non-reentrant model
  9480 ;;
  9481                           
  9482     0770                     _EUSART_Initialize:	
  9483                           ;psect for function _EUSART_Initialize
  9484                           
  9485                           
  9486                           ;mcc_generated_files/eusart.c: 71:     BAUDCON = 0x08;
  9487                           
  9488                           ;incstack = 0
  9489                           ; Regs used in _EUSART_Initialize: [wreg+status,2+status,0+pclath+cstack]
  9490     0770  3008               	movlw	8
  9491     0771  0023               	movlb	3	; select bank3
  9492     0772  009F               	movwf	31	;volatile
  9493                           
  9494                           ;mcc_generated_files/eusart.c: 74:     RCSTA = 0x80;
  9495     0773  3080               	movlw	128
  9496     0774  009D               	movwf	29	;volatile
  9497                           
  9498                           ;mcc_generated_files/eusart.c: 77:     TXSTA = 0x24;
  9499     0775  3024               	movlw	36
  9500     0776  009E               	movwf	30	;volatile
  9501                           
  9502                           ;mcc_generated_files/eusart.c: 80:     SPBRGL = 0xA0;
  9503     0777  30A0               	movlw	160
  9504     0778  009B               	movwf	27	;volatile
  9505                           
  9506                           ;mcc_generated_files/eusart.c: 83:     SPBRGH = 0x01;
  9507     0779  3001               	movlw	1
  9508     077A  009C               	movwf	28	;volatile
  9509                           
  9510                           ;mcc_generated_files/eusart.c: 86:     EUSART_SetFramingErrorHandler(EUSART_DefaultFrami
      +                          ngErrorHandler);
  9511     077B  3000               	movlw	0
  9512     077C  00F2               	movwf	EUSART_SetFramingErrorHandler@interruptHandler
  9513     077D  3000               	movlw	0
  9514     077E  00F3               	movwf	EUSART_SetFramingErrorHandler@interruptHandler+1
  9515     077F  318E  268C  3187   	fcall	_EUSART_SetFramingErrorHandler
  9516                           
  9517                           ;mcc_generated_files/eusart.c: 87:     EUSART_SetOverrunErrorHandler(EUSART_DefaultOverr
      +                          unErrorHandler);
  9518     0782  3000               	movlw	0
  9519     0783  00F2               	movwf	EUSART_SetOverrunErrorHandler@interruptHandler
  9520     0784  3000               	movlw	0
  9521     0785  00F3               	movwf	EUSART_SetOverrunErrorHandler@interruptHandler+1
  9522     0786  318E  2670  3187   	fcall	_EUSART_SetOverrunErrorHandler
  9523                           
  9524                           ;mcc_generated_files/eusart.c: 88:     EUSART_SetErrorHandler(EUSART_DefaultErrorHandler
      +                          );
  9525     0789  3000               	movlw	0
  9526     078A  00F2               	movwf	EUSART_SetErrorHandler@interruptHandler
  9527     078B  3000               	movlw	0
  9528     078C  00F3               	movwf	EUSART_SetErrorHandler@interruptHandler+1
  9529     078D  318E  266B         	fcall	_EUSART_SetErrorHandler
  9530                           
  9531                           ;mcc_generated_files/eusart.c: 90:     eusartRxLastError.status = 0;
  9532     078F  0020               	movlb	0	; select bank0
  9533     0790  01D8               	clrf	_eusartRxLastError	;volatile
  9534     0791  0008               	return
  9535     0792                     __end_of_EUSART_Initialize:
  9536                           
  9537                           	psect	text49
  9538     0E70                     __ptext49:	
  9539 ;; *************** function _EUSART_SetOverrunErrorHandler *****************
  9540 ;; Defined at:
  9541 ;;		line 170 in file "mcc_generated_files/eusart.c"
  9542 ;; Parameters:    Size  Location     Type
  9543 ;;  interruptHan    2    2[COMMON] PTR FTN()void 
  9544 ;;		 -> EUSART_DefaultOverrunErrorHandler(1), 
  9545 ;; Auto vars:     Size  Location     Type
  9546 ;;		None
  9547 ;; Return value:  Size  Location     Type
  9548 ;;                  1    wreg      void 
  9549 ;; Registers used:
  9550 ;;		wreg
  9551 ;; Tracked objects:
  9552 ;;		On entry : 1F/1
  9553 ;;		On exit  : 1F/1
  9554 ;;		Unchanged: 0/0
  9555 ;; Data sizes:     COMMON   BANK0   BANK1   BANK2   BANK3   BANK4   BANK5   BANK6
  9556 ;;      Params:         2       0       0       0       0       0       0       0
  9557 ;;      Locals:         0       0       0       0       0       0       0       0
  9558 ;;      Temps:          0       0       0       0       0       0       0       0
  9559 ;;      Totals:         2       0       0       0       0       0       0       0
  9560 ;;Total ram usage:        2 bytes
  9561 ;; Hardware stack levels used: 1
  9562 ;; Hardware stack levels required when called: 4
  9563 ;; This function calls:
  9564 ;;		Nothing
  9565 ;; This function is called by:
  9566 ;;		_EUSART_Initialize
  9567 ;; This function uses a non-reentrant model
  9568 ;;
  9569                           
  9570     0E70                     _EUSART_SetOverrunErrorHandler:	
  9571                           ;psect for function _EUSART_SetOverrunErrorHandler
  9572                           
  9573                           
  9574                           ;mcc_generated_files/eusart.c: 171:     EUSART_OverrunErrorHandler = interruptHandler;
  9575                           
  9576                           ;incstack = 0
  9577                           ; Regs used in _EUSART_SetOverrunErrorHandler: [wreg]
  9578     0E70  0873               	movf	EUSART_SetOverrunErrorHandler@interruptHandler+1,w
  9579     0E71  00E9               	movwf	(_EUSART_OverrunErrorHandler+1)^(0+128)
  9580     0E72  0872               	movf	EUSART_SetOverrunErrorHandler@interruptHandler,w
  9581     0E73  00E8               	movwf	_EUSART_OverrunErrorHandler^(0+128)
  9582     0E74  0008               	return
  9583     0E75                     __end_of_EUSART_SetOverrunErrorHandler:
  9584                           
  9585                           	psect	text50
  9586     0E8C                     __ptext50:	
  9587 ;; *************** function _EUSART_SetFramingErrorHandler *****************
  9588 ;; Defined at:
  9589 ;;		line 166 in file "mcc_generated_files/eusart.c"
  9590 ;; Parameters:    Size  Location     Type
  9591 ;;  interruptHan    2    2[COMMON] PTR FTN()void 
  9592 ;;		 -> EUSART_DefaultFramingErrorHandler(1), 
  9593 ;; Auto vars:     Size  Location     Type
  9594 ;;		None
  9595 ;; Return value:  Size  Location     Type
  9596 ;;                  1    wreg      void 
  9597 ;; Registers used:
  9598 ;;		wreg
  9599 ;; Tracked objects:
  9600 ;;		On entry : 1F/3
  9601 ;;		On exit  : 1F/1
  9602 ;;		Unchanged: 0/0
  9603 ;; Data sizes:     COMMON   BANK0   BANK1   BANK2   BANK3   BANK4   BANK5   BANK6
  9604 ;;      Params:         2       0       0       0       0       0       0       0
  9605 ;;      Locals:         0       0       0       0       0       0       0       0
  9606 ;;      Temps:          0       0       0       0       0       0       0       0
  9607 ;;      Totals:         2       0       0       0       0       0       0       0
  9608 ;;Total ram usage:        2 bytes
  9609 ;; Hardware stack levels used: 1
  9610 ;; Hardware stack levels required when called: 4
  9611 ;; This function calls:
  9612 ;;		Nothing
  9613 ;; This function is called by:
  9614 ;;		_EUSART_Initialize
  9615 ;; This function uses a non-reentrant model
  9616 ;;
  9617                           
  9618     0E8C                     _EUSART_SetFramingErrorHandler:	
  9619                           ;psect for function _EUSART_SetFramingErrorHandler
  9620                           
  9621                           
  9622                           ;mcc_generated_files/eusart.c: 167:     EUSART_FramingErrorHandler = interruptHandler;
  9623                           
  9624                           ;incstack = 0
  9625                           ; Regs used in _EUSART_SetFramingErrorHandler: [wreg]
  9626     0E8C  0873               	movf	EUSART_SetFramingErrorHandler@interruptHandler+1,w
  9627     0E8D  0021               	movlb	1	; select bank1
  9628     0E8E  00EB               	movwf	(_EUSART_FramingErrorHandler+1)^(0+128)
  9629     0E8F  0872               	movf	EUSART_SetFramingErrorHandler@interruptHandler,w
  9630     0E90  00EA               	movwf	_EUSART_FramingErrorHandler^(0+128)
  9631     0E91  0008               	return
  9632     0E92                     __end_of_EUSART_SetFramingErrorHandler:
  9633                           
  9634                           	psect	text51
  9635     0E6B                     __ptext51:	
  9636 ;; *************** function _EUSART_SetErrorHandler *****************
  9637 ;; Defined at:
  9638 ;;		line 174 in file "mcc_generated_files/eusart.c"
  9639 ;; Parameters:    Size  Location     Type
  9640 ;;  interruptHan    2    2[COMMON] PTR FTN()void 
  9641 ;;		 -> EUSART_DefaultErrorHandler(1), 
  9642 ;; Auto vars:     Size  Location     Type
  9643 ;;		None
  9644 ;; Return value:  Size  Location     Type
  9645 ;;                  1    wreg      void 
  9646 ;; Registers used:
  9647 ;;		wreg
  9648 ;; Tracked objects:
  9649 ;;		On entry : 1F/1
  9650 ;;		On exit  : 1F/1
  9651 ;;		Unchanged: 0/0
  9652 ;; Data sizes:     COMMON   BANK0   BANK1   BANK2   BANK3   BANK4   BANK5   BANK6
  9653 ;;      Params:         2       0       0       0       0       0       0       0
  9654 ;;      Locals:         0       0       0       0       0       0       0       0
  9655 ;;      Temps:          0       0       0       0       0       0       0       0
  9656 ;;      Totals:         2       0       0       0       0       0       0       0
  9657 ;;Total ram usage:        2 bytes
  9658 ;; Hardware stack levels used: 1
  9659 ;; Hardware stack levels required when called: 4
  9660 ;; This function calls:
  9661 ;;		Nothing
  9662 ;; This function is called by:
  9663 ;;		_EUSART_Initialize
  9664 ;; This function uses a non-reentrant model
  9665 ;;
  9666                           
  9667     0E6B                     _EUSART_SetErrorHandler:	
  9668                           ;psect for function _EUSART_SetErrorHandler
  9669                           
  9670                           
  9671                           ;mcc_generated_files/eusart.c: 175:     EUSART_ErrorHandler = interruptHandler;
  9672                           
  9673                           ;incstack = 0
  9674                           ; Regs used in _EUSART_SetErrorHandler: [wreg]
  9675     0E6B  0873               	movf	EUSART_SetErrorHandler@interruptHandler+1,w
  9676     0E6C  00E7               	movwf	(_EUSART_ErrorHandler+1)^(0+128)
  9677     0E6D  0872               	movf	EUSART_SetErrorHandler@interruptHandler,w
  9678     0E6E  00E6               	movwf	_EUSART_ErrorHandler^(0+128)
  9679     0E6F  0008               	return
  9680     0E70                     __end_of_EUSART_SetErrorHandler:
  9681                           
  9682                           	psect	text52
  9683     0F48                     __ptext52:	
  9684 ;; *************** function _ADC1_Initialize *****************
  9685 ;; Defined at:
  9686 ;;		line 67 in file "mcc_generated_files/adc1.c"
  9687 ;; Parameters:    Size  Location     Type
  9688 ;;		None
  9689 ;; Auto vars:     Size  Location     Type
  9690 ;;		None
  9691 ;; Return value:  Size  Location     Type
  9692 ;;                  1    wreg      void 
  9693 ;; Registers used:
  9694 ;;		wreg, status,2, status,0, pclath, cstack
  9695 ;; Tracked objects:
  9696 ;;		On entry : 1F/1B
  9697 ;;		On exit  : 1F/1
  9698 ;;		Unchanged: 0/0
  9699 ;; Data sizes:     COMMON   BANK0   BANK1   BANK2   BANK3   BANK4   BANK5   BANK6
  9700 ;;      Params:         0       0       0       0       0       0       0       0
  9701 ;;      Locals:         0       0       0       0       0       0       0       0
  9702 ;;      Temps:          0       0       0       0       0       0       0       0
  9703 ;;      Totals:         0       0       0       0       0       0       0       0
  9704 ;;Total ram usage:        0 bytes
  9705 ;; Hardware stack levels used: 1
  9706 ;; Hardware stack levels required when called: 5
  9707 ;; This function calls:
  9708 ;;		_ADC1_SetInterruptHandler
  9709 ;; This function is called by:
  9710 ;;		_SYSTEM_Initialize
  9711 ;; This function uses a non-reentrant model
  9712 ;;
  9713                           
  9714     0F48                     _ADC1_Initialize:	
  9715                           ;psect for function _ADC1_Initialize
  9716                           
  9717                           
  9718                           ;mcc_generated_files/adc1.c: 72:     ADCON1 = 0xF0;
  9719                           
  9720                           ;incstack = 0
  9721                           ; Regs used in _ADC1_Initialize: [wreg+status,2+status,0+pclath+cstack]
  9722     0F48  30F0               	movlw	240
  9723     0F49  0021               	movlb	1	; select bank1
  9724     0F4A  009E               	movwf	30	;volatile
  9725                           
  9726                           ;mcc_generated_files/adc1.c: 75:     ADCON2 = 0x40;
  9727     0F4B  3040               	movlw	64
  9728     0F4C  009F               	movwf	31	;volatile
  9729                           
  9730                           ;mcc_generated_files/adc1.c: 78:     ADRESL = 0x00;
  9731     0F4D  019B               	clrf	27	;volatile
  9732                           
  9733                           ;mcc_generated_files/adc1.c: 81:     ADRESH = 0x00;
  9734     0F4E  019C               	clrf	28	;volatile
  9735                           
  9736                           ;mcc_generated_files/adc1.c: 84:     ADCON0 = 0x01;
  9737     0F4F  3001               	movlw	1
  9738     0F50  009D               	movwf	29	;volatile
  9739                           
  9740                           ;mcc_generated_files/adc1.c: 87:     PIE1bits.ADIE = 1;
  9741     0F51  1711               	bsf	17,6	;volatile
  9742                           
  9743                           ;mcc_generated_files/adc1.c: 90:     ADC1_SetInterruptHandler(ADC1_DefaultInterruptHandl
      +                          er);
  9744     0F52  3041               	movlw	low _ADC1_DefaultInterruptHandler
  9745     0F53  00F2               	movwf	ADC1_SetInterruptHandler@InterruptHandler
  9746     0F54  300E               	movlw	high _ADC1_DefaultInterruptHandler
  9747     0F55  00F3               	movwf	ADC1_SetInterruptHandler@InterruptHandler+1
  9748     0F56  318E  2686         	fcall	_ADC1_SetInterruptHandler
  9749     0F58  0008               	return
  9750     0F59                     __end_of_ADC1_Initialize:
  9751                           
  9752                           	psect	text53
  9753     0E86                     __ptext53:	
  9754 ;; *************** function _ADC1_SetInterruptHandler *****************
  9755 ;; Defined at:
  9756 ;;		line 159 in file "mcc_generated_files/adc1.c"
  9757 ;; Parameters:    Size  Location     Type
  9758 ;;  InterruptHan    2    2[COMMON] PTR FTN()void 
  9759 ;;		 -> ADCISR(1), ADC1_DefaultInterruptHandler(1), 
  9760 ;; Auto vars:     Size  Location     Type
  9761 ;;		None
  9762 ;; Return value:  Size  Location     Type
  9763 ;;                  1    wreg      void 
  9764 ;; Registers used:
  9765 ;;		wreg
  9766 ;; Tracked objects:
  9767 ;;		On entry : 1C/2
  9768 ;;		On exit  : 1F/1
  9769 ;;		Unchanged: 0/0
  9770 ;; Data sizes:     COMMON   BANK0   BANK1   BANK2   BANK3   BANK4   BANK5   BANK6
  9771 ;;      Params:         2       0       0       0       0       0       0       0
  9772 ;;      Locals:         0       0       0       0       0       0       0       0
  9773 ;;      Temps:          0       0       0       0       0       0       0       0
  9774 ;;      Totals:         2       0       0       0       0       0       0       0
  9775 ;;Total ram usage:        2 bytes
  9776 ;; Hardware stack levels used: 1
  9777 ;; Hardware stack levels required when called: 4
  9778 ;; This function calls:
  9779 ;;		Nothing
  9780 ;; This function is called by:
  9781 ;;		_ADC1_Initialize
  9782 ;;		_main
  9783 ;; This function uses a non-reentrant model
  9784 ;;
  9785                           
  9786     0E86                     _ADC1_SetInterruptHandler:	
  9787                           ;psect for function _ADC1_SetInterruptHandler
  9788                           
  9789                           
  9790                           ;mcc_generated_files/adc1.c: 160:     ADC1_InterruptHandler = InterruptHandler;
  9791                           
  9792                           ;incstack = 0
  9793                           ; Regs used in _ADC1_SetInterruptHandler: [wreg]
  9794     0E86  0873               	movf	ADC1_SetInterruptHandler@InterruptHandler+1,w
  9795     0E87  0021               	movlb	1	; select bank1
  9796     0E88  00E1               	movwf	(_ADC1_InterruptHandler+1)^(0+128)
  9797     0E89  0872               	movf	ADC1_SetInterruptHandler@InterruptHandler,w
  9798     0E8A  00E0               	movwf	_ADC1_InterruptHandler^(0+128)
  9799     0E8B  0008               	return
  9800     0E8C                     __end_of_ADC1_SetInterruptHandler:
  9801                           
  9802                           	psect	text54
  9803     0E80                     __ptext54:	
  9804 ;; *************** function _FVR_IsOutputReady *****************
  9805 ;; Defined at:
  9806 ;;		line 64 in file "mcc_generated_files/fvr.c"
  9807 ;; Parameters:    Size  Location     Type
  9808 ;;		None
  9809 ;; Auto vars:     Size  Location     Type
  9810 ;;		None
  9811 ;; Return value:  Size  Location     Type
  9812 ;;                  1    wreg      _Bool 
  9813 ;; Registers used:
  9814 ;;		wreg, status,2, status,0
  9815 ;; Tracked objects:
  9816 ;;		On entry : 1D/2
  9817 ;;		On exit  : 1F/2
  9818 ;;		Unchanged: 0/0
  9819 ;; Data sizes:     COMMON   BANK0   BANK1   BANK2   BANK3   BANK4   BANK5   BANK6
  9820 ;;      Params:         0       0       0       0       0       0       0       0
  9821 ;;      Locals:         0       0       0       0       0       0       0       0
  9822 ;;      Temps:          0       0       0       0       0       0       0       0
  9823 ;;      Totals:         0       0       0       0       0       0       0       0
  9824 ;;Total ram usage:        0 bytes
  9825 ;; Hardware stack levels used: 1
  9826 ;; Hardware stack levels required when called: 4
  9827 ;; This function calls:
  9828 ;;		Nothing
  9829 ;; This function is called by:
  9830 ;;		_main
  9831 ;; This function uses a non-reentrant model
  9832 ;;
  9833                           
  9834     0E80                     _FVR_IsOutputReady:	
  9835                           ;psect for function _FVR_IsOutputReady
  9836                           
  9837                           
  9838                           ;mcc_generated_files/fvr.c: 66:     return (FVRCONbits.FVRRDY);
  9839                           
  9840                           ;incstack = 0
  9841                           ; Regs used in _FVR_IsOutputReady: [wreg+status,2+status,0]
  9842     0E80  0022               	movlb	2	; select bank2
  9843     0E81  0E17               	swapf	23,w	;volatile
  9844     0E82  0C89               	rrf	9,f
  9845     0E83  0C89               	rrf	9,f
  9846     0E84  3901               	andlw	1
  9847     0E85  0008               	return
  9848     0E86                     __end_of_FVR_IsOutputReady:
  9849                           
  9850                           	psect	text55
  9851     0E46                     __ptext55:	
  9852 ;; *************** function _ADC1_StartConversion *****************
  9853 ;; Defined at:
  9854 ;;		line 101 in file "mcc_generated_files/adc1.c"
  9855 ;; Parameters:    Size  Location     Type
  9856 ;;		None
  9857 ;; Auto vars:     Size  Location     Type
  9858 ;;		None
  9859 ;; Return value:  Size  Location     Type
  9860 ;;                  1    wreg      void 
  9861 ;; Registers used:
  9862 ;;		None
  9863 ;; Tracked objects:
  9864 ;;		On entry : 1F/1
  9865 ;;		On exit  : 1F/1
  9866 ;;		Unchanged: 0/0
  9867 ;; Data sizes:     COMMON   BANK0   BANK1   BANK2   BANK3   BANK4   BANK5   BANK6
  9868 ;;      Params:         0       0       0       0       0       0       0       0
  9869 ;;      Locals:         0       0       0       0       0       0       0       0
  9870 ;;      Temps:          0       0       0       0       0       0       0       0
  9871 ;;      Totals:         0       0       0       0       0       0       0       0
  9872 ;;Total ram usage:        0 bytes
  9873 ;; Hardware stack levels used: 1
  9874 ;; Hardware stack levels required when called: 4
  9875 ;; This function calls:
  9876 ;;		Nothing
  9877 ;; This function is called by:
  9878 ;;		_main
  9879 ;; This function uses a non-reentrant model
  9880 ;;
  9881                           
  9882     0E46                     _ADC1_StartConversion:	
  9883                           ;psect for function _ADC1_StartConversion
  9884                           
  9885                           
  9886                           ;mcc_generated_files/adc1.c: 104:     ADCON0bits.GO_nDONE = 1;
  9887                           
  9888                           ;incstack = 0
  9889                           ; Regs used in _ADC1_StartConversion: []
  9890     0E46  149D               	bsf	29,1	;volatile
  9891     0E47  0008               	return
  9892     0E48                     __end_of_ADC1_StartConversion:
  9893                           
  9894                           	psect	text56
  9895     0F07                     __ptext56:	
  9896 ;; *************** function _ADC1_SelectChannel *****************
  9897 ;; Defined at:
  9898 ;;		line 93 in file "mcc_generated_files/adc1.c"
  9899 ;; Parameters:    Size  Location     Type
  9900 ;;  channel         1    wreg     enum E4124
  9901 ;; Auto vars:     Size  Location     Type
  9902 ;;  channel         1    3[COMMON] enum E4124
  9903 ;; Return value:  Size  Location     Type
  9904 ;;                  1    wreg      void 
  9905 ;; Registers used:
  9906 ;;		wreg, status,2, status,0
  9907 ;; Tracked objects:
  9908 ;;		On entry : 1F/1
  9909 ;;		On exit  : 1F/1
  9910 ;;		Unchanged: 0/0
  9911 ;; Data sizes:     COMMON   BANK0   BANK1   BANK2   BANK3   BANK4   BANK5   BANK6
  9912 ;;      Params:         0       0       0       0       0       0       0       0
  9913 ;;      Locals:         1       0       0       0       0       0       0       0
  9914 ;;      Temps:          1       0       0       0       0       0       0       0
  9915 ;;      Totals:         2       0       0       0       0       0       0       0
  9916 ;;Total ram usage:        2 bytes
  9917 ;; Hardware stack levels used: 1
  9918 ;; Hardware stack levels required when called: 4
  9919 ;; This function calls:
  9920 ;;		Nothing
  9921 ;; This function is called by:
  9922 ;;		_main
  9923 ;; This function uses a non-reentrant model
  9924 ;;
  9925                           
  9926     0F07                     _ADC1_SelectChannel:	
  9927                           ;psect for function _ADC1_SelectChannel
  9928                           
  9929                           
  9930                           ;incstack = 0
  9931                           ; Regs used in _ADC1_SelectChannel: [wreg+status,2+status,0]
  9932                           ;ADC1_SelectChannel@channel stored from wreg
  9933     0F07  00F3               	movwf	ADC1_SelectChannel@channel
  9934                           
  9935                           ;mcc_generated_files/adc1.c: 93: void ADC1_SelectChannel(adc_channel_t channel);mcc_gene
      +                          rated_files/adc1.c: 94: {;mcc_generated_files/adc1.c: 96:     ADCON0bits.CHS = channel;
  9936     0F08  0873               	movf	ADC1_SelectChannel@channel,w
  9937     0F09  00F2               	movwf	??_ADC1_SelectChannel
  9938     0F0A  0DF2               	rlf	??_ADC1_SelectChannel,f
  9939     0F0B  0DF2               	rlf	??_ADC1_SelectChannel,f
  9940     0F0C  081D               	movf	29,w	;volatile
  9941     0F0D  0672               	xorwf	??_ADC1_SelectChannel,w
  9942     0F0E  3983               	andlw	-125
  9943     0F0F  0672               	xorwf	??_ADC1_SelectChannel,w
  9944     0F10  009D               	movwf	29	;volatile
  9945                           
  9946                           ;mcc_generated_files/adc1.c: 98:     ADCON0bits.ADON = 1;
  9947     0F11  141D               	bsf	29,0	;volatile
  9948     0F12  0008               	return
  9949     0F13                     __end_of_ADC1_SelectChannel:
  9950                           
  9951                           	psect	intentry
  9952     0004                     __pintentry:	
  9953 ;; *************** function _INTERRUPT_InterruptManager *****************
  9954 ;; Defined at:
  9955 ;;		line 52 in file "mcc_generated_files/interrupt_manager.c"
  9956 ;; Parameters:    Size  Location     Type
  9957 ;;		None
  9958 ;; Auto vars:     Size  Location     Type
  9959 ;;		None
  9960 ;; Return value:  Size  Location     Type
  9961 ;;                  1    wreg      void 
  9962 ;; Registers used:
  9963 ;;		wreg, status,2, status,0, pclath, cstack
  9964 ;; Tracked objects:
  9965 ;;		On entry : 0/0
  9966 ;;		On exit  : 0/0
  9967 ;;		Unchanged: 0/0
  9968 ;; Data sizes:     COMMON   BANK0   BANK1   BANK2   BANK3   BANK4   BANK5   BANK6
  9969 ;;      Params:         0       0       0       0       0       0       0       0
  9970 ;;      Locals:         0       0       0       0       0       0       0       0
  9971 ;;      Temps:          0       0       0       0       0       0       0       0
  9972 ;;      Totals:         0       0       0       0       0       0       0       0
  9973 ;;Total ram usage:        0 bytes
  9974 ;; Hardware stack levels used: 1
  9975 ;; Hardware stack levels required when called: 3
  9976 ;; This function calls:
  9977 ;;		_ADC1_ISR
  9978 ;;		_PIN_MANAGER_IOC
  9979 ;;		_TMR0_ISR
  9980 ;; This function is called by:
  9981 ;;		Interrupt level 1
  9982 ;; This function uses a non-reentrant model
  9983 ;;
  9984                           
  9985     0004                     _INTERRUPT_InterruptManager:
  9986                           
  9987                           ;incstack = 0
  9988     0004  147E               	bsf	126,0	;set compiler interrupt flag (level 1)
  9989                           
  9990                           ; Regs used in _INTERRUPT_InterruptManager: [wreg+status,2+status,0+pclath+cstack]
  9991     0005  3180               	pagesel	$
  9992                           
  9993                           ;mcc_generated_files/interrupt_manager.c: 55:     if(INTCONbits.IOCIE == 1 && INTCONbits
      +                          .IOCIF == 1)
  9994     0006  198B               	btfsc	11,3	;volatile
  9995     0007  1C0B               	btfss	11,0	;volatile
  9996     0008  280D               	goto	i1l275
  9997                           
  9998                           ;mcc_generated_files/interrupt_manager.c: 56:     {;mcc_generated_files/interrupt_manage
      +                          r.c: 57:         PIN_MANAGER_IOC();
  9999     0009  318E  267A  3180   	fcall	_PIN_MANAGER_IOC
 10000                           
 10001                           ;mcc_generated_files/interrupt_manager.c: 58:     }
 10002     000C  281E               	goto	i1l283
 10003     000D                     i1l275:	
 10004                           ;mcc_generated_files/interrupt_manager.c: 59:     else if(INTCONbits.TMR0IE == 1 && INTC
      +                          ONbits.TMR0IF == 1)
 10005                           
 10006     000D  1A8B               	btfsc	11,5	;volatile
 10007     000E  1D0B               	btfss	11,2	;volatile
 10008     000F  2814               	goto	i1l277
 10009                           
 10010                           ;mcc_generated_files/interrupt_manager.c: 60:     {;mcc_generated_files/interrupt_manage
      +                          r.c: 61:         TMR0_ISR();
 10011     0010  318E  26C2  3180   	fcall	_TMR0_ISR
 10012                           
 10013                           ;mcc_generated_files/interrupt_manager.c: 62:     }
 10014     0013  281E               	goto	i1l283
 10015     0014                     i1l277:	
 10016                           ;mcc_generated_files/interrupt_manager.c: 63:     else if(INTCONbits.PEIE == 1)
 10017                           
 10018     0014  1F0B               	btfss	11,6	;volatile
 10019     0015  281E               	goto	i1l283
 10020                           
 10021                           ;mcc_generated_files/interrupt_manager.c: 64:     {;mcc_generated_files/interrupt_manage
      +                          r.c: 65:         if(PIE1bits.ADIE == 1 && PIR1bits.ADIF == 1)
 10022     0016  0021               	movlb	1	; select bank1
 10023     0017  1F11               	btfss	17,6	;volatile
 10024     0018  281E               	goto	i1l283
 10025     0019  0020               	movlb	0	; select bank0
 10026     001A  1F11               	btfss	17,6	;volatile
 10027     001B  281E               	goto	i1l283
 10028                           
 10029                           ;mcc_generated_files/interrupt_manager.c: 66:         {;mcc_generated_files/interrupt_ma
      +                          nager.c: 67:             ADC1_ISR();
 10030     001C  318E  26FB         	fcall	_ADC1_ISR
 10031     001E                     i1l283:	
 10032                           ;mcc_generated_files/interrupt_manager.c: 68:         }
 10033                           
 10034     001E  107E               	bcf	126,0	;clear compiler interrupt flag (level 1)
 10035     001F  0009               	retfie
 10036     0020                     __end_of_INTERRUPT_InterruptManager:
 10037                           
 10038                           	psect	text58
 10039     0EC2                     __ptext58:	
 10040 ;; *************** function _TMR0_ISR *****************
 10041 ;; Defined at:
 10042 ;;		line 108 in file "mcc_generated_files/tmr0.c"
 10043 ;; Parameters:    Size  Location     Type
 10044 ;;		None
 10045 ;; Auto vars:     Size  Location     Type
 10046 ;;		None
 10047 ;; Return value:  Size  Location     Type
 10048 ;;                  1    wreg      void 
 10049 ;; Registers used:
 10050 ;;		wreg, status,2, status,0, pclath, cstack
 10051 ;; Tracked objects:
 10052 ;;		On entry : 0/0
 10053 ;;		On exit  : 0/0
 10054 ;;		Unchanged: 0/0
 10055 ;; Data sizes:     COMMON   BANK0   BANK1   BANK2   BANK3   BANK4   BANK5   BANK6
 10056 ;;      Params:         0       0       0       0       0       0       0       0
 10057 ;;      Locals:         0       0       0       0       0       0       0       0
 10058 ;;      Temps:          0       0       0       0       0       0       0       0
 10059 ;;      Totals:         0       0       0       0       0       0       0       0
 10060 ;;Total ram usage:        0 bytes
 10061 ;; Hardware stack levels used: 1
 10062 ;; Hardware stack levels required when called: 2
 10063 ;; This function calls:
 10064 ;;		_TMR0_CallBack
 10065 ;; This function is called by:
 10066 ;;		_INTERRUPT_InterruptManager
 10067 ;; This function uses a non-reentrant model
 10068 ;;
 10069                           
 10070     0EC2                     _TMR0_ISR:	
 10071                           ;psect for function _TMR0_ISR
 10072                           
 10073                           
 10074                           ;mcc_generated_files/tmr0.c: 112:     INTCONbits.TMR0IF = 0;
 10075                           
 10076                           ;incstack = 0
 10077                           ; Regs used in _TMR0_ISR: [wreg+status,2+status,0+pclath+cstack]
 10078     0EC2  110B               	bcf	11,2	;volatile
 10079                           
 10080                           ;mcc_generated_files/tmr0.c: 114:     TMR0 = timer0ReloadVal;
 10081     0EC3  0020               	movlb	0	; select bank0
 10082     0EC4  086E               	movf	_timer0ReloadVal,w	;volatile
 10083     0EC5  0095               	movwf	21	;volatile
 10084                           
 10085                           ;mcc_generated_files/tmr0.c: 118:     TMR0_CallBack();
 10086     0EC6  318E  26F0         	fcall	_TMR0_CallBack
 10087     0EC8  0008               	return
 10088     0EC9                     __end_of_TMR0_ISR:
 10089                           
 10090                           	psect	text59
 10091     0EF0                     __ptext59:	
 10092 ;; *************** function _TMR0_CallBack *****************
 10093 ;; Defined at:
 10094 ;;		line 123 in file "mcc_generated_files/tmr0.c"
 10095 ;; Parameters:    Size  Location     Type
 10096 ;;		None
 10097 ;; Auto vars:     Size  Location     Type
 10098 ;;		None
 10099 ;; Return value:  Size  Location     Type
 10100 ;;                  1    wreg      void 
 10101 ;; Registers used:
 10102 ;;		wreg, status,2, status,0, pclath, cstack
 10103 ;; Tracked objects:
 10104 ;;		On entry : 1F/0
 10105 ;;		On exit  : 0/0
 10106 ;;		Unchanged: 0/0
 10107 ;; Data sizes:     COMMON   BANK0   BANK1   BANK2   BANK3   BANK4   BANK5   BANK6
 10108 ;;      Params:         0       0       0       0       0       0       0       0
 10109 ;;      Locals:         0       0       0       0       0       0       0       0
 10110 ;;      Temps:          0       0       0       0       0       0       0       0
 10111 ;;      Totals:         0       0       0       0       0       0       0       0
 10112 ;;Total ram usage:        0 bytes
 10113 ;; Hardware stack levels used: 1
 10114 ;; Hardware stack levels required when called: 1
 10115 ;; This function calls:
 10116 ;;		Absolute function
 10117 ;;		_TMR0_DefaultInterruptHandler
 10118 ;;		_timer0ISR
 10119 ;; This function is called by:
 10120 ;;		_TMR0_ISR
 10121 ;; This function uses a non-reentrant model
 10122 ;;
 10123                           
 10124     0EF0                     _TMR0_CallBack:	
 10125                           ;psect for function _TMR0_CallBack
 10126                           
 10127                           
 10128                           ;mcc_generated_files/tmr0.c: 127:     if(TMR0_InterruptHandler)
 10129                           
 10130                           ;incstack = 0
 10131                           ; Regs used in _TMR0_CallBack: [wreg+status,2+status,0+pclath+cstack]
 10132     0EF0  0021               	movlb	1	; select bank1
 10133     0EF1  0862               	movf	_TMR0_InterruptHandler^(0+128),w
 10134     0EF2  0463               	iorwf	(_TMR0_InterruptHandler+1)^(0+128),w
 10135     0EF3  1903               	btfsc	3,2
 10136     0EF4  0008               	return
 10137                           
 10138                           ;mcc_generated_files/tmr0.c: 128:     {;mcc_generated_files/tmr0.c: 129:         TMR0_In
      +                          terruptHandler();
 10139     0EF5  0863               	movf	(_TMR0_InterruptHandler+1)^(0+128),w
 10140     0EF6  008A               	movwf	10
 10141     0EF7  0862               	movf	_TMR0_InterruptHandler^(0+128),w
 10142     0EF8  000A               	callw
 10143     0EF9  318E               	pagesel	$
 10144     0EFA  0008               	return
 10145     0EFB                     __end_of_TMR0_CallBack:
 10146                           
 10147                           	psect	text60
 10148     0E43                     __ptext60:	
 10149 ;; *************** function _TMR0_DefaultInterruptHandler *****************
 10150 ;; Defined at:
 10151 ;;		line 137 in file "mcc_generated_files/tmr0.c"
 10152 ;; Parameters:    Size  Location     Type
 10153 ;;		None
 10154 ;; Auto vars:     Size  Location     Type
 10155 ;;		None
 10156 ;; Return value:  Size  Location     Type
 10157 ;;                  1    wreg      void 
 10158 ;; Registers used:
 10159 ;;		None
 10160 ;; Tracked objects:
 10161 ;;		On entry : 1F/1
 10162 ;;		On exit  : 1F/1
 10163 ;;		Unchanged: 1F/0
 10164 ;; Data sizes:     COMMON   BANK0   BANK1   BANK2   BANK3   BANK4   BANK5   BANK6
 10165 ;;      Params:         0       0       0       0       0       0       0       0
 10166 ;;      Locals:         0       0       0       0       0       0       0       0
 10167 ;;      Temps:          0       0       0       0       0       0       0       0
 10168 ;;      Totals:         0       0       0       0       0       0       0       0
 10169 ;;Total ram usage:        0 bytes
 10170 ;; Hardware stack levels used: 1
 10171 ;; This function calls:
 10172 ;;		Nothing
 10173 ;; This function is called by:
 10174 ;;		_TMR0_Initialize
 10175 ;;		_TMR0_CallBack
 10176 ;; This function uses a non-reentrant model
 10177 ;;
 10178                           
 10179     0E43                     _TMR0_DefaultInterruptHandler:	
 10180                           ;psect for function _TMR0_DefaultInterruptHandler
 10181                           
 10182                           
 10183                           ;incstack = 0
 10184                           ; Regs used in _TMR0_DefaultInterruptHandler: []
 10185     0E43  0008               	return
 10186     0E44                     __end_of_TMR0_DefaultInterruptHandler:
 10187                           
 10188                           	psect	text61
 10189     0F2C                     __ptext61:	
 10190 ;; *************** function _timer0ISR *****************
 10191 ;; Defined at:
 10192 ;;		line 227 in file "main.c"
 10193 ;; Parameters:    Size  Location     Type
 10194 ;;		None
 10195 ;; Auto vars:     Size  Location     Type
 10196 ;;		None
 10197 ;; Return value:  Size  Location     Type
 10198 ;;                  1    wreg      void 
 10199 ;; Registers used:
 10200 ;;		wreg, status,2, status,0
 10201 ;; Tracked objects:
 10202 ;;		On entry : 1F/1
 10203 ;;		On exit  : 1F/0
 10204 ;;		Unchanged: 0/0
 10205 ;; Data sizes:     COMMON   BANK0   BANK1   BANK2   BANK3   BANK4   BANK5   BANK6
 10206 ;;      Params:         0       0       0       0       0       0       0       0
 10207 ;;      Locals:         0       0       0       0       0       0       0       0
 10208 ;;      Temps:          0       0       0       0       0       0       0       0
 10209 ;;      Totals:         0       0       0       0       0       0       0       0
 10210 ;;Total ram usage:        0 bytes
 10211 ;; Hardware stack levels used: 1
 10212 ;; This function calls:
 10213 ;;		Nothing
 10214 ;; This function is called by:
 10215 ;;		_main
 10216 ;;		_TMR0_CallBack
 10217 ;; This function uses a non-reentrant model
 10218 ;;
 10219                           
 10220     0F2C                     _timer0ISR:	
 10221                           ;psect for function _timer0ISR
 10222                           
 10223                           
 10224                           ;main.c: 229:     tick++;
 10225                           
 10226                           ;incstack = 0
 10227                           ; Regs used in _timer0ISR: [wreg+status,2+status,0]
 10228     0F2C  3001               	movlw	1
 10229     0F2D  07D0               	addwf	_tick^(0+128),f	;volatile
 10230     0F2E  3000               	movlw	0
 10231     0F2F  3DD1               	addwfc	(_tick+1)^(0+128),f	;volatile
 10232     0F30  3DD2               	addwfc	(_tick+2)^(0+128),f	;volatile
 10233     0F31  3DD3               	addwfc	(_tick+3)^(0+128),f	;volatile
 10234     0F32  3DD4               	addwfc	(_tick+4)^(0+128),f	;volatile
 10235     0F33  3DD5               	addwfc	(_tick+5)^(0+128),f	;volatile
 10236     0F34  3DD6               	addwfc	(_tick+6)^(0+128),f	;volatile
 10237     0F35  3DD7               	addwfc	(_tick+7)^(0+128),f	;volatile
 10238                           
 10239                           ;main.c: 230:     run_mainloop = 1;
 10240     0F36  0020               	movlb	0	; select bank0
 10241     0F37  01D0               	clrf	_run_mainloop
 10242     0F38  0AD0               	incf	_run_mainloop,f
 10243     0F39  0008               	return
 10244     0F3A                     __end_of_timer0ISR:
 10245                           
 10246                           	psect	text62
 10247     0E7A                     __ptext62:	
 10248 ;; *************** function _PIN_MANAGER_IOC *****************
 10249 ;; Defined at:
 10250 ;;		line 130 in file "mcc_generated_files/pin_manager.c"
 10251 ;; Parameters:    Size  Location     Type
 10252 ;;		None
 10253 ;; Auto vars:     Size  Location     Type
 10254 ;;		None
 10255 ;; Return value:  Size  Location     Type
 10256 ;;                  1    wreg      void 
 10257 ;; Registers used:
 10258 ;;		wreg, status,2, status,0, pclath, cstack
 10259 ;; Tracked objects:
 10260 ;;		On entry : 0/0
 10261 ;;		On exit  : 1F/7
 10262 ;;		Unchanged: 0/0
 10263 ;; Data sizes:     COMMON   BANK0   BANK1   BANK2   BANK3   BANK4   BANK5   BANK6
 10264 ;;      Params:         0       0       0       0       0       0       0       0
 10265 ;;      Locals:         0       0       0       0       0       0       0       0
 10266 ;;      Temps:          0       0       0       0       0       0       0       0
 10267 ;;      Totals:         0       0       0       0       0       0       0       0
 10268 ;;Total ram usage:        0 bytes
 10269 ;; Hardware stack levels used: 1
 10270 ;; Hardware stack levels required when called: 2
 10271 ;; This function calls:
 10272 ;;		_IOCAF3_ISR
 10273 ;; This function is called by:
 10274 ;;		_INTERRUPT_InterruptManager
 10275 ;; This function uses a non-reentrant model
 10276 ;;
 10277                           
 10278     0E7A                     _PIN_MANAGER_IOC:	
 10279                           ;psect for function _PIN_MANAGER_IOC
 10280                           
 10281                           
 10282                           ;mcc_generated_files/pin_manager.c: 133:     if(IOCAFbits.IOCAF3 == 1)
 10283                           
 10284                           ;incstack = 0
 10285                           ; Regs used in _PIN_MANAGER_IOC: [wreg+status,2+status,0+pclath+cstack]
 10286     0E7A  0027               	movlb	7	; select bank7
 10287     0E7B  1D93               	btfss	19,3	;volatile
 10288     0E7C  0008               	return
 10289                           
 10290                           ;mcc_generated_files/pin_manager.c: 134:     {;mcc_generated_files/pin_manager.c: 135:  
      +                                 IOCAF3_ISR();
 10291     0E7D  318F  271F         	fcall	_IOCAF3_ISR
 10292     0E7F  0008               	return
 10293     0E80                     __end_of_PIN_MANAGER_IOC:
 10294                           
 10295                           	psect	text63
 10296     0F1F                     __ptext63:	
 10297 ;; *************** function _IOCAF3_ISR *****************
 10298 ;; Defined at:
 10299 ;;		line 142 in file "mcc_generated_files/pin_manager.c"
 10300 ;; Parameters:    Size  Location     Type
 10301 ;;		None
 10302 ;; Auto vars:     Size  Location     Type
 10303 ;;		None
 10304 ;; Return value:  Size  Location     Type
 10305 ;;                  1    wreg      void 
 10306 ;; Registers used:
 10307 ;;		wreg, status,2, status,0, pclath, cstack
 10308 ;; Tracked objects:
 10309 ;;		On entry : 1F/7
 10310 ;;		On exit  : 1F/7
 10311 ;;		Unchanged: 0/0
 10312 ;; Data sizes:     COMMON   BANK0   BANK1   BANK2   BANK3   BANK4   BANK5   BANK6
 10313 ;;      Params:         0       0       0       0       0       0       0       0
 10314 ;;      Locals:         0       0       0       0       0       0       0       0
 10315 ;;      Temps:          0       0       0       0       0       0       0       0
 10316 ;;      Totals:         0       0       0       0       0       0       0       0
 10317 ;;Total ram usage:        0 bytes
 10318 ;; Hardware stack levels used: 1
 10319 ;; Hardware stack levels required when called: 1
 10320 ;; This function calls:
 10321 ;;		Absolute function
 10322 ;;		_IOCAF3_DefaultInterruptHandler
 10323 ;;		_iocISR
 10324 ;; This function is called by:
 10325 ;;		_PIN_MANAGER_IOC
 10326 ;; This function uses a non-reentrant model
 10327 ;;
 10328                           
 10329     0F1F                     _IOCAF3_ISR:	
 10330                           ;psect for function _IOCAF3_ISR
 10331                           
 10332                           
 10333                           ;mcc_generated_files/pin_manager.c: 147:     if(IOCAF3_InterruptHandler)
 10334                           
 10335                           ;incstack = 0
 10336                           ; Regs used in _IOCAF3_ISR: [wreg+status,2+status,0+pclath+cstack]
 10337     0F1F  0021               	movlb	1	; select bank1
 10338     0F20  0864               	movf	_IOCAF3_InterruptHandler^(0+128),w
 10339     0F21  0465               	iorwf	(_IOCAF3_InterruptHandler+1)^(0+128),w
 10340     0F22  1903               	btfsc	3,2
 10341     0F23  2F29               	goto	i1l2925
 10342                           
 10343                           ;mcc_generated_files/pin_manager.c: 148:     {;mcc_generated_files/pin_manager.c: 149:  
      +                                 IOCAF3_InterruptHandler();
 10344     0F24  0865               	movf	(_IOCAF3_InterruptHandler+1)^(0+128),w
 10345     0F25  008A               	movwf	10
 10346     0F26  0864               	movf	_IOCAF3_InterruptHandler^(0+128),w
 10347     0F27  000A               	callw
 10348     0F28  318F               	pagesel	$
 10349     0F29                     i1l2925:
 10350                           
 10351                           ;mcc_generated_files/pin_manager.c: 151:     IOCAFbits.IOCAF3 = 0;
 10352     0F29  0027               	movlb	7	; select bank7
 10353     0F2A  1193               	bcf	19,3	;volatile
 10354     0F2B  0008               	return
 10355     0F2C                     __end_of_IOCAF3_ISR:
 10356                           
 10357                           	psect	text64
 10358     0E42                     __ptext64:	
 10359 ;; *************** function _IOCAF3_DefaultInterruptHandler *****************
 10360 ;; Defined at:
 10361 ;;		line 164 in file "mcc_generated_files/pin_manager.c"
 10362 ;; Parameters:    Size  Location     Type
 10363 ;;		None
 10364 ;; Auto vars:     Size  Location     Type
 10365 ;;		None
 10366 ;; Return value:  Size  Location     Type
 10367 ;;                  1    wreg      void 
 10368 ;; Registers used:
 10369 ;;		None
 10370 ;; Tracked objects:
 10371 ;;		On entry : 1F/1
 10372 ;;		On exit  : 1F/1
 10373 ;;		Unchanged: 1F/0
 10374 ;; Data sizes:     COMMON   BANK0   BANK1   BANK2   BANK3   BANK4   BANK5   BANK6
 10375 ;;      Params:         0       0       0       0       0       0       0       0
 10376 ;;      Locals:         0       0       0       0       0       0       0       0
 10377 ;;      Temps:          0       0       0       0       0       0       0       0
 10378 ;;      Totals:         0       0       0       0       0       0       0       0
 10379 ;;Total ram usage:        0 bytes
 10380 ;; Hardware stack levels used: 1
 10381 ;; This function calls:
 10382 ;;		Nothing
 10383 ;; This function is called by:
 10384 ;;		_PIN_MANAGER_Initialize
 10385 ;;		_IOCAF3_ISR
 10386 ;; This function uses a non-reentrant model
 10387 ;;
 10388                           
 10389     0E42                     _IOCAF3_DefaultInterruptHandler:	
 10390                           ;psect for function _IOCAF3_DefaultInterruptHandler
 10391                           
 10392                           
 10393                           ;incstack = 0
 10394                           ; Regs used in _IOCAF3_DefaultInterruptHandler: []
 10395     0E42  0008               	return
 10396     0E43                     __end_of_IOCAF3_DefaultInterruptHandler:
 10397                           
 10398                           	psect	text65
 10399     0EDF                     __ptext65:	
 10400 ;; *************** function _iocISR *****************
 10401 ;; Defined at:
 10402 ;;		line 220 in file "main.c"
 10403 ;; Parameters:    Size  Location     Type
 10404 ;;		None
 10405 ;; Auto vars:     Size  Location     Type
 10406 ;;		None
 10407 ;; Return value:  Size  Location     Type
 10408 ;;                  1    wreg      void 
 10409 ;; Registers used:
 10410 ;;		wreg, status,2
 10411 ;; Tracked objects:
 10412 ;;		On entry : 1F/1
 10413 ;;		On exit  : 1F/0
 10414 ;;		Unchanged: 0/0
 10415 ;; Data sizes:     COMMON   BANK0   BANK1   BANK2   BANK3   BANK4   BANK5   BANK6
 10416 ;;      Params:         0       0       0       0       0       0       0       0
 10417 ;;      Locals:         0       0       0       0       0       0       0       0
 10418 ;;      Temps:          0       0       0       0       0       0       0       0
 10419 ;;      Totals:         0       0       0       0       0       0       0       0
 10420 ;;Total ram usage:        0 bytes
 10421 ;; Hardware stack levels used: 1
 10422 ;; This function calls:
 10423 ;;		Nothing
 10424 ;; This function is called by:
 10425 ;;		_main
 10426 ;;		_IOCAF3_ISR
 10427 ;; This function uses a non-reentrant model
 10428 ;;
 10429                           
 10430     0EDF                     _iocISR:	
 10431                           ;psect for function _iocISR
 10432                           
 10433                           
 10434                           ;main.c: 222:     button_state = PORTAbits.RA3;
 10435                           
 10436                           ;incstack = 0
 10437                           ; Regs used in _iocISR: [wreg+status,2]
 10438     0EDF  3000               	movlw	0
 10439     0EE0  0020               	movlb	0	; select bank0
 10440     0EE1  198C               	btfsc	12,3	;volatile
 10441     0EE2  3001               	movlw	1
 10442     0EE3  00D5               	movwf	_button_state
 10443                           
 10444                           ;main.c: 223:     run_buttonLoop = 1;
 10445     0EE4  01D1               	clrf	_run_buttonLoop
 10446     0EE5  0AD1               	incf	_run_buttonLoop,f
 10447     0EE6  0008               	return
 10448     0EE7                     __end_of_iocISR:
 10449                           
 10450                           	psect	text66
 10451     0EFB                     __ptext66:	
 10452 ;; *************** function _ADC1_ISR *****************
 10453 ;; Defined at:
 10454 ;;		line 148 in file "mcc_generated_files/adc1.c"
 10455 ;; Parameters:    Size  Location     Type
 10456 ;;		None
 10457 ;; Auto vars:     Size  Location     Type
 10458 ;;		None
 10459 ;; Return value:  Size  Location     Type
 10460 ;;                  1    wreg      void 
 10461 ;; Registers used:
 10462 ;;		wreg, status,2, status,0, pclath, cstack
 10463 ;; Tracked objects:
 10464 ;;		On entry : 1F/0
 10465 ;;		On exit  : 0/0
 10466 ;;		Unchanged: 0/0
 10467 ;; Data sizes:     COMMON   BANK0   BANK1   BANK2   BANK3   BANK4   BANK5   BANK6
 10468 ;;      Params:         0       0       0       0       0       0       0       0
 10469 ;;      Locals:         0       0       0       0       0       0       0       0
 10470 ;;      Temps:          0       0       0       0       0       0       0       0
 10471 ;;      Totals:         0       0       0       0       0       0       0       0
 10472 ;;Total ram usage:        0 bytes
 10473 ;; Hardware stack levels used: 1
 10474 ;; Hardware stack levels required when called: 2
 10475 ;; This function calls:
 10476 ;;		Absolute function
 10477 ;;		_ADC1_DefaultInterruptHandler
 10478 ;;		_ADCISR
 10479 ;; This function is called by:
 10480 ;;		_INTERRUPT_InterruptManager
 10481 ;; This function uses a non-reentrant model
 10482 ;;
 10483                           
 10484     0EFB                     _ADC1_ISR:	
 10485                           ;psect for function _ADC1_ISR
 10486                           
 10487                           
 10488                           ;mcc_generated_files/adc1.c: 151:     PIR1bits.ADIF = 0;
 10489                           
 10490                           ;incstack = 0
 10491                           ; Regs used in _ADC1_ISR: [wreg+status,2+status,0+pclath+cstack]
 10492     0EFB  1311               	bcf	17,6	;volatile
 10493                           
 10494                           ;mcc_generated_files/adc1.c: 153:  if(ADC1_InterruptHandler)
 10495     0EFC  0021               	movlb	1	; select bank1
 10496     0EFD  0860               	movf	_ADC1_InterruptHandler^(0+128),w
 10497     0EFE  0461               	iorwf	(_ADC1_InterruptHandler+1)^(0+128),w
 10498     0EFF  1903               	btfsc	3,2
 10499     0F00  0008               	return
 10500                           
 10501                           ;mcc_generated_files/adc1.c: 154:     {;mcc_generated_files/adc1.c: 155:         ADC1_In
      +                          terruptHandler();
 10502     0F01  0861               	movf	(_ADC1_InterruptHandler+1)^(0+128),w
 10503     0F02  008A               	movwf	10
 10504     0F03  0860               	movf	_ADC1_InterruptHandler^(0+128),w
 10505     0F04  000A               	callw
 10506     0F05  318E               	pagesel	$
 10507     0F06  0008               	return
 10508     0F07                     __end_of_ADC1_ISR:
 10509                           
 10510                           	psect	text67
 10511     0E41                     __ptext67:	
 10512 ;; *************** function _ADC1_DefaultInterruptHandler *****************
 10513 ;; Defined at:
 10514 ;;		line 163 in file "mcc_generated_files/adc1.c"
 10515 ;; Parameters:    Size  Location     Type
 10516 ;;		None
 10517 ;; Auto vars:     Size  Location     Type
 10518 ;;		None
 10519 ;; Return value:  Size  Location     Type
 10520 ;;                  1    wreg      void 
 10521 ;; Registers used:
 10522 ;;		None
 10523 ;; Tracked objects:
 10524 ;;		On entry : 1F/1
 10525 ;;		On exit  : 1F/1
 10526 ;;		Unchanged: 1F/0
 10527 ;; Data sizes:     COMMON   BANK0   BANK1   BANK2   BANK3   BANK4   BANK5   BANK6
 10528 ;;      Params:         0       0       0       0       0       0       0       0
 10529 ;;      Locals:         0       0       0       0       0       0       0       0
 10530 ;;      Temps:          0       0       0       0       0       0       0       0
 10531 ;;      Totals:         0       0       0       0       0       0       0       0
 10532 ;;Total ram usage:        0 bytes
 10533 ;; Hardware stack levels used: 1
 10534 ;; This function calls:
 10535 ;;		Nothing
 10536 ;; This function is called by:
 10537 ;;		_ADC1_Initialize
 10538 ;;		_ADC1_ISR
 10539 ;; This function uses a non-reentrant model
 10540 ;;
 10541                           
 10542     0E41                     _ADC1_DefaultInterruptHandler:	
 10543                           ;psect for function _ADC1_DefaultInterruptHandler
 10544                           
 10545                           
 10546                           ;incstack = 0
 10547                           ; Regs used in _ADC1_DefaultInterruptHandler: []
 10548     0E41  0008               	return
 10549     0E42                     __end_of_ADC1_DefaultInterruptHandler:
 10550                           
 10551                           	psect	text68
 10552     0ED7                     __ptext68:	
 10553 ;; *************** function _ADCISR *****************
 10554 ;; Defined at:
 10555 ;;		line 137 in file "main.c"
 10556 ;; Parameters:    Size  Location     Type
 10557 ;;		None
 10558 ;; Auto vars:     Size  Location     Type
 10559 ;;		None
 10560 ;; Return value:  Size  Location     Type
 10561 ;;                  1    wreg      void 
 10562 ;; Registers used:
 10563 ;;		wreg, pclath, cstack
 10564 ;; Tracked objects:
 10565 ;;		On entry : 1F/1
 10566 ;;		On exit  : 1F/0
 10567 ;;		Unchanged: 0/0
 10568 ;; Data sizes:     COMMON   BANK0   BANK1   BANK2   BANK3   BANK4   BANK5   BANK6
 10569 ;;      Params:         0       0       0       0       0       0       0       0
 10570 ;;      Locals:         0       0       0       0       0       0       0       0
 10571 ;;      Temps:          0       0       0       0       0       0       0       0
 10572 ;;      Totals:         0       0       0       0       0       0       0       0
 10573 ;;Total ram usage:        0 bytes
 10574 ;; Hardware stack levels used: 1
 10575 ;; Hardware stack levels required when called: 1
 10576 ;; This function calls:
 10577 ;;		_ADC1_GetConversionResult
 10578 ;; This function is called by:
 10579 ;;		_main
 10580 ;;		_ADC1_ISR
 10581 ;; This function uses a non-reentrant model
 10582 ;;
 10583                           
 10584     0ED7                     _ADCISR:	
 10585                           ;psect for function _ADCISR
 10586                           
 10587                           
 10588                           ;main.c: 139:     adc_value = ADC1_GetConversionResult();
 10589                           
 10590                           ;incstack = 0
 10591                           ; Regs used in _ADCISR: [wreg+pclath+cstack]
 10592     0ED7  318E  2666         	fcall	_ADC1_GetConversionResult
 10593     0ED9  0871               	movf	?_ADC1_GetConversionResult+1,w
 10594     0EDA  0020               	movlb	0	; select bank0
 10595     0EDB  00C5               	movwf	_adc_value+1
 10596     0EDC  0870               	movf	?_ADC1_GetConversionResult,w
 10597     0EDD  00C4               	movwf	_adc_value
 10598     0EDE  0008               	return
 10599     0EDF                     __end_of_ADCISR:
 10600                           
 10601                           	psect	text69
 10602     0E66                     __ptext69:	
 10603 ;; *************** function _ADC1_GetConversionResult *****************
 10604 ;; Defined at:
 10605 ;;		line 114 in file "mcc_generated_files/adc1.c"
 10606 ;; Parameters:    Size  Location     Type
 10607 ;;		None
 10608 ;; Auto vars:     Size  Location     Type
 10609 ;;		None
 10610 ;; Return value:  Size  Location     Type
 10611 ;;                  2    0[COMMON] unsigned short 
 10612 ;; Registers used:
 10613 ;;		wreg
 10614 ;; Tracked objects:
 10615 ;;		On entry : 1F/1
 10616 ;;		On exit  : 1F/1
 10617 ;;		Unchanged: 0/0
 10618 ;; Data sizes:     COMMON   BANK0   BANK1   BANK2   BANK3   BANK4   BANK5   BANK6
 10619 ;;      Params:         2       0       0       0       0       0       0       0
 10620 ;;      Locals:         0       0       0       0       0       0       0       0
 10621 ;;      Temps:          0       0       0       0       0       0       0       0
 10622 ;;      Totals:         2       0       0       0       0       0       0       0
 10623 ;;Total ram usage:        2 bytes
 10624 ;; Hardware stack levels used: 1
 10625 ;; This function calls:
 10626 ;;		Nothing
 10627 ;; This function is called by:
 10628 ;;		_ADCISR
 10629 ;; This function uses a non-reentrant model
 10630 ;;
 10631                           
 10632     0E66                     _ADC1_GetConversionResult:	
 10633                           ;psect for function _ADC1_GetConversionResult
 10634                           
 10635                           
 10636                           ;mcc_generated_files/adc1.c: 117:     return ((adc_result_t)((ADRESH << 8) + ADRESL));
 10637                           
 10638                           ;incstack = 0
 10639                           ; Regs used in _ADC1_GetConversionResult: [wreg]
 10640     0E66  081C               	movf	28,w	;volatile
 10641     0E67  00F1               	movwf	?_ADC1_GetConversionResult+1
 10642     0E68  081B               	movf	27,w	;volatile
 10643     0E69  00F0               	movwf	?_ADC1_GetConversionResult
 10644     0E6A  0008               	return
 10645     0E6B                     __end_of_ADC1_GetConversionResult:
 10646     007E                     btemp	set	126	;btemp
 10647     007E                     int$flags	set	126
 10648     007E                     wtemp0	set	126
 10649                           
 10650                           	psect	idloc
 10651                           
 10652                           ;Config register IDLOC0 @ 0x8000
 10653                           ;	unspecified, using default values
 10654     8000                     	org	32768
 10655     8000  3FFF               	dw	16383
 10656                           
 10657                           ;Config register IDLOC1 @ 0x8001
 10658                           ;	unspecified, using default values
 10659     8001                     	org	32769
 10660     8001  3FFF               	dw	16383
 10661                           
 10662                           ;Config register IDLOC2 @ 0x8002
 10663                           ;	unspecified, using default values
 10664     8002                     	org	32770
 10665     8002  3FFF               	dw	16383
 10666                           
 10667                           ;Config register IDLOC3 @ 0x8003
 10668                           ;	unspecified, using default values
 10669     8003                     	org	32771
 10670     8003  3FFF               	dw	16383
 10671                           
 10672                           	psect	config
 10673                           
 10674                           ;Config register CONFIG1 @ 0x8007
 10675                           ;	Oscillator Selection Bits
 10676                           ;	FOSC = INTOSC, INTOSC oscillator; I/O function on CLKIN pin
 10677                           ;	Watchdog Timer Enable
 10678                           ;	WDTE = OFF, WDT disabled
 10679                           ;	Power-up Timer Enable
 10680                           ;	PWRTE = OFF, PWRT disabled
 10681                           ;	MCLR Pin Function Select
 10682                           ;	MCLRE = OFF, MCLR/VPP pin function is digital input
 10683                           ;	Flash Program Memory Code Protection
 10684                           ;	CP = OFF, Program memory code protection is disabled
 10685                           ;	Brown-out Reset Enable
 10686                           ;	BOREN = ON, Brown-out Reset enabled
 10687                           ;	Clock Out Enable
 10688                           ;	CLKOUTEN = OFF, CLKOUT function is disabled. I/O or oscillator function on the CLKOUT 
      +                          pin
 10689     8007                     	org	32775
 10690     8007  3FA4               	dw	16292
 10691                           
 10692                           ;Config register CONFIG2 @ 0x8008
 10693                           ;	Flash Memory Self-Write Protection
 10694                           ;	WRT = OFF, Write protection off
 10695                           ;	PPSLOCK bit One-Way Set Enable bit
 10696                           ;	PPS1WAY = ON, PPSLOCKED Bit Can Be Cleared & Set Once
 10697                           ;	PLL Enable
 10698                           ;	PLLEN = OFF, 4x PLL disabled
 10699                           ;	Stack Overflow/Underflow Reset Enable
 10700                           ;	STVREN = ON, Stack Overflow or Underflow will cause a Reset
 10701                           ;	Brown-out Reset Voltage Selection
 10702                           ;	BORV = LO, Brown-out Reset Voltage (Vbor), low trip point selected.
 10703                           ;	Low Power Brown-out Reset enable bit
 10704                           ;	LPBOREN = ON, LPBOR is enabled
 10705                           ;	Low-Voltage Programming Enable
 10706                           ;	LVP = OFF, High-voltage on MCLR/VPP must be used for programming
 10707     8008                     	org	32776
 10708     8008  16FF               	dw	5887

Data Sizes:
    Strings     32
    Constant    0
    Data        2
    BSS         152
    Persistent  47
    Stack       0

Auto Spaces:
    Space          Size  Autos    Used
    COMMON           14     10      12
    BANK0            80     21      80
    BANK1            80      2      78
    BANK2            80      0      32
    BANK3            80      0       0
    BANK4            80      0       0
    BANK5            80      0       0
    BANK6            16      0       0

Pointer List with Targets:

    vfpfcnvrt@ap	PTR PTR void  size(1) Largest target is 1
		 -> printf@ap(COMMON[1]), 

    S1746$source	PTR const unsigned char  size(1) Largest target is 0

    fputc@fp...source	PTR const unsigned char  size(1) Largest target is 0

    S1746$buffer	PTR unsigned char  size(1) Largest target is 0

    fputc@fp...buffer	PTR unsigned char  size(1) Largest target is 0

    fputc@fp	PTR struct _IO_FILE size(1) Largest target is 0
		 -> NULL(NULL[0]), 

    vfprintf@ap	PTR PTR void  size(1) Largest target is 1
		 -> printf@ap(COMMON[1]), 

    vfprintf@fp	PTR struct _IO_FILE size(1) Largest target is 0
		 -> NULL(NULL[0]), 

    vfprintf@fmt	PTR const unsigned char  size(2) Largest target is 11
		 -> STR_3(CODE[11]), STR_2(CODE[11]), STR_1(CODE[10]), 

    vfprintf@cfmt	PTR unsigned char  size(2) Largest target is 11
		 -> STR_3(CODE[11]), STR_2(CODE[11]), STR_1(CODE[10]), 

    vfpfcnvrt@fp	PTR struct _IO_FILE size(1) Largest target is 0
		 -> NULL(NULL[0]), 

    vfpfcnvrt@fmt	PTR PTR unsigned char  size(1) Largest target is 2
		 -> vfprintf@cfmt(BANK0[2]), 

    S1781$vp	PTR void  size(1) Largest target is 0

    convarg.vp	PTR void  size(1) Largest target is 0

    printf@fmt	PTR const unsigned char  size(2) Largest target is 11
		 -> STR_3(CODE[11]), STR_2(CODE[11]), STR_1(CODE[10]), 

    printf@ap	PTR void [1] size(1) Largest target is 2
		 -> ?_printf(BANK0[2]), 

    ADC1_SetInterruptHandler@InterruptHandler	PTR FTN()void  size(2) Largest target is 1
		 -> ADCISR(), ADC1_DefaultInterruptHandler(), 

    ADC1_InterruptHandler	PTR FTN()void  size(2) Largest target is 1
		 -> ADCISR(), ADC1_DefaultInterruptHandler(), Absolute function(), 

    TMR0_SetInterruptHandler@InterruptHandler	PTR FTN()void  size(2) Largest target is 1
		 -> timer0ISR(), TMR0_DefaultInterruptHandler(), 

    TMR0_InterruptHandler	PTR FTN()void  size(2) Largest target is 1
		 -> timer0ISR(), TMR0_DefaultInterruptHandler(), Absolute function(), 

    IOCAF3_SetInterruptHandler@InterruptHandler	PTR FTN()void  size(2) Largest target is 1
		 -> iocISR(), IOCAF3_DefaultInterruptHandler(), 

    IOCAF3_InterruptHandler	PTR FTN()void  size(2) Largest target is 1
		 -> iocISR(), Absolute function(), IOCAF3_DefaultInterruptHandler(), 

    EUSART_SetErrorHandler@interruptHandler	PTR FTN()void  size(2) Largest target is 1
		 -> EUSART_DefaultErrorHandler(), 

    EUSART_ErrorHandler	PTR FTN()void  size(2) Largest target is 1
		 -> Absolute function(), EUSART_DefaultErrorHandler(), 

    EUSART_SetOverrunErrorHandler@interruptHandler	PTR FTN()void  size(2) Largest target is 1
		 -> EUSART_DefaultOverrunErrorHandler(), 

    EUSART_OverrunErrorHandler	PTR FTN()void  size(2) Largest target is 1
		 -> Absolute function(), EUSART_DefaultOverrunErrorHandler(), 

    EUSART_SetFramingErrorHandler@interruptHandler	PTR FTN()void  size(2) Largest target is 1
		 -> EUSART_DefaultFramingErrorHandler(), 

    EUSART_FramingErrorHandler	PTR FTN()void  size(2) Largest target is 1
		 -> Absolute function(), EUSART_DefaultFramingErrorHandler(), 


Critical Paths under _main in COMMON

    _programStates->_printf
    _stopMotor->_PWM1_DutyCycleSet
    _stopRed->_PWM4_DutyCycleSet
    _stopGreen->_PWM2_DutyCycleSet
    _stopBlue->_PWM3_DutyCycleSet
    _setStartYellow->_setStartGreen
    _setStartYellow->_setStartRed
    _setStartRed->_PWM4_DutyCycleSet
    _setStartGreen->_PWM2_DutyCycleSet
    _setStartBlue->_PWM3_DutyCycleSet
    _printf->_vfprintf
    _vfprintf->_vfpfcnvrt
    _vfpfcnvrt->_fputc
    _fputc->_putch
    _putch->_EUSART_Write
    _TMR0_Initialize->_TMR0_SetInterruptHandler
    _PIN_MANAGER_Initialize->_IOCAF3_SetInterruptHandler
    _EUSART_Initialize->_EUSART_SetErrorHandler
    _EUSART_Initialize->_EUSART_SetFramingErrorHandler
    _EUSART_Initialize->_EUSART_SetOverrunErrorHandler
    _ADC1_Initialize->_ADC1_SetInterruptHandler

Critical Paths under _INTERRUPT_InterruptManager in COMMON

    _ADCISR->_ADC1_GetConversionResult

Critical Paths under _main in BANK0

    _main->_programStates
    _programStates->_printf
    _printf->_vfprintf
    _vfprintf->_vfpfcnvrt
    _vfpfcnvrt->_fputc

Critical Paths under _INTERRUPT_InterruptManager in BANK0

    None.

Critical Paths under _main in BANK1

    _main->_programStates

Critical Paths under _INTERRUPT_InterruptManager in BANK1

    None.

Critical Paths under _main in BANK2

    None.

Critical Paths under _INTERRUPT_InterruptManager in BANK2

    None.

Critical Paths under _main in BANK3

    None.

Critical Paths under _INTERRUPT_InterruptManager in BANK3

    None.

Critical Paths under _main in BANK4

    None.

Critical Paths under _INTERRUPT_InterruptManager in BANK4

    None.

Critical Paths under _main in BANK5

    None.

Critical Paths under _INTERRUPT_InterruptManager in BANK5

    None.

Critical Paths under _main in BANK6

    None.

Critical Paths under _INTERRUPT_InterruptManager in BANK6

    None.

Call Graph Tables:

 ---------------------------------------------------------------------------------
 (Depth) Function   	        Calls       Base Space   Used Autos Params    Refs
 ---------------------------------------------------------------------------------
 (0) _main                                                 1     1      0   15169
                                              1 BANK1      1     1      0
                 _ADC1_SelectChannel
           _ADC1_SetInterruptHandler
               _ADC1_StartConversion
                  _FVR_IsOutputReady
         _IOCAF3_SetInterruptHandler
                  _SYSTEM_Initialize
           _TMR0_SetInterruptHandler
                      _programStates
                        _setStartRed
                          _stopMotor
                            _stopRed
 ---------------------------------------------------------------------------------
 (1) _programStates                                        3     3      0   11263
                                             19 BANK0      2     2      0
                                              0 BANK1      1     1      0
                       _checkBattery
                             _printf
                       _setStartBlue
                      _setStartGreen
                        _setStartRed
                     _setStartYellow
                            _stopAll
                           _stopBlue
                          _stopGreen
                          _stopMotor
                            _stopRed
                         _stopYellow
 ---------------------------------------------------------------------------------
 (2) _stopYellow                                           0     0      0     490
                          _stopGreen
                            _stopRed
 ---------------------------------------------------------------------------------
 (1) _stopMotor                                            0     0      0     225
                  _PWM1_DutyCycleSet
                 _PWM1_LoadBufferSet
                         _PWM1_Start
                          _PWM1_Stop
 ---------------------------------------------------------------------------------
 (2) _PWM1_Stop                                            0     0      0       0
 ---------------------------------------------------------------------------------
 (2) _PWM1_Start                                           0     0      0       0
 ---------------------------------------------------------------------------------
 (2) _PWM1_LoadBufferSet                                   0     0      0       0
 ---------------------------------------------------------------------------------
 (2) _PWM1_DutyCycleSet                                    2     0      2     225
                                              2 COMMON     2     0      2
 ---------------------------------------------------------------------------------
 (2) _stopAll                                              0     0      0     735
                           _stopBlue
                          _stopGreen
                            _stopRed
 ---------------------------------------------------------------------------------
 (1) _stopRed                                              0     0      0     245
                  _PWM4_DutyCycleSet
                 _PWM4_LoadBufferSet
                         _PWM4_Start
                          _PWM4_Stop
 ---------------------------------------------------------------------------------
 (2) _PWM4_Stop                                            0     0      0       0
 ---------------------------------------------------------------------------------
 (3) _stopGreen                                            0     0      0     245
                  _PWM2_DutyCycleSet
                 _PWM2_LoadBufferSet
                         _PWM2_Start
                          _PWM2_Stop
 ---------------------------------------------------------------------------------
 (4) _PWM2_Stop                                            0     0      0       0
 ---------------------------------------------------------------------------------
 (2) _stopBlue                                             0     0      0     245
                  _PWM3_DutyCycleSet
                 _PWM3_LoadBufferSet
                         _PWM3_Start
                          _PWM3_Stop
 ---------------------------------------------------------------------------------
 (3) _PWM3_Stop                                            0     0      0       0
 ---------------------------------------------------------------------------------
 (2) _setStartYellow                                       0     0      0    3252
                      _setStartGreen
                        _setStartRed
 ---------------------------------------------------------------------------------
 (1) _setStartRed                                          3     1      2    2076
                                              4 COMMON     3     1      2
                  _PWM4_DutyCycleSet
                 _PWM4_LoadBufferSet
                         _PWM4_Start
 ---------------------------------------------------------------------------------
 (2) _PWM4_Start                                           0     0      0       0
 ---------------------------------------------------------------------------------
 (2) _PWM4_LoadBufferSet                                   0     0      0       0
 ---------------------------------------------------------------------------------
 (2) _PWM4_DutyCycleSet                                    2     0      2     245
                                              2 COMMON     2     0      2
 ---------------------------------------------------------------------------------
 (3) _setStartGreen                                        3     1      2    1176
                                              4 COMMON     3     1      2
                  _PWM2_DutyCycleSet
                 _PWM2_LoadBufferSet
                         _PWM2_Start
 ---------------------------------------------------------------------------------
 (4) _PWM2_Start                                           0     0      0       0
 ---------------------------------------------------------------------------------
 (4) _PWM2_LoadBufferSet                                   0     0      0       0
 ---------------------------------------------------------------------------------
 (4) _PWM2_DutyCycleSet                                    2     0      2     245
                                              2 COMMON     2     0      2
 ---------------------------------------------------------------------------------
 (2) _setStartBlue                                         3     1      2     456
                                              4 COMMON     3     1      2
                  _PWM3_DutyCycleSet
                 _PWM3_LoadBufferSet
                         _PWM3_Start
 ---------------------------------------------------------------------------------
 (3) _PWM3_Start                                           0     0      0       0
 ---------------------------------------------------------------------------------
 (3) _PWM3_LoadBufferSet                                   0     0      0       0
 ---------------------------------------------------------------------------------
 (3) _PWM3_DutyCycleSet                                    2     0      2     245
                                              2 COMMON     2     0      2
 ---------------------------------------------------------------------------------
 (2) _printf                                               5     3      2    1929
                                              9 COMMON     1     1      0
                                             17 BANK0      2     0      2
                           _vfprintf
 ---------------------------------------------------------------------------------
 (3) _vfprintf                                             7     4      3    1584
                                              8 COMMON     1     1      0
                                             11 BANK0      6     3      3
                          _vfpfcnvrt
 ---------------------------------------------------------------------------------
 (4) _vfpfcnvrt                                           22    20      2    1167
                                              7 COMMON     1     1      0
                                              5 BANK0      6     4      2
                              _fputc
 ---------------------------------------------------------------------------------
 (5) _fputc                                                8     5      3     746
                                              4 COMMON     3     0      3
                                              0 BANK0      5     5      0
                              _putch
 ---------------------------------------------------------------------------------
 (6) _putch                                                1     1      0      62
                                              3 COMMON     1     1      0
                       _EUSART_Write
 ---------------------------------------------------------------------------------
 (7) _EUSART_Write                                         1     1      0      31
                                              2 COMMON     1     1      0
 ---------------------------------------------------------------------------------
 (2) _checkBattery                                         2     2      0     158
                                              2 COMMON     2     2      0
 ---------------------------------------------------------------------------------
 (1) _SYSTEM_Initialize                                    0     0      0     816
                    _ADC1_Initialize
                  _EUSART_Initialize
                     _FVR_Initialize
              _OSCILLATOR_Initialize
             _PIN_MANAGER_Initialize
                    _PWM1_Initialize
                    _PWM2_Initialize
                    _PWM3_Initialize
                    _PWM4_Initialize
                    _TMR0_Initialize
                    _TMR1_Initialize
                     _WDT_Initialize
 ---------------------------------------------------------------------------------
 (2) _WDT_Initialize                                       0     0      0       0
 ---------------------------------------------------------------------------------
 (2) _TMR1_Initialize                                      0     0      0       0
 ---------------------------------------------------------------------------------
 (2) _TMR0_Initialize                                      0     0      0     174
           _TMR0_SetInterruptHandler
 ---------------------------------------------------------------------------------
 (1) _TMR0_SetInterruptHandler                             2     0      2     174
                                              2 COMMON     2     0      2
 ---------------------------------------------------------------------------------
 (2) _PWM4_Initialize                                      0     0      0       0
 ---------------------------------------------------------------------------------
 (2) _PWM3_Initialize                                      0     0      0       0
 ---------------------------------------------------------------------------------
 (2) _PWM2_Initialize                                      0     0      0       0
 ---------------------------------------------------------------------------------
 (2) _PWM1_Initialize                                      0     0      0       0
 ---------------------------------------------------------------------------------
 (2) _PIN_MANAGER_Initialize                               0     0      0     174
         _IOCAF3_SetInterruptHandler
 ---------------------------------------------------------------------------------
 (3) _IOCAF3_SetInterruptHandler                           2     0      2     174
                                              2 COMMON     2     0      2
 ---------------------------------------------------------------------------------
 (2) _OSCILLATOR_Initialize                                0     0      0       0
 ---------------------------------------------------------------------------------
 (2) _FVR_Initialize                                       0     0      0       0
 ---------------------------------------------------------------------------------
 (2) _EUSART_Initialize                                    0     0      0     294
             _EUSART_SetErrorHandler
      _EUSART_SetFramingErrorHandler
      _EUSART_SetOverrunErrorHandler
 ---------------------------------------------------------------------------------
 (3) _EUSART_SetOverrunErrorHandler                        2     0      2      98
                                              2 COMMON     2     0      2
 ---------------------------------------------------------------------------------
 (3) _EUSART_SetFramingErrorHandler                        2     0      2      98
                                              2 COMMON     2     0      2
 ---------------------------------------------------------------------------------
 (3) _EUSART_SetErrorHandler                               2     0      2      98
                                              2 COMMON     2     0      2
 ---------------------------------------------------------------------------------
 (2) _ADC1_Initialize                                      0     0      0     174
           _ADC1_SetInterruptHandler
 ---------------------------------------------------------------------------------
 (3) _ADC1_SetInterruptHandler                             2     0      2     174
                                              2 COMMON     2     0      2
 ---------------------------------------------------------------------------------
 (1) _FVR_IsOutputReady                                    0     0      0       0
 ---------------------------------------------------------------------------------
 (1) _ADC1_StartConversion                                 0     0      0       0
 ---------------------------------------------------------------------------------
 (1) _ADC1_SelectChannel                                   2     2      0      22
                                              2 COMMON     2     2      0
 ---------------------------------------------------------------------------------
 Estimated maximum stack depth 7
 ---------------------------------------------------------------------------------
 (Depth) Function   	        Calls       Base Space   Used Autos Params    Refs
 ---------------------------------------------------------------------------------
 (8) _INTERRUPT_InterruptManager                           0     0      0       0
                           _ADC1_ISR
                    _PIN_MANAGER_IOC
                           _TMR0_ISR
 ---------------------------------------------------------------------------------
 (9) _TMR0_ISR                                             0     0      0       0
                      _TMR0_CallBack
 ---------------------------------------------------------------------------------
 (10) _TMR0_CallBack                                       0     0      0       0
                   Absolute function *
       _TMR0_DefaultInterruptHandler *
                          _timer0ISR *
 ---------------------------------------------------------------------------------
 (11) _timer0ISR                                           0     0      0       0
 ---------------------------------------------------------------------------------
 (11) _TMR0_DefaultInterruptHandler                        0     0      0       0
 ---------------------------------------------------------------------------------
 (9) _PIN_MANAGER_IOC                                      0     0      0       0
                         _IOCAF3_ISR
 ---------------------------------------------------------------------------------
 (10) _IOCAF3_ISR                                          0     0      0       0
                   Absolute function *
     _IOCAF3_DefaultInterruptHandler *
                             _iocISR *
 ---------------------------------------------------------------------------------
 (11) _iocISR                                              0     0      0       0
 ---------------------------------------------------------------------------------
 (11) _IOCAF3_DefaultInterruptHandler                      0     0      0       0
 ---------------------------------------------------------------------------------
 (9) _ADC1_ISR                                             0     0      0       0
                   Absolute function *
       _ADC1_DefaultInterruptHandler *
                             _ADCISR *
 ---------------------------------------------------------------------------------
 (10) _ADCISR                                              0     0      0       0
           _ADC1_GetConversionResult
 ---------------------------------------------------------------------------------
 (11) _ADC1_GetConversionResult                            2     0      2       0
                                              0 COMMON     2     0      2
 ---------------------------------------------------------------------------------
 (10) _ADC1_DefaultInterruptHandler                        0     0      0       0
 ---------------------------------------------------------------------------------
 (11) Absolute function(Fake)                              0     0      0       0
 ---------------------------------------------------------------------------------
 Estimated maximum stack depth 11
 ---------------------------------------------------------------------------------

 Call Graph Graphs:

 _main (ROOT)
   _ADC1_SelectChannel
   _ADC1_SetInterruptHandler
   _ADC1_StartConversion
   _FVR_IsOutputReady
   _IOCAF3_SetInterruptHandler
   _SYSTEM_Initialize
     _ADC1_Initialize
       _ADC1_SetInterruptHandler
     _EUSART_Initialize
       _EUSART_SetErrorHandler
       _EUSART_SetFramingErrorHandler
       _EUSART_SetOverrunErrorHandler
     _FVR_Initialize
     _OSCILLATOR_Initialize
     _PIN_MANAGER_Initialize
       _IOCAF3_SetInterruptHandler
     _PWM1_Initialize
     _PWM2_Initialize
     _PWM3_Initialize
     _PWM4_Initialize
     _TMR0_Initialize
       _TMR0_SetInterruptHandler
     _TMR1_Initialize
     _WDT_Initialize
   _TMR0_SetInterruptHandler
   _programStates
     _checkBattery
     _printf
       _vfprintf
         _vfpfcnvrt
           _fputc
             _putch
               _EUSART_Write
     _setStartBlue
       _PWM3_DutyCycleSet
       _PWM3_LoadBufferSet
       _PWM3_Start
     _setStartGreen
       _PWM2_DutyCycleSet
       _PWM2_LoadBufferSet
       _PWM2_Start
     _setStartRed
       _PWM4_DutyCycleSet
       _PWM4_LoadBufferSet
       _PWM4_Start
     _setStartYellow
       _setStartGreen
       _setStartRed
     _stopAll
       _stopBlue
         _PWM3_DutyCycleSet
         _PWM3_LoadBufferSet
         _PWM3_Start
         _PWM3_Stop
       _stopGreen
         _PWM2_DutyCycleSet
         _PWM2_LoadBufferSet
         _PWM2_Start
         _PWM2_Stop
       _stopRed
         _PWM4_DutyCycleSet
         _PWM4_LoadBufferSet
         _PWM4_Start
         _PWM4_Stop
     _stopBlue
     _stopGreen
     _stopMotor
       _PWM1_DutyCycleSet
       _PWM1_LoadBufferSet
       _PWM1_Start
       _PWM1_Stop
     _stopRed
     _stopYellow
       _stopGreen
       _stopRed
   _setStartRed
   _stopMotor
   _stopRed

 _INTERRUPT_InterruptManager (ROOT)
   _ADC1_ISR
     Absolute function(Fake) *
     _ADC1_DefaultInterruptHandler *
     _ADCISR *
       _ADC1_GetConversionResult
   _PIN_MANAGER_IOC
     _IOCAF3_ISR
       Absolute function(Fake) *
       _IOCAF3_DefaultInterruptHandler *
       _iocISR *
   _TMR0_ISR
     _TMR0_CallBack
       Absolute function(Fake) *
       _TMR0_DefaultInterruptHandler *
       _timer0ISR *

 Address spaces:
Name               Size   Autos  Total    Cost      Usage
BIGRAM             1F0      0       0       0        0.0%
NULL                 0      0       0       0        0.0%
CODE                 0      0       0       0        0.0%
BITCOMMON            E      0       0       1        0.0%
BITSFR0              0      0       0       1        0.0%
SFR0                 0      0       0       1        0.0%
COMMON               E      A       C       2       85.7%
BITSFR1              0      0       0       2        0.0%
SFR1                 0      0       0       2        0.0%
BITSFR2              0      0       0       3        0.0%
SFR2                 0      0       0       3        0.0%
STACK                0      0       0       3        0.0%
BITSFR3              0      0       0       4        0.0%
SFR3                 0      0       0       4        0.0%
ABS                  0      0      CA       4        0.0%
BITBANK0            50      0       0       5        0.0%
BITSFR4              0      0       0       5        0.0%
SFR4                 0      0       0       5        0.0%
BANK0               50     15      50       6      100.0%
BITSFR5              0      0       0       6        0.0%
SFR5                 0      0       0       6        0.0%
BITBANK1            50      0       0       7        0.0%
BITSFR6              0      0       0       7        0.0%
SFR6                 0      0       0       7        0.0%
BANK1               50      2      4E       8       97.5%
BITSFR7              0      0       0       8        0.0%
SFR7                 0      0       0       8        0.0%
BITBANK2            50      0       0       9        0.0%
BITSFR8              0      0       0       9        0.0%
SFR8                 0      0       0       9        0.0%
BANK2               50      0      20      10       40.0%
BITSFR9              0      0       0      10        0.0%
SFR9                 0      0       0      10        0.0%
BITBANK3            50      0       0      11        0.0%
BITSFR10             0      0       0      11        0.0%
SFR10                0      0       0      11        0.0%
BANK3               50      0       0      12        0.0%
BITSFR11             0      0       0      12        0.0%
SFR11                0      0       0      12        0.0%
BITBANK4            50      0       0      13        0.0%
BITSFR12             0      0       0      13        0.0%
SFR12                0      0       0      13        0.0%
BANK4               50      0       0      14        0.0%
BITSFR13             0      0       0      14        0.0%
SFR13                0      0       0      14        0.0%
BITBANK5            50      0       0      15        0.0%
BITSFR14             0      0       0      15        0.0%
SFR14                0      0       0      15        0.0%
BANK5               50      0       0      16        0.0%
BITSFR15             0      0       0      16        0.0%
SFR15                0      0       0      16        0.0%
BITBANK6            10      0       0      17        0.0%
BITSFR16             0      0       0      17        0.0%
SFR16                0      0       0      17        0.0%
BANK6               10      0       0      18        0.0%
BITSFR17             0      0       0      18        0.0%
SFR17                0      0       0      18        0.0%
BITSFR18             0      0       0      19        0.0%
SFR18                0      0       0      19        0.0%
DATA                 0      0      CA      19        0.0%
BITSFR19             0      0       0      20        0.0%
SFR19                0      0       0      20        0.0%
BITSFR20             0      0       0      21        0.0%
SFR20                0      0       0      21        0.0%
BITSFR21             0      0       0      22        0.0%
SFR21                0      0       0      22        0.0%
BITSFR22             0      0       0      23        0.0%
SFR22                0      0       0      23        0.0%
BITSFR23             0      0       0      24        0.0%
SFR23                0      0       0      24        0.0%
BITSFR24             0      0       0      25        0.0%
SFR24                0      0       0      25        0.0%
BITSFR25             0      0       0      26        0.0%
SFR25                0      0       0      26        0.0%
BITSFR26             0      0       0      27        0.0%
SFR26                0      0       0      27        0.0%
BITSFR27             0      0       0      28        0.0%
SFR27                0      0       0      28        0.0%
BITSFR28             0      0       0      29        0.0%
SFR28                0      0       0      29        0.0%
BITSFR29             0      0       0      30        0.0%
SFR29                0      0       0      30        0.0%
BITSFR30             0      0       0      31        0.0%
SFR30                0      0       0      31        0.0%
BITSFR31             0      0       0      32        0.0%
SFR31                0      0       0      32        0.0%


Microchip Technology PIC Macro Assembler V2.40 build 20220703182018 
Symbol Table                                                                                   Sat Mar 09 15:49:35 2024

                          ??_PWM3_DutyCycleSet 0074                             _buttonStateUpdated 0054  
                                           l42 0ED1                         __end_of_FVR_Initialize 0E62  
                              _timer0ReloadVal 006E                                            l712 0597  
                                          l715 0591                                            l652 0749  
                                          l655 0747                                            l754 00B2  
                                          l766 010A                                            l777 016A  
                                          l868 04ED                                _timer1ReloadVal 00DE  
                               ?_programStates 0070                 ?_EUSART_SetFramingErrorHandler 0072  
                              _PWM4_Initialize 07C3                                            wreg 0009  
                    __end_of_PWM3_DutyCycleSet 0EA4                       _ADC1_SetInterruptHandler 0E86  
                                         l4003 0136                                           l4007 013E  
                                         l4201 02A4                                           l4203 02AB  
                                         l4123 01EF                                           l4107 01D9  
                                         l4035 017A                                           l4019 014E  
                                         l4027 0157                                           l4213 02C2  
                                         l4205 02AE                                           l4141 021B  
                                         l4133 0205                                           l4117 01E4  
                                         l4045 0189                                           l4303 0383  
                                         l4151 022E                                           l4119 01E9  
                                         l4401 045D                                           l4321 039C  
                                         l4313 0390                                           l4241 02EC  
                                         l4209 02B9                                           l4137 0210  
                                         l4073 0198                                           l4411 0481  
                                         l4219 02CC                                           l4083 01AE  
                                         l4067 01BD                                           l4333 03B7  
                                         l4229 02D8                                           l4181 0275  
                                         l4157 024D                                           l4149 022B  
                                         l4501 05C5                                           l4423 04AB  
                                         l4415 048F                                           l4407 0473  
                                         l4343 03CC                                           l4255 0309  
                                         l4239 02E3                                           l4167 025A  
                                         l4087 01B5                                           l4431 04C7  
                                         l4353 03E6                                           l4337 03BF  
                                         l4329 03AC                                           l4273 0332  
                                         l4265 031F                                           l4193 0291  
                                         l4185 027D                                           l4177 0265  
                                         l4097 01CC                                           l3731 06EA  
                                         l4603 04D0                                           l4419 049D  
                                         l4339 03C6                                           l4347 03D1  
                                         l4275 0339                                           l4531 05FC  
                                         l4523 05EC                                           l4515 05DF  
                                         l4373 0412                                           l4293 035F  
                                         l4269 032A                                           l4285 0348  
                                         l4197 029C                                           l3901 0049  
                                         l4509 05D3                                           l4453 04FB  
                                         l3735 070E                                           l4391 043C  
                                         l4383 0427                                           l4279 033F  
                                         l4527 05F4                                           l4393 0448  
                                         l4377 041A                                           l4369 0407  
                                         l4297 036E                                           l4561 064A  
                                         l4553 0630                                           l4545 061A  
                                         l4537 0608                                           l3771 0686  
                                         l4379 0421                                           l3923 0075  
                                         l3915 0066                                           l4483 058E  
                                         l4475 053F                                           l4467 052A  
                                         l3861 0736                                           l3845 07B0  
                                         l3941 0095                                           l3925 007C  
                                         l4557 063B                                           l4549 0623  
                                         l4485 0593                                           l4477 0558  
                                         l3855 0726                                           l3775 0690  
                                         l3847 07C0                                           l3943 0097  
                                         l3919 006D                                           l4479 055A  
                                         l3929 0082                                           l4569 0659  
                                         l4497 05B6                                           l4489 0598  
                             __end_of_ADC1_ISR 0F07                                           l3955 00C0  
                                         l3981 0102                                           l3957 00CC  
                                         l3949 00AC                                           l3991 011B  
                                         l3977 00FC                                           l3985 010C  
                                         l3969 00E8                                           l3995 0122  
                                         l3999 012D                                           STR_1 0813  
                                         STR_2 07FD                                           STR_3 0808  
                      __end_of_PWM1_Initialize 07AB                                           _LATA 010C  
                                         _LATC 010E                                           u3240 0054  
                                         u4210 0459                                           u4130 03F7  
                                         u3155 070C                                           u4320 0538  
                                         u3380 00DD                                           u3920 02FE  
                                         u4557 00BA                                           u4567 04C0  
                                         _TMR0 0015                                           _WPUA 020C  
                                         _WPUC 020E                      ADC1_SelectChannel@channel 0073  
                                         _dbuf 0120                                   _run_mainloop 0050  
                                         _main 04EE                                           _prec 00DA  
                                         _tick 00D0                                           fsr0h 0005  
                                         fsr1h 0007                                           indf0 0000  
                                         fsr0l 0004                                           indf1 0001  
                                         fsr1l 0006                                           btemp 007E  
                                         start 0020                             _PWM4_LoadBufferSet 0E50  
                  checkBattery@battery_voltage 0072                        __end_of_PWM2_Initialize 0FB4  
                      __end_of_TMR0_Initialize 0FDA                            ?_PWM4_LoadBufferSet 0070  
               ??_TMR0_DefaultInterruptHandler 0070                                ?_FVR_Initialize 0070  
                                ?_EUSART_Write 0070                  __end_of_OSCILLATOR_Initialize 0ED0  
                                        ?_main 0070                                          _T1CON 0018  
                                        i1l283 001E                                          i1l275 000D  
                                        i1l277 0014                                          _RCSTA 019D  
                                 vfpfcnvrt@fmt 005E                                          _TMR1H 0017  
                                        _TMR1L 0016                                          _TRISA 008C  
                                        _TRISC 008E                                          _TXREG 019A  
                                        _TXSTA 019E                      ?_TMR0_SetInterruptHandler 0072  
                             __end_of_TMR0_ISR 0EC9                                    ?_PWM1_Start 0070  
                                  ?_PWM2_Start 0070                                    ?_PWM3_Start 0070  
                      __end_of_PIN_MANAGER_IOC 0E80                                          _flags 0046  
                                  ?_PWM4_Start 0070                                 _WDT_Initialize 0E62  
                                        _fputc 06E1                                          _width 00D8  
                                        _putch 0E75                           ??_PWM4_LoadBufferSet 0072  
                      __end_of_PWM3_Initialize 0FC7                        __end_of_TMR1_Initialize 0F6B  
                                        pclath 000A                              _PWM4_DutyCycleSet 0EAA  
                                        status 0003                                __end_of_stopAll 0EF0  
                                        wtemp0 007E                                __end_of_stopRed 07FD  
                           ?_PWM4_DutyCycleSet 0072                PWM3_DutyCycleSet@dutyCycleCount 0072  
                              __initialization 0022                                   __end_of_main 0660  
                          ??_PWM4_DutyCycleSet 0074                                 ??_EUSART_Write 0072  
                      __end_of_PWM4_Initialize 07D7                    ?_INTERRUPT_InterruptManager 0070  
                              ??_programStates 006C                                         ??_main 00ED  
                       __end_of_WDT_Initialize 0E66                   ??_IOCAF3_SetInterruptHandler 0074  
            _EUSART_DefaultFramingErrorHandler 0000                                         _ADCON0 009D  
                                       _ADCON1 009E                                         _ADCON2 009F  
                                       _ADCISR 0ED7                     _EUSART_OverrunErrorHandler 00E8  
                                       ?_fputc 0074                                         _ADRESH 009C  
                                       _ADRESL 009B                      __end_of_PWM4_DutyCycleSet 0EB0  
                                       _ANSELA 018C                                         ?_putch 0070  
                                       _ANSELC 018E                                         _BORCON 0116  
                                       _T1GCON 0019                                         _RA1PPS 0E91  
                                       _RA2PPS 0E92                                         _RC0PPS 0EA0  
                                       _RC3PPS 0EA3                                         _RC4PPS 0EA4  
                             ?_PWM1_Initialize 0070                                         _ODCONA 028C  
                                       _ODCONC 028E                                         i1l2925 0F29  
                                       _INLVLA 038C                                         _INLVLC 038E  
                           _ADC1_SelectChannel 0F07                                         _FVRCON 0117  
                   ??_ADC1_GetConversionResult 0072                                   ?_setStartRed 0074  
                                       _OSCCON 0099                                         _SPBRGH 019C  
                                       _SPBRGL 019B                                         _WDTCON 0097  
                        __end_of_setStartGreen 0F8F                            ?_ADC1_SelectChannel 0070  
                                 vfprintf@cfmt 0068                PWM1_DutyCycleSet@dutyCycleCount 0072  
                            __end_of_PWM1_Stop 0004                              __end_of_PWM2_Stop 0E58  
                            __end_of_PWM3_Stop 0E56                              __end_of_PWM4_Stop 0E5A  
                                       _iocISR 0EDF                               ?_TMR0_Initialize 0070  
                             ?_PWM2_Initialize 0070                                      ?_ADC1_ISR 0070  
                                       _printf 0F13                                         fputc@c 0074  
                                 _checkBattery 0718                                   __pdataCOMMON 007B  
                               _run_buttonLoop 0051                           ??_ADC1_SelectChannel 0072  
                   __end_of_PWM2_LoadBufferSet 0E4E                                ?_WDT_Initialize 0070  
                        __end_of_TMR0_CallBack 0EFB                               __end_of_vfprintf 07C3  
     ADC1_SetInterruptHandler@InterruptHandler 0072       TMR0_SetInterruptHandler@InterruptHandler 0072  
   IOCAF3_SetInterruptHandler@InterruptHandler 0072                                      ??_stopAll 0074  
                             ?_PIN_MANAGER_IOC 0070                               __end_of_stopBlue 0FED  
                                    ??_stopRed 0074                               _shutdown_counter 0020  
                                 ??_IOCAF3_ISR 0070                               ?_TMR1_Initialize 0070  
                             ?_PWM3_Initialize 0070                              _SYSTEM_Initialize 074C  
                ?_ADC1_DefaultInterruptHandler 0070                             _PWM1_LoadBufferSet 0E5A  
                      __end_of__initialization 0042                             ?_SYSTEM_Initialize 0070  
                          ?_PWM1_LoadBufferSet 0070                                 __pcstackCOMMON 0070  
                              _stageB1_counter 00B8                                   __pidataBANK0 0E44  
                          ??_SYSTEM_Initialize 0074                                 _battery_status 007B  
                                    ?_TMR0_ISR 0070                                  __end_of_fputc 0718  
                                __end_of_putch 0E7A                               ?_PWM4_Initialize 0070  
                                   ??_ADC1_ISR 0072                             __end_of_IOCAF3_ISR 0F2C  
                   ??_ADC1_SetInterruptHandler 0074                                 _OPTION_REGbits 0095  
                         ??_PWM1_LoadBufferSet 0072                ??_EUSART_SetOverrunErrorHandler 0074  
                           programStates@cases 00EC                                        ?_ADCISR 0070  
                                      ??_fputc 0059                      __end_of_SYSTEM_Initialize 0770  
                                      ??_putch 0073                                     __pbssBANK0 0020  
                                   __pbssBANK1 00A0                                     __pbssBANK2 0120  
                         __end_of_EUSART_Write 0ED7                               ??_FVR_Initialize 0072  
                               _setStartYellow 0F3A                                     __pmaintext 04EE  
             __end_of_TMR0_SetInterruptHandler 0E9E                                     ??_TMR0_ISR 0070  
                                      ?_iocISR 0070                                     __pintentry 0004  
                                      _BAUDCON 019F                                     _ledCounter 0038  
                                      ?_printf 006A                                  ?_setStartBlue 0074  
           __end_of_IOCAF3_SetInterruptHandler 0E98                     _IOCAF3_SetInterruptHandler 0E92  
                                    _ADCACTPPS 0E17                                        _PWM1DCH 0D94  
                                 ??_PWM1_Start 0072                                        _PWM1DCL 0D93  
                                      _PWM2DCH 0DA4                                        _PWM2DCL 0DA3  
                                      _OSCTUNE 0098                                        _PWM3DCH 0DB4  
                                      _PWM3DCL 0DB3                                        _PWM4DCH 0DC4  
                                      _PWM1CON 0D9B                                        _PWM4DCL 0DC3  
                                      _PWM1OFH 0D98                                        _PWM1OFL 0D97  
                                      _PWM2OFH 0DA8                                        _PWM1PHH 0D92  
                                      _PWM2OFL 0DA7                                        _PWM1PHL 0D91  
                                 ??_PWM2_Start 0072                                        _PWM2PHH 0DA2  
                                      _PWM3OFH 0DB8                                        _PWM2PHL 0DA1  
                                      _PWM3OFL 0DB7                                        _PWM4OFH 0DC8  
                                      _PWM3PHH 0DB2                                        _PWM4OFL 0DC7  
                                      _PWM3PHL 0DB1                                        _PWM1PRH 0D96  
                                      _PWM4PHH 0DC2                                        _PWM1PRL 0D95  
                                      _PWM4PHL 0DC1                                        _PWM2PRH 0DA6  
                                      _PWM2PRL 0DA5                                        _PWM3PRH 0DB6  
                                      _PWM3PRL 0DB5                                        _PWM4PRH 0DC6  
                                      _PWM4PRL 0DC5                                        _SLRCONA 030C  
                                      _SLRCONC 030E                                   ??_PWM3_Start 0072  
                            ??_ADC1_Initialize 0074                                   ??_PWM4_Start 0072  
                 __end_of_ADC1_StartConversion 0E48                       ??_EUSART_SetErrorHandler 0074  
                              setStartRed@duty 0074                                     _doubleBeep 004C  
                                 _enableOrange 0048                                   _enableYellow 0047  
                                   _firstTimeB 0053                                     _firstTimeC 0052  
                       __end_of_setStartYellow 0F48                 ??_ADC1_DefaultInterruptHandler 0070  
                                    ?_vfprintf 0064                             __end_of_PWM1_Start 0E5E  
                           __end_of_PWM2_Start 0E50                                      ?_stopBlue 0070  
                           __end_of_PWM3_Start 0E4C                             __end_of_PWM4_Start 0E54  
                             _currentButtState 007A                                        __ptext1 0046  
                                      __ptext2 0EB6                                        __ptext3 07D7  
                                      __ptext4 0002                                        __ptext5 0E5C  
                                      __ptext6 0E5A                                        __ptext7 0EB0  
                                      __ptext8 0EE7                                        __ptext9 07EA  
                               ??_setStartBlue 0076                          _OSCILLATOR_Initialize 0EC9  
                     ??_PIN_MANAGER_Initialize 0074                                      _IOCAFbits 0393  
                                    _IOCANbits 0392                                      _IOCAPbits 0391  
                                      _stopAll 0EE7                                        _stopRed 07EA  
                                      clrloop0 0EBD                           end_of_initialization 0042  
        __end_of_EUSART_SetOverrunErrorHandler 0E75                  _EUSART_SetOverrunErrorHandler 0E70  
                                      fputc@fp 0076                              __end_of_timer0ISR 0F3A  
                            _FVR_IsOutputReady 0E80                                ?_setStartYellow 0070  
                            _EUSART_Initialize 0770                             ?_FVR_IsOutputReady 0070  
                           ?_EUSART_Initialize 0070                              __end_of_vfpfcnvrt 06A8  
                                    _PWM1LDCON 0D9F                                     _singleBeep 004D  
                                    _PWM2LDCON 0DAF                                      _PWM3LDCON 0DBF  
                                    _PWM1OFCON 0DA0                                      _PWM4LDCON 0DCF  
                                    _PWM2OFCON 0DB0                                      _PWM3OFCON 0DC0  
                                    _PWM4OFCON 0DD0                          _ADC1_InterruptHandler 00E0  
                                   ??_vfprintf 0078                                     ??_stopBlue 0074  
                            __end_of_stopGreen 1000                            ??_FVR_IsOutputReady 0072  
                          ??_EUSART_Initialize 0074                              __end_of_stopMotor 07EA  
                             ??_WDT_Initialize 0072                                      _PWM1_Stop 0002  
                     _TMR0_SetInterruptHandler 0E98                                      _PORTAbits 000C  
                                    _PWM2_Stop 0E56                                      _PWM3_Stop 0E54  
                                    _PWM4_Stop 0E58                          __end_of_programStates 04EE  
                   __end_of_PWM3_LoadBufferSet 0E4A                                 __end_of_ADCISR 0EDF  
                         _batteryStatusUpdated 004E                              setStartGreen@duty 0074  
                    __end_of_FVR_IsOutputReady 0E86                      __end_of_EUSART_Initialize 0792  
                           _PWM2_LoadBufferSet 0E4C                                     _stopYellow 0EB6  
                         _battery_voltage_last 00DC                            ?_PWM2_LoadBufferSet 0070  
                         _ADC1_StartConversion 0E46                     _EUSART_DefaultErrorHandler 0000  
                                  vfpfcnvrt@ap 005F                                    vfpfcnvrt@fp 0077  
                    ?_ADC1_GetConversionResult 0070                                _battery_voltage 0042  
                                __pidataCOMMON 0E45                                 __end_of_iocISR 0EE7  
                                 _EUSART_Write 0ED0                                     ?_PWM1_Stop 0070  
                                   ?_PWM2_Stop 0070                                     ?_PWM3_Stop 0070  
                                   ?_PWM4_Stop 0070                         ?_OSCILLATOR_Initialize 0070  
                               __end_of_printf 0F1F                            start_initialization 0022  
                         ??_PWM2_LoadBufferSet 0072                                  _PWM1LDCONbits 0D9F  
                                     ??_ADCISR 0072                                    putch@txData 0073  
                                _PWM2LDCONbits 0DAF                                  _PWM3LDCONbits 0DBF  
              PWM4_DutyCycleSet@dutyCycleCount 0072                           __end_of_setStartBlue 0F7D  
                                _PWM4LDCONbits 0DCF                 ?_EUSART_SetOverrunErrorHandler 0072  
                                  vfprintf@fmt 0064                              _singleBeepCounter 003E  
                   _EUSART_FramingErrorHandler 00EA                          ?_ADC1_StartConversion 0070  
                       _EUSART_SetErrorHandler 0E6B                                       ??_iocISR 0070  
                                  __pdataBANK0 006F                                _ADC1_Initialize 0F48  
                              _battlow_counter 00A0                                       ??_printf 0079  
                                  __pbssCOMMON 007A                                      ___latbits 0001  
                                __pcstackBANK0 0059                                  __pcstackBANK1 00EC  
                  ?_IOCAF3_SetInterruptHandler 0072                                      _adc_value 0044  
             ??_IOCAF3_DefaultInterruptHandler 0070                ?_IOCAF3_DefaultInterruptHandler 0070  
                    ?_ADC1_SetInterruptHandler 0072                                   _currentState 0057  
                        _TMR0_InterruptHandler 00E2                                      __pnvBANK0 006E  
                                    __pnvBANK1 00DE                                    ?_stopYellow 0070  
                                _setStartGreen 0F7D                                   _button_state 0055  
                       _PIN_MANAGER_Initialize 06A8                PWM2_DutyCycleSet@dutyCycleCount 0072  
                                    _enableRed 0049                                       _ADC1_ISR 0EFB  
                            ??_PWM1_Initialize 0072                   ??_INTERRUPT_InterruptManager 0072  
                                  ??_PWM1_Stop 0072                                    ??_PWM2_Stop 0072  
                                  ??_PWM3_Stop 0072                                    ??_PWM4_Stop 0072  
                                  _enableGreen 004A                                      _firstTime 006F  
                                    _lastState 0056                                  _blinkRedThree 004B  
                                     ?_stopAll 0070                                       ?_stopRed 0070  
                                _TMR0_CallBack 0EF0                              _PWM1_DutyCycleSet 0EB0  
                             ??_setStartYellow 0077                                  ??_setStartRed 0076  
                            ??_TMR0_Initialize 0074                              ??_PWM2_Initialize 0072  
                           ?_PWM1_DutyCycleSet 0072                                       _LATAbits 010C  
       EUSART_SetErrorHandler@interruptHandler 0072                                       _LATCbits 010E  
                                    clear_ram0 0EBC                                       _PIE1bits 0091  
                               ?_setStartGreen 0074                              _eusartRxLastError 0058  
                   ??_TMR0_SetInterruptHandler 0074                        __end_of_ADC1_Initialize 0F59  
                                     _PIR1bits 0011                ??_EUSART_SetFramingErrorHandler 0074  
                                    _timer0ISR 0F2C                         ??_ADC1_StartConversion 0072  
                             setStartBlue@duty 0074                            ??_PWM1_DutyCycleSet 0074  
                                     _PWM1INTE 0D9C                                       _PWM1INTF 0D9D  
                                     _PWM2INTE 0DAC                                       _PWM2INTF 0DAD  
                                     _PWM3INTE 0DBC                                       _PWM3INTF 0DBD  
                                     _PWM4INTE 0DCC                                       _PWM4INTF 0DCD  
                                     _PWM1TMRH 0D9A                                       _PWM1TMRL 0D99  
                                     _PWM2TMRH 0DAA                                       _PWM2TMRL 0DA9  
                                     _PWM3TMRH 0DBA                                       _PWM3TMRL 0DB9  
                                     _PWM4TMRH 0DCA                                 _stageA_counter 0028  
                                     _PWM4TMRL 0DC9                                       _TMR0_ISR 0EC2  
            _EUSART_DefaultOverrunErrorHandler 0000                              ??_PIN_MANAGER_IOC 0070  
                               _stageB_counter 00C0                                      _vfpfcnvrt 0660  
                               _stageC_counter 00B0                              ??_TMR1_Initialize 0072  
                            ??_PWM3_Initialize 0072                                 _stageD_counter 00A8  
                                   _ADCON0bits 009D                                  ?_checkBattery 0070  
                                    _stopGreen 0FED                                      _stopMotor 07D7  
         __end_of_ADC1_DefaultInterruptHandler 0E42                   _ADC1_DefaultInterruptHandler 0E41  
                    __end_of_PWM1_DutyCycleSet 0EB6                     __end_of_PWM4_LoadBufferSet 0E52  
                               ?_TMR0_CallBack 0070                           _blinkRedThreeCounter 003A  
                            ??_PWM4_Initialize 0072               __end_of_ADC1_GetConversionResult 0E6B  
                           _PWM3_LoadBufferSet 0E48                            __end_of_setStartRed 0FA1  
                                   ?_timer0ISR 0070                                     vfprintf@ap 0066  
                                   vfprintf@fp 0067                            ?_PWM3_LoadBufferSet 0070  
                      ??_OSCILLATOR_Initialize 0072                            _EUSART_ErrorHandler 00E6  
                                   ?_vfpfcnvrt 005E                              _doubleBeepCounter 003C  
                               ??_checkBattery 0072                                     ?_stopGreen 0070  
                                   ?_stopMotor 0070                                   _setStartBlue 0F6B  
                                     __ptext10 0E58                                       __ptext11 0FED  
                                     __ptext20 0F7D                                       __ptext12 0E56  
                                     __ptext21 0E4E                                       __ptext13 0FDA  
                                     __ptext30 0660                                       __ptext22 0E4C  
                                     __ptext14 0E54                                       __ptext31 06E1  
                                     __ptext23 0EA4                                       __ptext15 0F3A  
                                     __ptext40 07C3                                       __ptext32 0E75  
                                     __ptext24 0F6B                                       __ptext16 0F8F  
                                     __ptext41 0FB4                                       __ptext33 0ED0  
                                     __ptext25 0E4A                                       __ptext17 0E52  
                                     __ptext50 0E8C                                       __ptext42 0FA1  
                                     __ptext34 0718                                       __ptext26 0E48  
                                     __ptext18 0E50                                       __ptext51 0E6B  
                                     __ptext43 0792                                       __ptext35 074C  
                                     __ptext27 0E9E                                       __ptext19 0EAA  
                                     __ptext60 0E43                                       __ptext52 0F48  
                                     __ptext44 06A8                                       __ptext36 0E62  
                                     __ptext28 0F13                                       __ptext61 0F2C  
                                     __ptext53 0E86                                       __ptext45 0E92  
                                     __ptext37 0F59                                       __ptext29 07AB  
                                     __ptext62 0E7A                                       __ptext54 0E80  
                                     __ptext46 0EC9                                       __ptext38 0FC7  
                                     __ptext63 0F1F                                       __ptext55 0E46  
                                     __ptext47 0E5E                                       __ptext39 0E98  
                                     __ptext64 0E42                                       __ptext56 0F07  
                                     __ptext48 0770                                       __ptext65 0EDF  
                                     __ptext49 0E70                                       __ptext66 0EFB  
                                     __ptext58 0EC2                                       __ptext67 0E41  
                                     __ptext59 0EF0                                       __ptext68 0ED7  
                                     __ptext69 0E66                           ??_PWM3_LoadBufferSet 0072  
                                   _IOCAF3_ISR 0F1F                              _PWM2_DutyCycleSet 0EA4  
                              ??_setStartGreen 0076                             ?_PWM2_DutyCycleSet 0072  
         __end_of_TMR0_DefaultInterruptHandler 0E44                   _TMR0_DefaultInterruptHandler 0E43  
                      ?_EUSART_SetErrorHandler 0072                               ?_ADC1_Initialize 0070  
                          _buttonPressedInProg 004F  EUSART_SetOverrunErrorHandler@interruptHandler 0072  
                          ??_PWM2_DutyCycleSet 0074                                       int$flags 007E  
                                     _vfprintf 07AB             __end_of_INTERRUPT_InterruptManager 0020  
                   _INTERRUPT_InterruptManager 0004                                       _stopBlue 0FDA  
                                    printf@fmt 006A          __end_of_EUSART_SetFramingErrorHandler 0E92  
                _EUSART_SetFramingErrorHandler 0E8C                     __end_of_ADC1_SelectChannel 0F13  
             __end_of_ADC1_SetInterruptHandler 0E8C                                     _INTCONbits 000B  
                              ??_TMR0_CallBack 0070                                    _PWM1CONbits 0D9B  
                                   _FVRCONbits 0117                                    _PWM2CONbits 0DAB  
                                  _PWM3CONbits 0DBB                                    _PWM4CONbits 0DCB  
                    __end_of_PWM2_DutyCycleSet 0EAA                                       intlevel1 0000  
                       _battery_status_counter 0040                                    _setStartRed 0F8F  
                      ?_PIN_MANAGER_Initialize 0070                 __end_of_EUSART_SetErrorHandler 0E70  
                                 ??_stopYellow 0074                                _PWM1_Initialize 0792  
                                  ??_timer0ISR 0070                  ?_TMR0_DefaultInterruptHandler 0070  
                     _ADC1_GetConversionResult 0E66         __end_of_IOCAF3_DefaultInterruptHandler 0E43  
               _IOCAF3_DefaultInterruptHandler 0E42                                       printf@ap 0079  
EUSART_SetFramingErrorHandler@interruptHandler 0072                                     _PWM1CLKCON 0D9E  
                                   _PWM2CLKCON 0DAE                                     _PWM3CLKCON 0DBE  
                                   _PWM4CLKCON 0DCE                                    ??_vfpfcnvrt 0060  
                                __pstringtext1 07FD                                  __pstringtext2 0808  
                                __pstringtext3 0813                                  __pstringtext4 0000  
                               _FVR_Initialize 0E5E                                     _OPTION_REG 0095  
                   __end_of_PWM1_LoadBufferSet 0E5C                                    ??_stopGreen 0074  
                              _TMR0_Initialize 0FC7                                _PWM2_Initialize 0FA1  
                                  ??_stopMotor 0074                                  _programStates 0046  
                           __end_of_stopYellow 0EBC                                     _PWM1_Start 0E5C  
                                   _PWM2_Start 0E4E                                     _PWM3_Start 0E4A  
                                   _PWM4_Start 0E52                                    _pressedTime 0030  
                                  ?_IOCAF3_ISR 0070                             EUSART_Write@txData 0072  
               __end_of_PIN_MANAGER_Initialize 06E1                              _PWM3_DutyCycleSet 0E9E  
                             _StageWakeUpTimer 00C8                                _PIN_MANAGER_IOC 0E7A  
                           ?_PWM3_DutyCycleSet 0072                           __end_of_checkBattery 074C  
                      _IOCAF3_InterruptHandler 00E4                                _TMR1_Initialize 0F59  
                              _PWM3_Initialize 0FB4  
