

Microchip MPLAB XC8 Assembler V2.40 build 20220703182018 
                                                                                               Thu Jun 15 23:13:58 2023

Microchip MPLAB XC8 C Compiler v2.40 (Free license) build 20220703182018 Og1 
     1                           	processor	16F15386
     2                           	pagewidth 120
     3                           	opt	flic
     4                           	psect	idataBANK3,global,class=CODE,delta=2,noexec
     5                           	psect	idataBANK4,global,class=CODE,delta=2,noexec
     6                           	psect	idataBANK5,global,class=CODE,delta=2,noexec
     7                           	psect	stringtext1,global,class=STRCODE,delta=2,noexec
     8                           	psect	stringtext2,global,class=STRCODE,delta=2,noexec
     9                           	psect	nvBANK3,global,class=BANK3,space=1,delta=1,noexec
    10                           	psect	cinit,global,class=CODE,merge=1,delta=2
    11                           	psect	bssCOMMON,global,class=COMMON,space=1,delta=1,noexec
    12                           	psect	bssBANK0,global,class=BANK0,space=1,delta=1,noexec
    13                           	psect	bssBANK2,global,class=BANK2,space=1,delta=1,noexec
    14                           	psect	bssBANK3,global,class=BANK3,space=1,delta=1,noexec
    15                           	psect	dataBANK3,global,class=BANK3,space=1,delta=1,noexec
    16                           	psect	bssBANK4,global,class=BANK4,space=1,delta=1,noexec
    17                           	psect	dataBANK4,global,class=BANK4,space=1,delta=1,noexec
    18                           	psect	bssBANK5,global,class=BANK5,space=1,delta=1,noexec
    19                           	psect	dataBANK5,global,class=BANK5,space=1,delta=1,noexec
    20                           	psect	bssBANK6,global,class=BANK6,space=1,delta=1,noexec
    21                           	psect	bssBANK7,global,class=BANK7,space=1,delta=1,noexec
    22                           	psect	bssBANK8,global,class=BANK8,space=1,delta=1,noexec
    23                           	psect	bssBANK9,global,class=BANK9,space=1,delta=1,noexec
    24                           	psect	inittext,global,class=CODE,delta=2
    25                           	psect	clrtext,global,class=CODE,delta=2
    26                           	psect	cstackBANK4,global,class=BANK4,space=1,delta=1,noexec
    27                           	psect	cstackBANK3,global,class=BANK3,space=1,delta=1,noexec
    28                           	psect	cstackBANK2,global,class=BANK2,space=1,delta=1,noexec
    29                           	psect	cstackBANK1,global,class=BANK1,space=1,delta=1,noexec
    30                           	psect	cstackCOMMON,global,class=COMMON,space=1,delta=1,noexec
    31                           	psect	cstackBANK0,global,class=BANK0,space=1,delta=1,noexec
    32                           	psect	maintext,global,class=CODE,merge=1,split=1,delta=2
    33                           	psect	text1,local,class=CODE,merge=1,delta=2
    34                           	psect	text2,local,class=CODE,merge=1,delta=2
    35                           	psect	text3,local,class=CODE,merge=1,delta=2
    36                           	psect	text4,local,class=CODE,merge=1,delta=2
    37                           	psect	text5,local,class=CODE,merge=1,delta=2
    38                           	psect	text6,local,class=CODE,merge=1,delta=2
    39                           	psect	text7,local,class=CODE,merge=1,delta=2
    40                           	psect	text8,local,class=CODE,merge=1,delta=2
    41                           	psect	text9,local,class=CODE,merge=1,delta=2
    42                           	psect	text10,local,class=CODE,merge=1,delta=2
    43                           	psect	text11,local,class=CODE,merge=1,delta=2
    44                           	psect	text12,local,class=CODE,merge=1,delta=2,group=1
    45                           	psect	text13,local,class=CODE,merge=1,delta=2
    46                           	psect	text14,local,class=CODE,merge=1,delta=2
    47                           	psect	text15,local,class=CODE,merge=1,delta=2
    48                           	psect	text16,local,class=CODE,merge=1,delta=2
    49                           	psect	text17,local,class=CODE,merge=1,delta=2
    50                           	psect	text18,local,class=CODE,merge=1,delta=2
    51                           	psect	text19,local,class=CODE,merge=1,delta=2
    52                           	psect	text20,local,class=CODE,merge=1,delta=2
    53                           	psect	text21,local,class=CODE,merge=1,delta=2
    54                           	psect	text22,local,class=CODE,merge=1,delta=2
    55                           	psect	text23,local,class=CODE,merge=1,delta=2
    56                           	psect	text24,local,class=CODE,merge=1,delta=2
    57                           	psect	text25,local,class=CODE,merge=1,delta=2
    58                           	psect	text26,local,class=CODE,merge=1,delta=2
    59                           	psect	text27,local,class=CODE,merge=1,delta=2
    60                           	psect	text28,local,class=CODE,merge=1,delta=2
    61                           	psect	text29,local,class=CODE,merge=1,delta=2
    62                           	psect	text30,local,class=CODE,merge=1,delta=2
    63                           	psect	text31,local,class=CODE,merge=1,delta=2
    64                           	psect	text32,local,class=CODE,merge=1,delta=2
    65                           	psect	intentry,global,class=CODE,delta=2
    66                           	psect	text34,local,class=CODE,merge=1,delta=2
    67                           	psect	text35,local,class=CODE,merge=1,delta=2
    68                           	psect	text36,local,class=CODE,merge=1,delta=2
    69                           	psect	text37,local,class=CODE,merge=1,delta=2
    70                           	psect	text38,local,class=CODE,merge=1,delta=2
    71                           	psect	idloc,global,abs,ovrld,class=IDLOC,space=5,delta=2,noexec
    72                           	psect	config,global,abs,ovrld,class=CONFIG,space=4,delta=2,noexec
    73                           	dabs	1,0xCA0,32
    74                           	dabs	1,0xC20,80
    75                           	dabs	1,0xBA0,80
    76                           	dabs	1,0xB68,8
    77                           	dabs	1,0x2728,0,_my_circ_buf_data_space
    78                           	dabs	1,0x7E,2
    79     0000                     
    80                           ; Generated 22/03/2023 GMT
    81                           ; 
    82                           ; Copyright © 2023, Microchip Technology Inc. and its subsidiaries ("Microchip")
    83                           ; All rights reserved.
    84                           ; 
    85                           ; This software is developed by Microchip Technology Inc. and its subsidiaries ("Microch
      +                          ip").
    86                           ; 
    87                           ; Redistribution and use in source and binary forms, with or without modification, are
    88                           ; permitted provided that the following conditions are met:
    89                           ; 
    90                           ;     1. Redistributions of source code must retain the above copyright notice, this lis
      +                          t of
    91                           ;        conditions and the following disclaimer.
    92                           ; 
    93                           ;     2. Redistributions in binary form must reproduce the above copyright notice, this 
      +                          list
    94                           ;        of conditions and the following disclaimer in the documentation and/or other
    95                           ;        materials provided with the distribution. Publication is not required when
    96                           ;        this file is used in an embedded application.
    97                           ; 
    98                           ;     3. Microchip's name may not be used to endorse or promote products derived from th
      +                          is
    99                           ;        software without specific prior written permission.
   100                           ; 
   101                           ; THIS SOFTWARE IS PROVIDED BY MICROCHIP "AS IS" AND ANY EXPRESS OR IMPLIED WARRANTIES,
   102                           ; INCLUDING, BUT NOT LIMITED TO, THE IMPLIED WARRANTIES OF MERCHANTABILITY AND FITNESS F
      +                          OR
   103                           ; PURPOSE ARE DISCLAIMED.  IN NO EVENT SHALL MICROCHIP BE LIABLE FOR ANY DIRECT, INDIREC
      +                          T,
   104                           ; INCIDENTAL, SPECIAL, EXEMPLARY, OR CONSEQUENTIAL DAMAGES (INCLUDING BUT NOT LIMITED TO
   105                           ; PROCUREMENT OF SUBSTITUTE GOODS OR SERVICES; LOSS OF USE, DATA OR PROFITS; OR BUSINESS
   106                           ; INTERRUPTION) HOWSOEVER CAUSED AND ON ANY THEORY OF LIABILITY, WHETHER IN CONTRACT, ST
      +                          RICT
   107                           ; LIABILITY, OR TORT (INCLUDING NEGLIGENCE OR OTHERWISE) ARISING IN ANY WAY OUT OF THE U
      +                          SE OF
   108                           ; THIS SOFTWARE, EVEN IF ADVISED OF THE POSSIBILITY OF SUCH DAMAGE.
   109                           ; 
   110                           ; 
   111                           ; Code-generator required, PIC16F15386 Definitions
   112                           ; 
   113                           ; SFR Addresses
   114     0000                     	;# 
   115     0001                     	;# 
   116     0002                     	;# 
   117     0003                     	;# 
   118     0004                     	;# 
   119     0005                     	;# 
   120     0006                     	;# 
   121     0007                     	;# 
   122     0008                     	;# 
   123     0009                     	;# 
   124     000A                     	;# 
   125     000B                     	;# 
   126     000C                     	;# 
   127     000D                     	;# 
   128     000E                     	;# 
   129     000F                     	;# 
   130     0010                     	;# 
   131     0011                     	;# 
   132     0012                     	;# 
   133     0013                     	;# 
   134     0014                     	;# 
   135     0015                     	;# 
   136     0016                     	;# 
   137     0017                     	;# 
   138     0018                     	;# 
   139     0019                     	;# 
   140     001A                     	;# 
   141     001B                     	;# 
   142     001C                     	;# 
   143     001D                     	;# 
   144     009B                     	;# 
   145     009B                     	;# 
   146     009C                     	;# 
   147     009D                     	;# 
   148     009E                     	;# 
   149     009F                     	;# 
   150     0119                     	;# 
   151     0119                     	;# 
   152     0119                     	;# 
   153     011A                     	;# 
   154     011A                     	;# 
   155     011A                     	;# 
   156     011B                     	;# 
   157     011B                     	;# 
   158     011B                     	;# 
   159     011B                     	;# 
   160     011B                     	;# 
   161     011C                     	;# 
   162     011C                     	;# 
   163     011C                     	;# 
   164     011D                     	;# 
   165     011D                     	;# 
   166     011D                     	;# 
   167     011E                     	;# 
   168     011E                     	;# 
   169     011E                     	;# 
   170     011F                     	;# 
   171     011F                     	;# 
   172     011F                     	;# 
   173     011F                     	;# 
   174     011F                     	;# 
   175     018C                     	;# 
   176     018D                     	;# 
   177     018E                     	;# 
   178     018F                     	;# 
   179     0190                     	;# 
   180     0191                     	;# 
   181     0192                     	;# 
   182     0196                     	;# 
   183     0197                     	;# 
   184     0198                     	;# 
   185     0199                     	;# 
   186     019A                     	;# 
   187     019B                     	;# 
   188     019C                     	;# 
   189     020C                     	;# 
   190     020C                     	;# 
   191     020D                     	;# 
   192     020E                     	;# 
   193     020F                     	;# 
   194     020F                     	;# 
   195     0210                     	;# 
   196     0210                     	;# 
   197     0211                     	;# 
   198     0211                     	;# 
   199     028C                     	;# 
   200     028C                     	;# 
   201     028D                     	;# 
   202     028D                     	;# 
   203     028E                     	;# 
   204     028F                     	;# 
   205     0290                     	;# 
   206     0291                     	;# 
   207     030C                     	;# 
   208     030C                     	;# 
   209     030D                     	;# 
   210     030E                     	;# 
   211     030F                     	;# 
   212     0310                     	;# 
   213     0310                     	;# 
   214     0311                     	;# 
   215     0312                     	;# 
   216     0313                     	;# 
   217     0314                     	;# 
   218     0314                     	;# 
   219     0315                     	;# 
   220     0316                     	;# 
   221     0318                     	;# 
   222     0318                     	;# 
   223     0319                     	;# 
   224     031A                     	;# 
   225     031C                     	;# 
   226     031C                     	;# 
   227     031D                     	;# 
   228     031E                     	;# 
   229     038C                     	;# 
   230     038C                     	;# 
   231     038D                     	;# 
   232     038E                     	;# 
   233     058C                     	;# 
   234     058C                     	;# 
   235     058D                     	;# 
   236     058E                     	;# 
   237     058F                     	;# 
   238     058F                     	;# 
   239     0590                     	;# 
   240     0591                     	;# 
   241     0592                     	;# 
   242     0593                     	;# 
   243     059C                     	;# 
   244     059C                     	;# 
   245     059D                     	;# 
   246     059D                     	;# 
   247     059E                     	;# 
   248     059F                     	;# 
   249     060C                     	;# 
   250     060D                     	;# 
   251     060E                     	;# 
   252     060F                     	;# 
   253     0610                     	;# 
   254     0611                     	;# 
   255     0612                     	;# 
   256     0613                     	;# 
   257     0614                     	;# 
   258     070C                     	;# 
   259     070D                     	;# 
   260     070E                     	;# 
   261     070F                     	;# 
   262     0710                     	;# 
   263     0711                     	;# 
   264     0712                     	;# 
   265     0713                     	;# 
   266     0716                     	;# 
   267     0717                     	;# 
   268     0718                     	;# 
   269     0719                     	;# 
   270     071A                     	;# 
   271     071B                     	;# 
   272     071C                     	;# 
   273     071D                     	;# 
   274     0796                     	;# 
   275     0797                     	;# 
   276     0798                     	;# 
   277     0799                     	;# 
   278     079A                     	;# 
   279     079B                     	;# 
   280     080C                     	;# 
   281     080D                     	;# 
   282     080E                     	;# 
   283     080F                     	;# 
   284     0810                     	;# 
   285     0811                     	;# 
   286     0812                     	;# 
   287     0813                     	;# 
   288     0814                     	;# 
   289     081A                     	;# 
   290     081A                     	;# 
   291     081B                     	;# 
   292     081C                     	;# 
   293     081C                     	;# 
   294     081D                     	;# 
   295     081E                     	;# 
   296     081F                     	;# 
   297     088C                     	;# 
   298     088D                     	;# 
   299     088E                     	;# 
   300     088F                     	;# 
   301     0890                     	;# 
   302     0891                     	;# 
   303     0892                     	;# 
   304     0893                     	;# 
   305     0895                     	;# 
   306     0896                     	;# 
   307     090C                     	;# 
   308     090E                     	;# 
   309     090F                     	;# 
   310     091F                     	;# 
   311     098F                     	;# 
   312     098F                     	;# 
   313     0990                     	;# 
   314     0991                     	;# 
   315     0992                     	;# 
   316     0993                     	;# 
   317     0994                     	;# 
   318     0995                     	;# 
   319     0996                     	;# 
   320     0997                     	;# 
   321     0A19                     	;# 
   322     0A19                     	;# 
   323     0A1A                     	;# 
   324     0A1A                     	;# 
   325     0A1B                     	;# 
   326     0A1B                     	;# 
   327     0A1B                     	;# 
   328     0A1C                     	;# 
   329     0A1C                     	;# 
   330     0A1D                     	;# 
   331     0A1D                     	;# 
   332     0A1E                     	;# 
   333     0A1E                     	;# 
   334     0A1F                     	;# 
   335     0A1F                     	;# 
   336     0A1F                     	;# 
   337     1E0F                     	;# 
   338     1E10                     	;# 
   339     1E11                     	;# 
   340     1E12                     	;# 
   341     1E13                     	;# 
   342     1E14                     	;# 
   343     1E15                     	;# 
   344     1E16                     	;# 
   345     1E17                     	;# 
   346     1E18                     	;# 
   347     1E19                     	;# 
   348     1E1A                     	;# 
   349     1E1B                     	;# 
   350     1E1C                     	;# 
   351     1E1D                     	;# 
   352     1E1E                     	;# 
   353     1E1F                     	;# 
   354     1E20                     	;# 
   355     1E21                     	;# 
   356     1E22                     	;# 
   357     1E23                     	;# 
   358     1E24                     	;# 
   359     1E25                     	;# 
   360     1E26                     	;# 
   361     1E27                     	;# 
   362     1E28                     	;# 
   363     1E29                     	;# 
   364     1E2A                     	;# 
   365     1E2B                     	;# 
   366     1E2C                     	;# 
   367     1E2D                     	;# 
   368     1E2E                     	;# 
   369     1E2F                     	;# 
   370     1E30                     	;# 
   371     1E31                     	;# 
   372     1E32                     	;# 
   373     1E33                     	;# 
   374     1E34                     	;# 
   375     1E35                     	;# 
   376     1E36                     	;# 
   377     1E37                     	;# 
   378     1E38                     	;# 
   379     1E39                     	;# 
   380     1E3A                     	;# 
   381     1E3B                     	;# 
   382     1E3C                     	;# 
   383     1E3D                     	;# 
   384     1E3E                     	;# 
   385     1E3F                     	;# 
   386     1E50                     	;# 
   387     1E51                     	;# 
   388     1E52                     	;# 
   389     1E53                     	;# 
   390     1E54                     	;# 
   391     1E8F                     	;# 
   392     1E90                     	;# 
   393     1E91                     	;# 
   394     1E92                     	;# 
   395     1E93                     	;# 
   396     1E9C                     	;# 
   397     1EA1                     	;# 
   398     1EA2                     	;# 
   399     1EB1                     	;# 
   400     1EBB                     	;# 
   401     1EBC                     	;# 
   402     1EBD                     	;# 
   403     1EBE                     	;# 
   404     1EC3                     	;# 
   405     1EC5                     	;# 
   406     1EC6                     	;# 
   407     1EC7                     	;# 
   408     1EC8                     	;# 
   409     1EC9                     	;# 
   410     1ECA                     	;# 
   411     1ECB                     	;# 
   412     1ECC                     	;# 
   413     1ECD                     	;# 
   414     1ECE                     	;# 
   415     1F10                     	;# 
   416     1F11                     	;# 
   417     1F12                     	;# 
   418     1F13                     	;# 
   419     1F14                     	;# 
   420     1F15                     	;# 
   421     1F16                     	;# 
   422     1F17                     	;# 
   423     1F18                     	;# 
   424     1F19                     	;# 
   425     1F1A                     	;# 
   426     1F1B                     	;# 
   427     1F1C                     	;# 
   428     1F1D                     	;# 
   429     1F1E                     	;# 
   430     1F1F                     	;# 
   431     1F20                     	;# 
   432     1F21                     	;# 
   433     1F22                     	;# 
   434     1F23                     	;# 
   435     1F24                     	;# 
   436     1F25                     	;# 
   437     1F26                     	;# 
   438     1F27                     	;# 
   439     1F28                     	;# 
   440     1F29                     	;# 
   441     1F2A                     	;# 
   442     1F2B                     	;# 
   443     1F2C                     	;# 
   444     1F2D                     	;# 
   445     1F2E                     	;# 
   446     1F2F                     	;# 
   447     1F30                     	;# 
   448     1F31                     	;# 
   449     1F32                     	;# 
   450     1F38                     	;# 
   451     1F39                     	;# 
   452     1F3A                     	;# 
   453     1F3B                     	;# 
   454     1F3C                     	;# 
   455     1F3D                     	;# 
   456     1F3E                     	;# 
   457     1F3F                     	;# 
   458     1F43                     	;# 
   459     1F44                     	;# 
   460     1F45                     	;# 
   461     1F46                     	;# 
   462     1F47                     	;# 
   463     1F48                     	;# 
   464     1F49                     	;# 
   465     1F4A                     	;# 
   466     1F4E                     	;# 
   467     1F4F                     	;# 
   468     1F50                     	;# 
   469     1F51                     	;# 
   470     1F52                     	;# 
   471     1F53                     	;# 
   472     1F54                     	;# 
   473     1F55                     	;# 
   474     1F59                     	;# 
   475     1F5A                     	;# 
   476     1F5B                     	;# 
   477     1F5C                     	;# 
   478     1F5D                     	;# 
   479     1F64                     	;# 
   480     1F65                     	;# 
   481     1F66                     	;# 
   482     1F67                     	;# 
   483     1F68                     	;# 
   484     1F69                     	;# 
   485     1F6A                     	;# 
   486     1F6B                     	;# 
   487     1FE4                     	;# 
   488     1FE5                     	;# 
   489     1FE6                     	;# 
   490     1FE7                     	;# 
   491     1FE8                     	;# 
   492     1FE8                     	;# 
   493     1FE9                     	;# 
   494     1FEA                     	;# 
   495     1FEB                     	;# 
   496     1FED                     	;# 
   497     1FEE                     	;# 
   498     1FEF                     	;# 
   499     0000                     	;# 
   500     0001                     	;# 
   501     0002                     	;# 
   502     0003                     	;# 
   503     0004                     	;# 
   504     0005                     	;# 
   505     0006                     	;# 
   506     0007                     	;# 
   507     0008                     	;# 
   508     0009                     	;# 
   509     000A                     	;# 
   510     000B                     	;# 
   511     000C                     	;# 
   512     000D                     	;# 
   513     000E                     	;# 
   514     000F                     	;# 
   515     0010                     	;# 
   516     0011                     	;# 
   517     0012                     	;# 
   518     0013                     	;# 
   519     0014                     	;# 
   520     0015                     	;# 
   521     0016                     	;# 
   522     0017                     	;# 
   523     0018                     	;# 
   524     0019                     	;# 
   525     001A                     	;# 
   526     001B                     	;# 
   527     001C                     	;# 
   528     001D                     	;# 
   529     009B                     	;# 
   530     009B                     	;# 
   531     009C                     	;# 
   532     009D                     	;# 
   533     009E                     	;# 
   534     009F                     	;# 
   535     0119                     	;# 
   536     0119                     	;# 
   537     0119                     	;# 
   538     011A                     	;# 
   539     011A                     	;# 
   540     011A                     	;# 
   541     011B                     	;# 
   542     011B                     	;# 
   543     011B                     	;# 
   544     011B                     	;# 
   545     011B                     	;# 
   546     011C                     	;# 
   547     011C                     	;# 
   548     011C                     	;# 
   549     011D                     	;# 
   550     011D                     	;# 
   551     011D                     	;# 
   552     011E                     	;# 
   553     011E                     	;# 
   554     011E                     	;# 
   555     011F                     	;# 
   556     011F                     	;# 
   557     011F                     	;# 
   558     011F                     	;# 
   559     011F                     	;# 
   560     018C                     	;# 
   561     018D                     	;# 
   562     018E                     	;# 
   563     018F                     	;# 
   564     0190                     	;# 
   565     0191                     	;# 
   566     0192                     	;# 
   567     0196                     	;# 
   568     0197                     	;# 
   569     0198                     	;# 
   570     0199                     	;# 
   571     019A                     	;# 
   572     019B                     	;# 
   573     019C                     	;# 
   574     020C                     	;# 
   575     020C                     	;# 
   576     020D                     	;# 
   577     020E                     	;# 
   578     020F                     	;# 
   579     020F                     	;# 
   580     0210                     	;# 
   581     0210                     	;# 
   582     0211                     	;# 
   583     0211                     	;# 
   584     028C                     	;# 
   585     028C                     	;# 
   586     028D                     	;# 
   587     028D                     	;# 
   588     028E                     	;# 
   589     028F                     	;# 
   590     0290                     	;# 
   591     0291                     	;# 
   592     030C                     	;# 
   593     030C                     	;# 
   594     030D                     	;# 
   595     030E                     	;# 
   596     030F                     	;# 
   597     0310                     	;# 
   598     0310                     	;# 
   599     0311                     	;# 
   600     0312                     	;# 
   601     0313                     	;# 
   602     0314                     	;# 
   603     0314                     	;# 
   604     0315                     	;# 
   605     0316                     	;# 
   606     0318                     	;# 
   607     0318                     	;# 
   608     0319                     	;# 
   609     031A                     	;# 
   610     031C                     	;# 
   611     031C                     	;# 
   612     031D                     	;# 
   613     031E                     	;# 
   614     038C                     	;# 
   615     038C                     	;# 
   616     038D                     	;# 
   617     038E                     	;# 
   618     058C                     	;# 
   619     058C                     	;# 
   620     058D                     	;# 
   621     058E                     	;# 
   622     058F                     	;# 
   623     058F                     	;# 
   624     0590                     	;# 
   625     0591                     	;# 
   626     0592                     	;# 
   627     0593                     	;# 
   628     059C                     	;# 
   629     059C                     	;# 
   630     059D                     	;# 
   631     059D                     	;# 
   632     059E                     	;# 
   633     059F                     	;# 
   634     060C                     	;# 
   635     060D                     	;# 
   636     060E                     	;# 
   637     060F                     	;# 
   638     0610                     	;# 
   639     0611                     	;# 
   640     0612                     	;# 
   641     0613                     	;# 
   642     0614                     	;# 
   643     070C                     	;# 
   644     070D                     	;# 
   645     070E                     	;# 
   646     070F                     	;# 
   647     0710                     	;# 
   648     0711                     	;# 
   649     0712                     	;# 
   650     0713                     	;# 
   651     0716                     	;# 
   652     0717                     	;# 
   653     0718                     	;# 
   654     0719                     	;# 
   655     071A                     	;# 
   656     071B                     	;# 
   657     071C                     	;# 
   658     071D                     	;# 
   659     0796                     	;# 
   660     0797                     	;# 
   661     0798                     	;# 
   662     0799                     	;# 
   663     079A                     	;# 
   664     079B                     	;# 
   665     080C                     	;# 
   666     080D                     	;# 
   667     080E                     	;# 
   668     080F                     	;# 
   669     0810                     	;# 
   670     0811                     	;# 
   671     0812                     	;# 
   672     0813                     	;# 
   673     0814                     	;# 
   674     081A                     	;# 
   675     081A                     	;# 
   676     081B                     	;# 
   677     081C                     	;# 
   678     081C                     	;# 
   679     081D                     	;# 
   680     081E                     	;# 
   681     081F                     	;# 
   682     088C                     	;# 
   683     088D                     	;# 
   684     088E                     	;# 
   685     088F                     	;# 
   686     0890                     	;# 
   687     0891                     	;# 
   688     0892                     	;# 
   689     0893                     	;# 
   690     0895                     	;# 
   691     0896                     	;# 
   692     090C                     	;# 
   693     090E                     	;# 
   694     090F                     	;# 
   695     091F                     	;# 
   696     098F                     	;# 
   697     098F                     	;# 
   698     0990                     	;# 
   699     0991                     	;# 
   700     0992                     	;# 
   701     0993                     	;# 
   702     0994                     	;# 
   703     0995                     	;# 
   704     0996                     	;# 
   705     0997                     	;# 
   706     0A19                     	;# 
   707     0A19                     	;# 
   708     0A1A                     	;# 
   709     0A1A                     	;# 
   710     0A1B                     	;# 
   711     0A1B                     	;# 
   712     0A1B                     	;# 
   713     0A1C                     	;# 
   714     0A1C                     	;# 
   715     0A1D                     	;# 
   716     0A1D                     	;# 
   717     0A1E                     	;# 
   718     0A1E                     	;# 
   719     0A1F                     	;# 
   720     0A1F                     	;# 
   721     0A1F                     	;# 
   722     1E0F                     	;# 
   723     1E10                     	;# 
   724     1E11                     	;# 
   725     1E12                     	;# 
   726     1E13                     	;# 
   727     1E14                     	;# 
   728     1E15                     	;# 
   729     1E16                     	;# 
   730     1E17                     	;# 
   731     1E18                     	;# 
   732     1E19                     	;# 
   733     1E1A                     	;# 
   734     1E1B                     	;# 
   735     1E1C                     	;# 
   736     1E1D                     	;# 
   737     1E1E                     	;# 
   738     1E1F                     	;# 
   739     1E20                     	;# 
   740     1E21                     	;# 
   741     1E22                     	;# 
   742     1E23                     	;# 
   743     1E24                     	;# 
   744     1E25                     	;# 
   745     1E26                     	;# 
   746     1E27                     	;# 
   747     1E28                     	;# 
   748     1E29                     	;# 
   749     1E2A                     	;# 
   750     1E2B                     	;# 
   751     1E2C                     	;# 
   752     1E2D                     	;# 
   753     1E2E                     	;# 
   754     1E2F                     	;# 
   755     1E30                     	;# 
   756     1E31                     	;# 
   757     1E32                     	;# 
   758     1E33                     	;# 
   759     1E34                     	;# 
   760     1E35                     	;# 
   761     1E36                     	;# 
   762     1E37                     	;# 
   763     1E38                     	;# 
   764     1E39                     	;# 
   765     1E3A                     	;# 
   766     1E3B                     	;# 
   767     1E3C                     	;# 
   768     1E3D                     	;# 
   769     1E3E                     	;# 
   770     1E3F                     	;# 
   771     1E50                     	;# 
   772     1E51                     	;# 
   773     1E52                     	;# 
   774     1E53                     	;# 
   775     1E54                     	;# 
   776     1E8F                     	;# 
   777     1E90                     	;# 
   778     1E91                     	;# 
   779     1E92                     	;# 
   780     1E93                     	;# 
   781     1E9C                     	;# 
   782     1EA1                     	;# 
   783     1EA2                     	;# 
   784     1EB1                     	;# 
   785     1EBB                     	;# 
   786     1EBC                     	;# 
   787     1EBD                     	;# 
   788     1EBE                     	;# 
   789     1EC3                     	;# 
   790     1EC5                     	;# 
   791     1EC6                     	;# 
   792     1EC7                     	;# 
   793     1EC8                     	;# 
   794     1EC9                     	;# 
   795     1ECA                     	;# 
   796     1ECB                     	;# 
   797     1ECC                     	;# 
   798     1ECD                     	;# 
   799     1ECE                     	;# 
   800     1F10                     	;# 
   801     1F11                     	;# 
   802     1F12                     	;# 
   803     1F13                     	;# 
   804     1F14                     	;# 
   805     1F15                     	;# 
   806     1F16                     	;# 
   807     1F17                     	;# 
   808     1F18                     	;# 
   809     1F19                     	;# 
   810     1F1A                     	;# 
   811     1F1B                     	;# 
   812     1F1C                     	;# 
   813     1F1D                     	;# 
   814     1F1E                     	;# 
   815     1F1F                     	;# 
   816     1F20                     	;# 
   817     1F21                     	;# 
   818     1F22                     	;# 
   819     1F23                     	;# 
   820     1F24                     	;# 
   821     1F25                     	;# 
   822     1F26                     	;# 
   823     1F27                     	;# 
   824     1F28                     	;# 
   825     1F29                     	;# 
   826     1F2A                     	;# 
   827     1F2B                     	;# 
   828     1F2C                     	;# 
   829     1F2D                     	;# 
   830     1F2E                     	;# 
   831     1F2F                     	;# 
   832     1F30                     	;# 
   833     1F31                     	;# 
   834     1F32                     	;# 
   835     1F38                     	;# 
   836     1F39                     	;# 
   837     1F3A                     	;# 
   838     1F3B                     	;# 
   839     1F3C                     	;# 
   840     1F3D                     	;# 
   841     1F3E                     	;# 
   842     1F3F                     	;# 
   843     1F43                     	;# 
   844     1F44                     	;# 
   845     1F45                     	;# 
   846     1F46                     	;# 
   847     1F47                     	;# 
   848     1F48                     	;# 
   849     1F49                     	;# 
   850     1F4A                     	;# 
   851     1F4E                     	;# 
   852     1F4F                     	;# 
   853     1F50                     	;# 
   854     1F51                     	;# 
   855     1F52                     	;# 
   856     1F53                     	;# 
   857     1F54                     	;# 
   858     1F55                     	;# 
   859     1F59                     	;# 
   860     1F5A                     	;# 
   861     1F5B                     	;# 
   862     1F5C                     	;# 
   863     1F5D                     	;# 
   864     1F64                     	;# 
   865     1F65                     	;# 
   866     1F66                     	;# 
   867     1F67                     	;# 
   868     1F68                     	;# 
   869     1F69                     	;# 
   870     1F6A                     	;# 
   871     1F6B                     	;# 
   872     1FE4                     	;# 
   873     1FE5                     	;# 
   874     1FE6                     	;# 
   875     1FE7                     	;# 
   876     1FE8                     	;# 
   877     1FE8                     	;# 
   878     1FE9                     	;# 
   879     1FEA                     	;# 
   880     1FEB                     	;# 
   881     1FED                     	;# 
   882     1FEE                     	;# 
   883     1FEF                     	;# 
   884     0000                     	;# 
   885     0001                     	;# 
   886     0002                     	;# 
   887     0003                     	;# 
   888     0004                     	;# 
   889     0005                     	;# 
   890     0006                     	;# 
   891     0007                     	;# 
   892     0008                     	;# 
   893     0009                     	;# 
   894     000A                     	;# 
   895     000B                     	;# 
   896     000C                     	;# 
   897     000D                     	;# 
   898     000E                     	;# 
   899     000F                     	;# 
   900     0010                     	;# 
   901     0011                     	;# 
   902     0012                     	;# 
   903     0013                     	;# 
   904     0014                     	;# 
   905     0015                     	;# 
   906     0016                     	;# 
   907     0017                     	;# 
   908     0018                     	;# 
   909     0019                     	;# 
   910     001A                     	;# 
   911     001B                     	;# 
   912     001C                     	;# 
   913     001D                     	;# 
   914     009B                     	;# 
   915     009B                     	;# 
   916     009C                     	;# 
   917     009D                     	;# 
   918     009E                     	;# 
   919     009F                     	;# 
   920     0119                     	;# 
   921     0119                     	;# 
   922     0119                     	;# 
   923     011A                     	;# 
   924     011A                     	;# 
   925     011A                     	;# 
   926     011B                     	;# 
   927     011B                     	;# 
   928     011B                     	;# 
   929     011B                     	;# 
   930     011B                     	;# 
   931     011C                     	;# 
   932     011C                     	;# 
   933     011C                     	;# 
   934     011D                     	;# 
   935     011D                     	;# 
   936     011D                     	;# 
   937     011E                     	;# 
   938     011E                     	;# 
   939     011E                     	;# 
   940     011F                     	;# 
   941     011F                     	;# 
   942     011F                     	;# 
   943     011F                     	;# 
   944     011F                     	;# 
   945     018C                     	;# 
   946     018D                     	;# 
   947     018E                     	;# 
   948     018F                     	;# 
   949     0190                     	;# 
   950     0191                     	;# 
   951     0192                     	;# 
   952     0196                     	;# 
   953     0197                     	;# 
   954     0198                     	;# 
   955     0199                     	;# 
   956     019A                     	;# 
   957     019B                     	;# 
   958     019C                     	;# 
   959     020C                     	;# 
   960     020C                     	;# 
   961     020D                     	;# 
   962     020E                     	;# 
   963     020F                     	;# 
   964     020F                     	;# 
   965     0210                     	;# 
   966     0210                     	;# 
   967     0211                     	;# 
   968     0211                     	;# 
   969     028C                     	;# 
   970     028C                     	;# 
   971     028D                     	;# 
   972     028D                     	;# 
   973     028E                     	;# 
   974     028F                     	;# 
   975     0290                     	;# 
   976     0291                     	;# 
   977     030C                     	;# 
   978     030C                     	;# 
   979     030D                     	;# 
   980     030E                     	;# 
   981     030F                     	;# 
   982     0310                     	;# 
   983     0310                     	;# 
   984     0311                     	;# 
   985     0312                     	;# 
   986     0313                     	;# 
   987     0314                     	;# 
   988     0314                     	;# 
   989     0315                     	;# 
   990     0316                     	;# 
   991     0318                     	;# 
   992     0318                     	;# 
   993     0319                     	;# 
   994     031A                     	;# 
   995     031C                     	;# 
   996     031C                     	;# 
   997     031D                     	;# 
   998     031E                     	;# 
   999     038C                     	;# 
  1000     038C                     	;# 
  1001     038D                     	;# 
  1002     038E                     	;# 
  1003     058C                     	;# 
  1004     058C                     	;# 
  1005     058D                     	;# 
  1006     058E                     	;# 
  1007     058F                     	;# 
  1008     058F                     	;# 
  1009     0590                     	;# 
  1010     0591                     	;# 
  1011     0592                     	;# 
  1012     0593                     	;# 
  1013     059C                     	;# 
  1014     059C                     	;# 
  1015     059D                     	;# 
  1016     059D                     	;# 
  1017     059E                     	;# 
  1018     059F                     	;# 
  1019     060C                     	;# 
  1020     060D                     	;# 
  1021     060E                     	;# 
  1022     060F                     	;# 
  1023     0610                     	;# 
  1024     0611                     	;# 
  1025     0612                     	;# 
  1026     0613                     	;# 
  1027     0614                     	;# 
  1028     070C                     	;# 
  1029     070D                     	;# 
  1030     070E                     	;# 
  1031     070F                     	;# 
  1032     0710                     	;# 
  1033     0711                     	;# 
  1034     0712                     	;# 
  1035     0713                     	;# 
  1036     0716                     	;# 
  1037     0717                     	;# 
  1038     0718                     	;# 
  1039     0719                     	;# 
  1040     071A                     	;# 
  1041     071B                     	;# 
  1042     071C                     	;# 
  1043     071D                     	;# 
  1044     0796                     	;# 
  1045     0797                     	;# 
  1046     0798                     	;# 
  1047     0799                     	;# 
  1048     079A                     	;# 
  1049     079B                     	;# 
  1050     080C                     	;# 
  1051     080D                     	;# 
  1052     080E                     	;# 
  1053     080F                     	;# 
  1054     0810                     	;# 
  1055     0811                     	;# 
  1056     0812                     	;# 
  1057     0813                     	;# 
  1058     0814                     	;# 
  1059     081A                     	;# 
  1060     081A                     	;# 
  1061     081B                     	;# 
  1062     081C                     	;# 
  1063     081C                     	;# 
  1064     081D                     	;# 
  1065     081E                     	;# 
  1066     081F                     	;# 
  1067     088C                     	;# 
  1068     088D                     	;# 
  1069     088E                     	;# 
  1070     088F                     	;# 
  1071     0890                     	;# 
  1072     0891                     	;# 
  1073     0892                     	;# 
  1074     0893                     	;# 
  1075     0895                     	;# 
  1076     0896                     	;# 
  1077     090C                     	;# 
  1078     090E                     	;# 
  1079     090F                     	;# 
  1080     091F                     	;# 
  1081     098F                     	;# 
  1082     098F                     	;# 
  1083     0990                     	;# 
  1084     0991                     	;# 
  1085     0992                     	;# 
  1086     0993                     	;# 
  1087     0994                     	;# 
  1088     0995                     	;# 
  1089     0996                     	;# 
  1090     0997                     	;# 
  1091     0A19                     	;# 
  1092     0A19                     	;# 
  1093     0A1A                     	;# 
  1094     0A1A                     	;# 
  1095     0A1B                     	;# 
  1096     0A1B                     	;# 
  1097     0A1B                     	;# 
  1098     0A1C                     	;# 
  1099     0A1C                     	;# 
  1100     0A1D                     	;# 
  1101     0A1D                     	;# 
  1102     0A1E                     	;# 
  1103     0A1E                     	;# 
  1104     0A1F                     	;# 
  1105     0A1F                     	;# 
  1106     0A1F                     	;# 
  1107     1E0F                     	;# 
  1108     1E10                     	;# 
  1109     1E11                     	;# 
  1110     1E12                     	;# 
  1111     1E13                     	;# 
  1112     1E14                     	;# 
  1113     1E15                     	;# 
  1114     1E16                     	;# 
  1115     1E17                     	;# 
  1116     1E18                     	;# 
  1117     1E19                     	;# 
  1118     1E1A                     	;# 
  1119     1E1B                     	;# 
  1120     1E1C                     	;# 
  1121     1E1D                     	;# 
  1122     1E1E                     	;# 
  1123     1E1F                     	;# 
  1124     1E20                     	;# 
  1125     1E21                     	;# 
  1126     1E22                     	;# 
  1127     1E23                     	;# 
  1128     1E24                     	;# 
  1129     1E25                     	;# 
  1130     1E26                     	;# 
  1131     1E27                     	;# 
  1132     1E28                     	;# 
  1133     1E29                     	;# 
  1134     1E2A                     	;# 
  1135     1E2B                     	;# 
  1136     1E2C                     	;# 
  1137     1E2D                     	;# 
  1138     1E2E                     	;# 
  1139     1E2F                     	;# 
  1140     1E30                     	;# 
  1141     1E31                     	;# 
  1142     1E32                     	;# 
  1143     1E33                     	;# 
  1144     1E34                     	;# 
  1145     1E35                     	;# 
  1146     1E36                     	;# 
  1147     1E37                     	;# 
  1148     1E38                     	;# 
  1149     1E39                     	;# 
  1150     1E3A                     	;# 
  1151     1E3B                     	;# 
  1152     1E3C                     	;# 
  1153     1E3D                     	;# 
  1154     1E3E                     	;# 
  1155     1E3F                     	;# 
  1156     1E50                     	;# 
  1157     1E51                     	;# 
  1158     1E52                     	;# 
  1159     1E53                     	;# 
  1160     1E54                     	;# 
  1161     1E8F                     	;# 
  1162     1E90                     	;# 
  1163     1E91                     	;# 
  1164     1E92                     	;# 
  1165     1E93                     	;# 
  1166     1E9C                     	;# 
  1167     1EA1                     	;# 
  1168     1EA2                     	;# 
  1169     1EB1                     	;# 
  1170     1EBB                     	;# 
  1171     1EBC                     	;# 
  1172     1EBD                     	;# 
  1173     1EBE                     	;# 
  1174     1EC3                     	;# 
  1175     1EC5                     	;# 
  1176     1EC6                     	;# 
  1177     1EC7                     	;# 
  1178     1EC8                     	;# 
  1179     1EC9                     	;# 
  1180     1ECA                     	;# 
  1181     1ECB                     	;# 
  1182     1ECC                     	;# 
  1183     1ECD                     	;# 
  1184     1ECE                     	;# 
  1185     1F10                     	;# 
  1186     1F11                     	;# 
  1187     1F12                     	;# 
  1188     1F13                     	;# 
  1189     1F14                     	;# 
  1190     1F15                     	;# 
  1191     1F16                     	;# 
  1192     1F17                     	;# 
  1193     1F18                     	;# 
  1194     1F19                     	;# 
  1195     1F1A                     	;# 
  1196     1F1B                     	;# 
  1197     1F1C                     	;# 
  1198     1F1D                     	;# 
  1199     1F1E                     	;# 
  1200     1F1F                     	;# 
  1201     1F20                     	;# 
  1202     1F21                     	;# 
  1203     1F22                     	;# 
  1204     1F23                     	;# 
  1205     1F24                     	;# 
  1206     1F25                     	;# 
  1207     1F26                     	;# 
  1208     1F27                     	;# 
  1209     1F28                     	;# 
  1210     1F29                     	;# 
  1211     1F2A                     	;# 
  1212     1F2B                     	;# 
  1213     1F2C                     	;# 
  1214     1F2D                     	;# 
  1215     1F2E                     	;# 
  1216     1F2F                     	;# 
  1217     1F30                     	;# 
  1218     1F31                     	;# 
  1219     1F32                     	;# 
  1220     1F38                     	;# 
  1221     1F39                     	;# 
  1222     1F3A                     	;# 
  1223     1F3B                     	;# 
  1224     1F3C                     	;# 
  1225     1F3D                     	;# 
  1226     1F3E                     	;# 
  1227     1F3F                     	;# 
  1228     1F43                     	;# 
  1229     1F44                     	;# 
  1230     1F45                     	;# 
  1231     1F46                     	;# 
  1232     1F47                     	;# 
  1233     1F48                     	;# 
  1234     1F49                     	;# 
  1235     1F4A                     	;# 
  1236     1F4E                     	;# 
  1237     1F4F                     	;# 
  1238     1F50                     	;# 
  1239     1F51                     	;# 
  1240     1F52                     	;# 
  1241     1F53                     	;# 
  1242     1F54                     	;# 
  1243     1F55                     	;# 
  1244     1F59                     	;# 
  1245     1F5A                     	;# 
  1246     1F5B                     	;# 
  1247     1F5C                     	;# 
  1248     1F5D                     	;# 
  1249     1F64                     	;# 
  1250     1F65                     	;# 
  1251     1F66                     	;# 
  1252     1F67                     	;# 
  1253     1F68                     	;# 
  1254     1F69                     	;# 
  1255     1F6A                     	;# 
  1256     1F6B                     	;# 
  1257     1FE4                     	;# 
  1258     1FE5                     	;# 
  1259     1FE6                     	;# 
  1260     1FE7                     	;# 
  1261     1FE8                     	;# 
  1262     1FE8                     	;# 
  1263     1FE9                     	;# 
  1264     1FEA                     	;# 
  1265     1FEB                     	;# 
  1266     1FED                     	;# 
  1267     1FEE                     	;# 
  1268     1FEF                     	;# 
  1269     0000                     	;# 
  1270     0001                     	;# 
  1271     0002                     	;# 
  1272     0003                     	;# 
  1273     0004                     	;# 
  1274     0005                     	;# 
  1275     0006                     	;# 
  1276     0007                     	;# 
  1277     0008                     	;# 
  1278     0009                     	;# 
  1279     000A                     	;# 
  1280     000B                     	;# 
  1281     000C                     	;# 
  1282     000D                     	;# 
  1283     000E                     	;# 
  1284     000F                     	;# 
  1285     0010                     	;# 
  1286     0011                     	;# 
  1287     0012                     	;# 
  1288     0013                     	;# 
  1289     0014                     	;# 
  1290     0015                     	;# 
  1291     0016                     	;# 
  1292     0017                     	;# 
  1293     0018                     	;# 
  1294     0019                     	;# 
  1295     001A                     	;# 
  1296     001B                     	;# 
  1297     001C                     	;# 
  1298     001D                     	;# 
  1299     009B                     	;# 
  1300     009B                     	;# 
  1301     009C                     	;# 
  1302     009D                     	;# 
  1303     009E                     	;# 
  1304     009F                     	;# 
  1305     0119                     	;# 
  1306     0119                     	;# 
  1307     0119                     	;# 
  1308     011A                     	;# 
  1309     011A                     	;# 
  1310     011A                     	;# 
  1311     011B                     	;# 
  1312     011B                     	;# 
  1313     011B                     	;# 
  1314     011B                     	;# 
  1315     011B                     	;# 
  1316     011C                     	;# 
  1317     011C                     	;# 
  1318     011C                     	;# 
  1319     011D                     	;# 
  1320     011D                     	;# 
  1321     011D                     	;# 
  1322     011E                     	;# 
  1323     011E                     	;# 
  1324     011E                     	;# 
  1325     011F                     	;# 
  1326     011F                     	;# 
  1327     011F                     	;# 
  1328     011F                     	;# 
  1329     011F                     	;# 
  1330     018C                     	;# 
  1331     018D                     	;# 
  1332     018E                     	;# 
  1333     018F                     	;# 
  1334     0190                     	;# 
  1335     0191                     	;# 
  1336     0192                     	;# 
  1337     0196                     	;# 
  1338     0197                     	;# 
  1339     0198                     	;# 
  1340     0199                     	;# 
  1341     019A                     	;# 
  1342     019B                     	;# 
  1343     019C                     	;# 
  1344     020C                     	;# 
  1345     020C                     	;# 
  1346     020D                     	;# 
  1347     020E                     	;# 
  1348     020F                     	;# 
  1349     020F                     	;# 
  1350     0210                     	;# 
  1351     0210                     	;# 
  1352     0211                     	;# 
  1353     0211                     	;# 
  1354     028C                     	;# 
  1355     028C                     	;# 
  1356     028D                     	;# 
  1357     028D                     	;# 
  1358     028E                     	;# 
  1359     028F                     	;# 
  1360     0290                     	;# 
  1361     0291                     	;# 
  1362     030C                     	;# 
  1363     030C                     	;# 
  1364     030D                     	;# 
  1365     030E                     	;# 
  1366     030F                     	;# 
  1367     0310                     	;# 
  1368     0310                     	;# 
  1369     0311                     	;# 
  1370     0312                     	;# 
  1371     0313                     	;# 
  1372     0314                     	;# 
  1373     0314                     	;# 
  1374     0315                     	;# 
  1375     0316                     	;# 
  1376     0318                     	;# 
  1377     0318                     	;# 
  1378     0319                     	;# 
  1379     031A                     	;# 
  1380     031C                     	;# 
  1381     031C                     	;# 
  1382     031D                     	;# 
  1383     031E                     	;# 
  1384     038C                     	;# 
  1385     038C                     	;# 
  1386     038D                     	;# 
  1387     038E                     	;# 
  1388     058C                     	;# 
  1389     058C                     	;# 
  1390     058D                     	;# 
  1391     058E                     	;# 
  1392     058F                     	;# 
  1393     058F                     	;# 
  1394     0590                     	;# 
  1395     0591                     	;# 
  1396     0592                     	;# 
  1397     0593                     	;# 
  1398     059C                     	;# 
  1399     059C                     	;# 
  1400     059D                     	;# 
  1401     059D                     	;# 
  1402     059E                     	;# 
  1403     059F                     	;# 
  1404     060C                     	;# 
  1405     060D                     	;# 
  1406     060E                     	;# 
  1407     060F                     	;# 
  1408     0610                     	;# 
  1409     0611                     	;# 
  1410     0612                     	;# 
  1411     0613                     	;# 
  1412     0614                     	;# 
  1413     070C                     	;# 
  1414     070D                     	;# 
  1415     070E                     	;# 
  1416     070F                     	;# 
  1417     0710                     	;# 
  1418     0711                     	;# 
  1419     0712                     	;# 
  1420     0713                     	;# 
  1421     0716                     	;# 
  1422     0717                     	;# 
  1423     0718                     	;# 
  1424     0719                     	;# 
  1425     071A                     	;# 
  1426     071B                     	;# 
  1427     071C                     	;# 
  1428     071D                     	;# 
  1429     0796                     	;# 
  1430     0797                     	;# 
  1431     0798                     	;# 
  1432     0799                     	;# 
  1433     079A                     	;# 
  1434     079B                     	;# 
  1435     080C                     	;# 
  1436     080D                     	;# 
  1437     080E                     	;# 
  1438     080F                     	;# 
  1439     0810                     	;# 
  1440     0811                     	;# 
  1441     0812                     	;# 
  1442     0813                     	;# 
  1443     0814                     	;# 
  1444     081A                     	;# 
  1445     081A                     	;# 
  1446     081B                     	;# 
  1447     081C                     	;# 
  1448     081C                     	;# 
  1449     081D                     	;# 
  1450     081E                     	;# 
  1451     081F                     	;# 
  1452     088C                     	;# 
  1453     088D                     	;# 
  1454     088E                     	;# 
  1455     088F                     	;# 
  1456     0890                     	;# 
  1457     0891                     	;# 
  1458     0892                     	;# 
  1459     0893                     	;# 
  1460     0895                     	;# 
  1461     0896                     	;# 
  1462     090C                     	;# 
  1463     090E                     	;# 
  1464     090F                     	;# 
  1465     091F                     	;# 
  1466     098F                     	;# 
  1467     098F                     	;# 
  1468     0990                     	;# 
  1469     0991                     	;# 
  1470     0992                     	;# 
  1471     0993                     	;# 
  1472     0994                     	;# 
  1473     0995                     	;# 
  1474     0996                     	;# 
  1475     0997                     	;# 
  1476     0A19                     	;# 
  1477     0A19                     	;# 
  1478     0A1A                     	;# 
  1479     0A1A                     	;# 
  1480     0A1B                     	;# 
  1481     0A1B                     	;# 
  1482     0A1B                     	;# 
  1483     0A1C                     	;# 
  1484     0A1C                     	;# 
  1485     0A1D                     	;# 
  1486     0A1D                     	;# 
  1487     0A1E                     	;# 
  1488     0A1E                     	;# 
  1489     0A1F                     	;# 
  1490     0A1F                     	;# 
  1491     0A1F                     	;# 
  1492     1E0F                     	;# 
  1493     1E10                     	;# 
  1494     1E11                     	;# 
  1495     1E12                     	;# 
  1496     1E13                     	;# 
  1497     1E14                     	;# 
  1498     1E15                     	;# 
  1499     1E16                     	;# 
  1500     1E17                     	;# 
  1501     1E18                     	;# 
  1502     1E19                     	;# 
  1503     1E1A                     	;# 
  1504     1E1B                     	;# 
  1505     1E1C                     	;# 
  1506     1E1D                     	;# 
  1507     1E1E                     	;# 
  1508     1E1F                     	;# 
  1509     1E20                     	;# 
  1510     1E21                     	;# 
  1511     1E22                     	;# 
  1512     1E23                     	;# 
  1513     1E24                     	;# 
  1514     1E25                     	;# 
  1515     1E26                     	;# 
  1516     1E27                     	;# 
  1517     1E28                     	;# 
  1518     1E29                     	;# 
  1519     1E2A                     	;# 
  1520     1E2B                     	;# 
  1521     1E2C                     	;# 
  1522     1E2D                     	;# 
  1523     1E2E                     	;# 
  1524     1E2F                     	;# 
  1525     1E30                     	;# 
  1526     1E31                     	;# 
  1527     1E32                     	;# 
  1528     1E33                     	;# 
  1529     1E34                     	;# 
  1530     1E35                     	;# 
  1531     1E36                     	;# 
  1532     1E37                     	;# 
  1533     1E38                     	;# 
  1534     1E39                     	;# 
  1535     1E3A                     	;# 
  1536     1E3B                     	;# 
  1537     1E3C                     	;# 
  1538     1E3D                     	;# 
  1539     1E3E                     	;# 
  1540     1E3F                     	;# 
  1541     1E50                     	;# 
  1542     1E51                     	;# 
  1543     1E52                     	;# 
  1544     1E53                     	;# 
  1545     1E54                     	;# 
  1546     1E8F                     	;# 
  1547     1E90                     	;# 
  1548     1E91                     	;# 
  1549     1E92                     	;# 
  1550     1E93                     	;# 
  1551     1E9C                     	;# 
  1552     1EA1                     	;# 
  1553     1EA2                     	;# 
  1554     1EB1                     	;# 
  1555     1EBB                     	;# 
  1556     1EBC                     	;# 
  1557     1EBD                     	;# 
  1558     1EBE                     	;# 
  1559     1EC3                     	;# 
  1560     1EC5                     	;# 
  1561     1EC6                     	;# 
  1562     1EC7                     	;# 
  1563     1EC8                     	;# 
  1564     1EC9                     	;# 
  1565     1ECA                     	;# 
  1566     1ECB                     	;# 
  1567     1ECC                     	;# 
  1568     1ECD                     	;# 
  1569     1ECE                     	;# 
  1570     1F10                     	;# 
  1571     1F11                     	;# 
  1572     1F12                     	;# 
  1573     1F13                     	;# 
  1574     1F14                     	;# 
  1575     1F15                     	;# 
  1576     1F16                     	;# 
  1577     1F17                     	;# 
  1578     1F18                     	;# 
  1579     1F19                     	;# 
  1580     1F1A                     	;# 
  1581     1F1B                     	;# 
  1582     1F1C                     	;# 
  1583     1F1D                     	;# 
  1584     1F1E                     	;# 
  1585     1F1F                     	;# 
  1586     1F20                     	;# 
  1587     1F21                     	;# 
  1588     1F22                     	;# 
  1589     1F23                     	;# 
  1590     1F24                     	;# 
  1591     1F25                     	;# 
  1592     1F26                     	;# 
  1593     1F27                     	;# 
  1594     1F28                     	;# 
  1595     1F29                     	;# 
  1596     1F2A                     	;# 
  1597     1F2B                     	;# 
  1598     1F2C                     	;# 
  1599     1F2D                     	;# 
  1600     1F2E                     	;# 
  1601     1F2F                     	;# 
  1602     1F30                     	;# 
  1603     1F31                     	;# 
  1604     1F32                     	;# 
  1605     1F38                     	;# 
  1606     1F39                     	;# 
  1607     1F3A                     	;# 
  1608     1F3B                     	;# 
  1609     1F3C                     	;# 
  1610     1F3D                     	;# 
  1611     1F3E                     	;# 
  1612     1F3F                     	;# 
  1613     1F43                     	;# 
  1614     1F44                     	;# 
  1615     1F45                     	;# 
  1616     1F46                     	;# 
  1617     1F47                     	;# 
  1618     1F48                     	;# 
  1619     1F49                     	;# 
  1620     1F4A                     	;# 
  1621     1F4E                     	;# 
  1622     1F4F                     	;# 
  1623     1F50                     	;# 
  1624     1F51                     	;# 
  1625     1F52                     	;# 
  1626     1F53                     	;# 
  1627     1F54                     	;# 
  1628     1F55                     	;# 
  1629     1F59                     	;# 
  1630     1F5A                     	;# 
  1631     1F5B                     	;# 
  1632     1F5C                     	;# 
  1633     1F5D                     	;# 
  1634     1F64                     	;# 
  1635     1F65                     	;# 
  1636     1F66                     	;# 
  1637     1F67                     	;# 
  1638     1F68                     	;# 
  1639     1F69                     	;# 
  1640     1F6A                     	;# 
  1641     1F6B                     	;# 
  1642     1FE4                     	;# 
  1643     1FE5                     	;# 
  1644     1FE6                     	;# 
  1645     1FE7                     	;# 
  1646     1FE8                     	;# 
  1647     1FE8                     	;# 
  1648     1FE9                     	;# 
  1649     1FEA                     	;# 
  1650     1FEB                     	;# 
  1651     1FED                     	;# 
  1652     1FEE                     	;# 
  1653     1FEF                     	;# 
  1654     0000                     	;# 
  1655     0001                     	;# 
  1656     0002                     	;# 
  1657     0003                     	;# 
  1658     0004                     	;# 
  1659     0005                     	;# 
  1660     0006                     	;# 
  1661     0007                     	;# 
  1662     0008                     	;# 
  1663     0009                     	;# 
  1664     000A                     	;# 
  1665     000B                     	;# 
  1666     000C                     	;# 
  1667     000D                     	;# 
  1668     000E                     	;# 
  1669     000F                     	;# 
  1670     0010                     	;# 
  1671     0011                     	;# 
  1672     0012                     	;# 
  1673     0013                     	;# 
  1674     0014                     	;# 
  1675     0015                     	;# 
  1676     0016                     	;# 
  1677     0017                     	;# 
  1678     0018                     	;# 
  1679     0019                     	;# 
  1680     001A                     	;# 
  1681     001B                     	;# 
  1682     001C                     	;# 
  1683     001D                     	;# 
  1684     009B                     	;# 
  1685     009B                     	;# 
  1686     009C                     	;# 
  1687     009D                     	;# 
  1688     009E                     	;# 
  1689     009F                     	;# 
  1690     0119                     	;# 
  1691     0119                     	;# 
  1692     0119                     	;# 
  1693     011A                     	;# 
  1694     011A                     	;# 
  1695     011A                     	;# 
  1696     011B                     	;# 
  1697     011B                     	;# 
  1698     011B                     	;# 
  1699     011B                     	;# 
  1700     011B                     	;# 
  1701     011C                     	;# 
  1702     011C                     	;# 
  1703     011C                     	;# 
  1704     011D                     	;# 
  1705     011D                     	;# 
  1706     011D                     	;# 
  1707     011E                     	;# 
  1708     011E                     	;# 
  1709     011E                     	;# 
  1710     011F                     	;# 
  1711     011F                     	;# 
  1712     011F                     	;# 
  1713     011F                     	;# 
  1714     011F                     	;# 
  1715     018C                     	;# 
  1716     018D                     	;# 
  1717     018E                     	;# 
  1718     018F                     	;# 
  1719     0190                     	;# 
  1720     0191                     	;# 
  1721     0192                     	;# 
  1722     0196                     	;# 
  1723     0197                     	;# 
  1724     0198                     	;# 
  1725     0199                     	;# 
  1726     019A                     	;# 
  1727     019B                     	;# 
  1728     019C                     	;# 
  1729     020C                     	;# 
  1730     020C                     	;# 
  1731     020D                     	;# 
  1732     020E                     	;# 
  1733     020F                     	;# 
  1734     020F                     	;# 
  1735     0210                     	;# 
  1736     0210                     	;# 
  1737     0211                     	;# 
  1738     0211                     	;# 
  1739     028C                     	;# 
  1740     028C                     	;# 
  1741     028D                     	;# 
  1742     028D                     	;# 
  1743     028E                     	;# 
  1744     028F                     	;# 
  1745     0290                     	;# 
  1746     0291                     	;# 
  1747     030C                     	;# 
  1748     030C                     	;# 
  1749     030D                     	;# 
  1750     030E                     	;# 
  1751     030F                     	;# 
  1752     0310                     	;# 
  1753     0310                     	;# 
  1754     0311                     	;# 
  1755     0312                     	;# 
  1756     0313                     	;# 
  1757     0314                     	;# 
  1758     0314                     	;# 
  1759     0315                     	;# 
  1760     0316                     	;# 
  1761     0318                     	;# 
  1762     0318                     	;# 
  1763     0319                     	;# 
  1764     031A                     	;# 
  1765     031C                     	;# 
  1766     031C                     	;# 
  1767     031D                     	;# 
  1768     031E                     	;# 
  1769     038C                     	;# 
  1770     038C                     	;# 
  1771     038D                     	;# 
  1772     038E                     	;# 
  1773     058C                     	;# 
  1774     058C                     	;# 
  1775     058D                     	;# 
  1776     058E                     	;# 
  1777     058F                     	;# 
  1778     058F                     	;# 
  1779     0590                     	;# 
  1780     0591                     	;# 
  1781     0592                     	;# 
  1782     0593                     	;# 
  1783     059C                     	;# 
  1784     059C                     	;# 
  1785     059D                     	;# 
  1786     059D                     	;# 
  1787     059E                     	;# 
  1788     059F                     	;# 
  1789     060C                     	;# 
  1790     060D                     	;# 
  1791     060E                     	;# 
  1792     060F                     	;# 
  1793     0610                     	;# 
  1794     0611                     	;# 
  1795     0612                     	;# 
  1796     0613                     	;# 
  1797     0614                     	;# 
  1798     070C                     	;# 
  1799     070D                     	;# 
  1800     070E                     	;# 
  1801     070F                     	;# 
  1802     0710                     	;# 
  1803     0711                     	;# 
  1804     0712                     	;# 
  1805     0713                     	;# 
  1806     0716                     	;# 
  1807     0717                     	;# 
  1808     0718                     	;# 
  1809     0719                     	;# 
  1810     071A                     	;# 
  1811     071B                     	;# 
  1812     071C                     	;# 
  1813     071D                     	;# 
  1814     0796                     	;# 
  1815     0797                     	;# 
  1816     0798                     	;# 
  1817     0799                     	;# 
  1818     079A                     	;# 
  1819     079B                     	;# 
  1820     080C                     	;# 
  1821     080D                     	;# 
  1822     080E                     	;# 
  1823     080F                     	;# 
  1824     0810                     	;# 
  1825     0811                     	;# 
  1826     0812                     	;# 
  1827     0813                     	;# 
  1828     0814                     	;# 
  1829     081A                     	;# 
  1830     081A                     	;# 
  1831     081B                     	;# 
  1832     081C                     	;# 
  1833     081C                     	;# 
  1834     081D                     	;# 
  1835     081E                     	;# 
  1836     081F                     	;# 
  1837     088C                     	;# 
  1838     088D                     	;# 
  1839     088E                     	;# 
  1840     088F                     	;# 
  1841     0890                     	;# 
  1842     0891                     	;# 
  1843     0892                     	;# 
  1844     0893                     	;# 
  1845     0895                     	;# 
  1846     0896                     	;# 
  1847     090C                     	;# 
  1848     090E                     	;# 
  1849     090F                     	;# 
  1850     091F                     	;# 
  1851     098F                     	;# 
  1852     098F                     	;# 
  1853     0990                     	;# 
  1854     0991                     	;# 
  1855     0992                     	;# 
  1856     0993                     	;# 
  1857     0994                     	;# 
  1858     0995                     	;# 
  1859     0996                     	;# 
  1860     0997                     	;# 
  1861     0A19                     	;# 
  1862     0A19                     	;# 
  1863     0A1A                     	;# 
  1864     0A1A                     	;# 
  1865     0A1B                     	;# 
  1866     0A1B                     	;# 
  1867     0A1B                     	;# 
  1868     0A1C                     	;# 
  1869     0A1C                     	;# 
  1870     0A1D                     	;# 
  1871     0A1D                     	;# 
  1872     0A1E                     	;# 
  1873     0A1E                     	;# 
  1874     0A1F                     	;# 
  1875     0A1F                     	;# 
  1876     0A1F                     	;# 
  1877     1E0F                     	;# 
  1878     1E10                     	;# 
  1879     1E11                     	;# 
  1880     1E12                     	;# 
  1881     1E13                     	;# 
  1882     1E14                     	;# 
  1883     1E15                     	;# 
  1884     1E16                     	;# 
  1885     1E17                     	;# 
  1886     1E18                     	;# 
  1887     1E19                     	;# 
  1888     1E1A                     	;# 
  1889     1E1B                     	;# 
  1890     1E1C                     	;# 
  1891     1E1D                     	;# 
  1892     1E1E                     	;# 
  1893     1E1F                     	;# 
  1894     1E20                     	;# 
  1895     1E21                     	;# 
  1896     1E22                     	;# 
  1897     1E23                     	;# 
  1898     1E24                     	;# 
  1899     1E25                     	;# 
  1900     1E26                     	;# 
  1901     1E27                     	;# 
  1902     1E28                     	;# 
  1903     1E29                     	;# 
  1904     1E2A                     	;# 
  1905     1E2B                     	;# 
  1906     1E2C                     	;# 
  1907     1E2D                     	;# 
  1908     1E2E                     	;# 
  1909     1E2F                     	;# 
  1910     1E30                     	;# 
  1911     1E31                     	;# 
  1912     1E32                     	;# 
  1913     1E33                     	;# 
  1914     1E34                     	;# 
  1915     1E35                     	;# 
  1916     1E36                     	;# 
  1917     1E37                     	;# 
  1918     1E38                     	;# 
  1919     1E39                     	;# 
  1920     1E3A                     	;# 
  1921     1E3B                     	;# 
  1922     1E3C                     	;# 
  1923     1E3D                     	;# 
  1924     1E3E                     	;# 
  1925     1E3F                     	;# 
  1926     1E50                     	;# 
  1927     1E51                     	;# 
  1928     1E52                     	;# 
  1929     1E53                     	;# 
  1930     1E54                     	;# 
  1931     1E8F                     	;# 
  1932     1E90                     	;# 
  1933     1E91                     	;# 
  1934     1E92                     	;# 
  1935     1E93                     	;# 
  1936     1E9C                     	;# 
  1937     1EA1                     	;# 
  1938     1EA2                     	;# 
  1939     1EB1                     	;# 
  1940     1EBB                     	;# 
  1941     1EBC                     	;# 
  1942     1EBD                     	;# 
  1943     1EBE                     	;# 
  1944     1EC3                     	;# 
  1945     1EC5                     	;# 
  1946     1EC6                     	;# 
  1947     1EC7                     	;# 
  1948     1EC8                     	;# 
  1949     1EC9                     	;# 
  1950     1ECA                     	;# 
  1951     1ECB                     	;# 
  1952     1ECC                     	;# 
  1953     1ECD                     	;# 
  1954     1ECE                     	;# 
  1955     1F10                     	;# 
  1956     1F11                     	;# 
  1957     1F12                     	;# 
  1958     1F13                     	;# 
  1959     1F14                     	;# 
  1960     1F15                     	;# 
  1961     1F16                     	;# 
  1962     1F17                     	;# 
  1963     1F18                     	;# 
  1964     1F19                     	;# 
  1965     1F1A                     	;# 
  1966     1F1B                     	;# 
  1967     1F1C                     	;# 
  1968     1F1D                     	;# 
  1969     1F1E                     	;# 
  1970     1F1F                     	;# 
  1971     1F20                     	;# 
  1972     1F21                     	;# 
  1973     1F22                     	;# 
  1974     1F23                     	;# 
  1975     1F24                     	;# 
  1976     1F25                     	;# 
  1977     1F26                     	;# 
  1978     1F27                     	;# 
  1979     1F28                     	;# 
  1980     1F29                     	;# 
  1981     1F2A                     	;# 
  1982     1F2B                     	;# 
  1983     1F2C                     	;# 
  1984     1F2D                     	;# 
  1985     1F2E                     	;# 
  1986     1F2F                     	;# 
  1987     1F30                     	;# 
  1988     1F31                     	;# 
  1989     1F32                     	;# 
  1990     1F38                     	;# 
  1991     1F39                     	;# 
  1992     1F3A                     	;# 
  1993     1F3B                     	;# 
  1994     1F3C                     	;# 
  1995     1F3D                     	;# 
  1996     1F3E                     	;# 
  1997     1F3F                     	;# 
  1998     1F43                     	;# 
  1999     1F44                     	;# 
  2000     1F45                     	;# 
  2001     1F46                     	;# 
  2002     1F47                     	;# 
  2003     1F48                     	;# 
  2004     1F49                     	;# 
  2005     1F4A                     	;# 
  2006     1F4E                     	;# 
  2007     1F4F                     	;# 
  2008     1F50                     	;# 
  2009     1F51                     	;# 
  2010     1F52                     	;# 
  2011     1F53                     	;# 
  2012     1F54                     	;# 
  2013     1F55                     	;# 
  2014     1F59                     	;# 
  2015     1F5A                     	;# 
  2016     1F5B                     	;# 
  2017     1F5C                     	;# 
  2018     1F5D                     	;# 
  2019     1F64                     	;# 
  2020     1F65                     	;# 
  2021     1F66                     	;# 
  2022     1F67                     	;# 
  2023     1F68                     	;# 
  2024     1F69                     	;# 
  2025     1F6A                     	;# 
  2026     1F6B                     	;# 
  2027     1FE4                     	;# 
  2028     1FE5                     	;# 
  2029     1FE6                     	;# 
  2030     1FE7                     	;# 
  2031     1FE8                     	;# 
  2032     1FE8                     	;# 
  2033     1FE9                     	;# 
  2034     1FEA                     	;# 
  2035     1FEB                     	;# 
  2036     1FED                     	;# 
  2037     1FEE                     	;# 
  2038     1FEF                     	;# 
  2039     0000                     	;# 
  2040     0001                     	;# 
  2041     0002                     	;# 
  2042     0003                     	;# 
  2043     0004                     	;# 
  2044     0005                     	;# 
  2045     0006                     	;# 
  2046     0007                     	;# 
  2047     0008                     	;# 
  2048     0009                     	;# 
  2049     000A                     	;# 
  2050     000B                     	;# 
  2051     000C                     	;# 
  2052     000D                     	;# 
  2053     000E                     	;# 
  2054     000F                     	;# 
  2055     0010                     	;# 
  2056     0011                     	;# 
  2057     0012                     	;# 
  2058     0013                     	;# 
  2059     0014                     	;# 
  2060     0015                     	;# 
  2061     0016                     	;# 
  2062     0017                     	;# 
  2063     0018                     	;# 
  2064     0019                     	;# 
  2065     001A                     	;# 
  2066     001B                     	;# 
  2067     001C                     	;# 
  2068     001D                     	;# 
  2069     009B                     	;# 
  2070     009B                     	;# 
  2071     009C                     	;# 
  2072     009D                     	;# 
  2073     009E                     	;# 
  2074     009F                     	;# 
  2075     0119                     	;# 
  2076     0119                     	;# 
  2077     0119                     	;# 
  2078     011A                     	;# 
  2079     011A                     	;# 
  2080     011A                     	;# 
  2081     011B                     	;# 
  2082     011B                     	;# 
  2083     011B                     	;# 
  2084     011B                     	;# 
  2085     011B                     	;# 
  2086     011C                     	;# 
  2087     011C                     	;# 
  2088     011C                     	;# 
  2089     011D                     	;# 
  2090     011D                     	;# 
  2091     011D                     	;# 
  2092     011E                     	;# 
  2093     011E                     	;# 
  2094     011E                     	;# 
  2095     011F                     	;# 
  2096     011F                     	;# 
  2097     011F                     	;# 
  2098     011F                     	;# 
  2099     011F                     	;# 
  2100     018C                     	;# 
  2101     018D                     	;# 
  2102     018E                     	;# 
  2103     018F                     	;# 
  2104     0190                     	;# 
  2105     0191                     	;# 
  2106     0192                     	;# 
  2107     0196                     	;# 
  2108     0197                     	;# 
  2109     0198                     	;# 
  2110     0199                     	;# 
  2111     019A                     	;# 
  2112     019B                     	;# 
  2113     019C                     	;# 
  2114     020C                     	;# 
  2115     020C                     	;# 
  2116     020D                     	;# 
  2117     020E                     	;# 
  2118     020F                     	;# 
  2119     020F                     	;# 
  2120     0210                     	;# 
  2121     0210                     	;# 
  2122     0211                     	;# 
  2123     0211                     	;# 
  2124     028C                     	;# 
  2125     028C                     	;# 
  2126     028D                     	;# 
  2127     028D                     	;# 
  2128     028E                     	;# 
  2129     028F                     	;# 
  2130     0290                     	;# 
  2131     0291                     	;# 
  2132     030C                     	;# 
  2133     030C                     	;# 
  2134     030D                     	;# 
  2135     030E                     	;# 
  2136     030F                     	;# 
  2137     0310                     	;# 
  2138     0310                     	;# 
  2139     0311                     	;# 
  2140     0312                     	;# 
  2141     0313                     	;# 
  2142     0314                     	;# 
  2143     0314                     	;# 
  2144     0315                     	;# 
  2145     0316                     	;# 
  2146     0318                     	;# 
  2147     0318                     	;# 
  2148     0319                     	;# 
  2149     031A                     	;# 
  2150     031C                     	;# 
  2151     031C                     	;# 
  2152     031D                     	;# 
  2153     031E                     	;# 
  2154     038C                     	;# 
  2155     038C                     	;# 
  2156     038D                     	;# 
  2157     038E                     	;# 
  2158     058C                     	;# 
  2159     058C                     	;# 
  2160     058D                     	;# 
  2161     058E                     	;# 
  2162     058F                     	;# 
  2163     058F                     	;# 
  2164     0590                     	;# 
  2165     0591                     	;# 
  2166     0592                     	;# 
  2167     0593                     	;# 
  2168     059C                     	;# 
  2169     059C                     	;# 
  2170     059D                     	;# 
  2171     059D                     	;# 
  2172     059E                     	;# 
  2173     059F                     	;# 
  2174     060C                     	;# 
  2175     060D                     	;# 
  2176     060E                     	;# 
  2177     060F                     	;# 
  2178     0610                     	;# 
  2179     0611                     	;# 
  2180     0612                     	;# 
  2181     0613                     	;# 
  2182     0614                     	;# 
  2183     070C                     	;# 
  2184     070D                     	;# 
  2185     070E                     	;# 
  2186     070F                     	;# 
  2187     0710                     	;# 
  2188     0711                     	;# 
  2189     0712                     	;# 
  2190     0713                     	;# 
  2191     0716                     	;# 
  2192     0717                     	;# 
  2193     0718                     	;# 
  2194     0719                     	;# 
  2195     071A                     	;# 
  2196     071B                     	;# 
  2197     071C                     	;# 
  2198     071D                     	;# 
  2199     0796                     	;# 
  2200     0797                     	;# 
  2201     0798                     	;# 
  2202     0799                     	;# 
  2203     079A                     	;# 
  2204     079B                     	;# 
  2205     080C                     	;# 
  2206     080D                     	;# 
  2207     080E                     	;# 
  2208     080F                     	;# 
  2209     0810                     	;# 
  2210     0811                     	;# 
  2211     0812                     	;# 
  2212     0813                     	;# 
  2213     0814                     	;# 
  2214     081A                     	;# 
  2215     081A                     	;# 
  2216     081B                     	;# 
  2217     081C                     	;# 
  2218     081C                     	;# 
  2219     081D                     	;# 
  2220     081E                     	;# 
  2221     081F                     	;# 
  2222     088C                     	;# 
  2223     088D                     	;# 
  2224     088E                     	;# 
  2225     088F                     	;# 
  2226     0890                     	;# 
  2227     0891                     	;# 
  2228     0892                     	;# 
  2229     0893                     	;# 
  2230     0895                     	;# 
  2231     0896                     	;# 
  2232     090C                     	;# 
  2233     090E                     	;# 
  2234     090F                     	;# 
  2235     091F                     	;# 
  2236     098F                     	;# 
  2237     098F                     	;# 
  2238     0990                     	;# 
  2239     0991                     	;# 
  2240     0992                     	;# 
  2241     0993                     	;# 
  2242     0994                     	;# 
  2243     0995                     	;# 
  2244     0996                     	;# 
  2245     0997                     	;# 
  2246     0A19                     	;# 
  2247     0A19                     	;# 
  2248     0A1A                     	;# 
  2249     0A1A                     	;# 
  2250     0A1B                     	;# 
  2251     0A1B                     	;# 
  2252     0A1B                     	;# 
  2253     0A1C                     	;# 
  2254     0A1C                     	;# 
  2255     0A1D                     	;# 
  2256     0A1D                     	;# 
  2257     0A1E                     	;# 
  2258     0A1E                     	;# 
  2259     0A1F                     	;# 
  2260     0A1F                     	;# 
  2261     0A1F                     	;# 
  2262     1E0F                     	;# 
  2263     1E10                     	;# 
  2264     1E11                     	;# 
  2265     1E12                     	;# 
  2266     1E13                     	;# 
  2267     1E14                     	;# 
  2268     1E15                     	;# 
  2269     1E16                     	;# 
  2270     1E17                     	;# 
  2271     1E18                     	;# 
  2272     1E19                     	;# 
  2273     1E1A                     	;# 
  2274     1E1B                     	;# 
  2275     1E1C                     	;# 
  2276     1E1D                     	;# 
  2277     1E1E                     	;# 
  2278     1E1F                     	;# 
  2279     1E20                     	;# 
  2280     1E21                     	;# 
  2281     1E22                     	;# 
  2282     1E23                     	;# 
  2283     1E24                     	;# 
  2284     1E25                     	;# 
  2285     1E26                     	;# 
  2286     1E27                     	;# 
  2287     1E28                     	;# 
  2288     1E29                     	;# 
  2289     1E2A                     	;# 
  2290     1E2B                     	;# 
  2291     1E2C                     	;# 
  2292     1E2D                     	;# 
  2293     1E2E                     	;# 
  2294     1E2F                     	;# 
  2295     1E30                     	;# 
  2296     1E31                     	;# 
  2297     1E32                     	;# 
  2298     1E33                     	;# 
  2299     1E34                     	;# 
  2300     1E35                     	;# 
  2301     1E36                     	;# 
  2302     1E37                     	;# 
  2303     1E38                     	;# 
  2304     1E39                     	;# 
  2305     1E3A                     	;# 
  2306     1E3B                     	;# 
  2307     1E3C                     	;# 
  2308     1E3D                     	;# 
  2309     1E3E                     	;# 
  2310     1E3F                     	;# 
  2311     1E50                     	;# 
  2312     1E51                     	;# 
  2313     1E52                     	;# 
  2314     1E53                     	;# 
  2315     1E54                     	;# 
  2316     1E8F                     	;# 
  2317     1E90                     	;# 
  2318     1E91                     	;# 
  2319     1E92                     	;# 
  2320     1E93                     	;# 
  2321     1E9C                     	;# 
  2322     1EA1                     	;# 
  2323     1EA2                     	;# 
  2324     1EB1                     	;# 
  2325     1EBB                     	;# 
  2326     1EBC                     	;# 
  2327     1EBD                     	;# 
  2328     1EBE                     	;# 
  2329     1EC3                     	;# 
  2330     1EC5                     	;# 
  2331     1EC6                     	;# 
  2332     1EC7                     	;# 
  2333     1EC8                     	;# 
  2334     1EC9                     	;# 
  2335     1ECA                     	;# 
  2336     1ECB                     	;# 
  2337     1ECC                     	;# 
  2338     1ECD                     	;# 
  2339     1ECE                     	;# 
  2340     1F10                     	;# 
  2341     1F11                     	;# 
  2342     1F12                     	;# 
  2343     1F13                     	;# 
  2344     1F14                     	;# 
  2345     1F15                     	;# 
  2346     1F16                     	;# 
  2347     1F17                     	;# 
  2348     1F18                     	;# 
  2349     1F19                     	;# 
  2350     1F1A                     	;# 
  2351     1F1B                     	;# 
  2352     1F1C                     	;# 
  2353     1F1D                     	;# 
  2354     1F1E                     	;# 
  2355     1F1F                     	;# 
  2356     1F20                     	;# 
  2357     1F21                     	;# 
  2358     1F22                     	;# 
  2359     1F23                     	;# 
  2360     1F24                     	;# 
  2361     1F25                     	;# 
  2362     1F26                     	;# 
  2363     1F27                     	;# 
  2364     1F28                     	;# 
  2365     1F29                     	;# 
  2366     1F2A                     	;# 
  2367     1F2B                     	;# 
  2368     1F2C                     	;# 
  2369     1F2D                     	;# 
  2370     1F2E                     	;# 
  2371     1F2F                     	;# 
  2372     1F30                     	;# 
  2373     1F31                     	;# 
  2374     1F32                     	;# 
  2375     1F38                     	;# 
  2376     1F39                     	;# 
  2377     1F3A                     	;# 
  2378     1F3B                     	;# 
  2379     1F3C                     	;# 
  2380     1F3D                     	;# 
  2381     1F3E                     	;# 
  2382     1F3F                     	;# 
  2383     1F43                     	;# 
  2384     1F44                     	;# 
  2385     1F45                     	;# 
  2386     1F46                     	;# 
  2387     1F47                     	;# 
  2388     1F48                     	;# 
  2389     1F49                     	;# 
  2390     1F4A                     	;# 
  2391     1F4E                     	;# 
  2392     1F4F                     	;# 
  2393     1F50                     	;# 
  2394     1F51                     	;# 
  2395     1F52                     	;# 
  2396     1F53                     	;# 
  2397     1F54                     	;# 
  2398     1F55                     	;# 
  2399     1F59                     	;# 
  2400     1F5A                     	;# 
  2401     1F5B                     	;# 
  2402     1F5C                     	;# 
  2403     1F5D                     	;# 
  2404     1F64                     	;# 
  2405     1F65                     	;# 
  2406     1F66                     	;# 
  2407     1F67                     	;# 
  2408     1F68                     	;# 
  2409     1F69                     	;# 
  2410     1F6A                     	;# 
  2411     1F6B                     	;# 
  2412     1FE4                     	;# 
  2413     1FE5                     	;# 
  2414     1FE6                     	;# 
  2415     1FE7                     	;# 
  2416     1FE8                     	;# 
  2417     1FE8                     	;# 
  2418     1FE9                     	;# 
  2419     1FEA                     	;# 
  2420     1FEB                     	;# 
  2421     1FED                     	;# 
  2422     1FEE                     	;# 
  2423     1FEF                     	;# 
  2424     0000                     	;# 
  2425     0001                     	;# 
  2426     0002                     	;# 
  2427     0003                     	;# 
  2428     0004                     	;# 
  2429     0005                     	;# 
  2430     0006                     	;# 
  2431     0007                     	;# 
  2432     0008                     	;# 
  2433     0009                     	;# 
  2434     000A                     	;# 
  2435     000B                     	;# 
  2436     000C                     	;# 
  2437     000D                     	;# 
  2438     000E                     	;# 
  2439     000F                     	;# 
  2440     0010                     	;# 
  2441     0011                     	;# 
  2442     0012                     	;# 
  2443     0013                     	;# 
  2444     0014                     	;# 
  2445     0015                     	;# 
  2446     0016                     	;# 
  2447     0017                     	;# 
  2448     0018                     	;# 
  2449     0019                     	;# 
  2450     001A                     	;# 
  2451     001B                     	;# 
  2452     001C                     	;# 
  2453     001D                     	;# 
  2454     009B                     	;# 
  2455     009B                     	;# 
  2456     009C                     	;# 
  2457     009D                     	;# 
  2458     009E                     	;# 
  2459     009F                     	;# 
  2460     0119                     	;# 
  2461     0119                     	;# 
  2462     0119                     	;# 
  2463     011A                     	;# 
  2464     011A                     	;# 
  2465     011A                     	;# 
  2466     011B                     	;# 
  2467     011B                     	;# 
  2468     011B                     	;# 
  2469     011B                     	;# 
  2470     011B                     	;# 
  2471     011C                     	;# 
  2472     011C                     	;# 
  2473     011C                     	;# 
  2474     011D                     	;# 
  2475     011D                     	;# 
  2476     011D                     	;# 
  2477     011E                     	;# 
  2478     011E                     	;# 
  2479     011E                     	;# 
  2480     011F                     	;# 
  2481     011F                     	;# 
  2482     011F                     	;# 
  2483     011F                     	;# 
  2484     011F                     	;# 
  2485     018C                     	;# 
  2486     018D                     	;# 
  2487     018E                     	;# 
  2488     018F                     	;# 
  2489     0190                     	;# 
  2490     0191                     	;# 
  2491     0192                     	;# 
  2492     0196                     	;# 
  2493     0197                     	;# 
  2494     0198                     	;# 
  2495     0199                     	;# 
  2496     019A                     	;# 
  2497     019B                     	;# 
  2498     019C                     	;# 
  2499     020C                     	;# 
  2500     020C                     	;# 
  2501     020D                     	;# 
  2502     020E                     	;# 
  2503     020F                     	;# 
  2504     020F                     	;# 
  2505     0210                     	;# 
  2506     0210                     	;# 
  2507     0211                     	;# 
  2508     0211                     	;# 
  2509     028C                     	;# 
  2510     028C                     	;# 
  2511     028D                     	;# 
  2512     028D                     	;# 
  2513     028E                     	;# 
  2514     028F                     	;# 
  2515     0290                     	;# 
  2516     0291                     	;# 
  2517     030C                     	;# 
  2518     030C                     	;# 
  2519     030D                     	;# 
  2520     030E                     	;# 
  2521     030F                     	;# 
  2522     0310                     	;# 
  2523     0310                     	;# 
  2524     0311                     	;# 
  2525     0312                     	;# 
  2526     0313                     	;# 
  2527     0314                     	;# 
  2528     0314                     	;# 
  2529     0315                     	;# 
  2530     0316                     	;# 
  2531     0318                     	;# 
  2532     0318                     	;# 
  2533     0319                     	;# 
  2534     031A                     	;# 
  2535     031C                     	;# 
  2536     031C                     	;# 
  2537     031D                     	;# 
  2538     031E                     	;# 
  2539     038C                     	;# 
  2540     038C                     	;# 
  2541     038D                     	;# 
  2542     038E                     	;# 
  2543     058C                     	;# 
  2544     058C                     	;# 
  2545     058D                     	;# 
  2546     058E                     	;# 
  2547     058F                     	;# 
  2548     058F                     	;# 
  2549     0590                     	;# 
  2550     0591                     	;# 
  2551     0592                     	;# 
  2552     0593                     	;# 
  2553     059C                     	;# 
  2554     059C                     	;# 
  2555     059D                     	;# 
  2556     059D                     	;# 
  2557     059E                     	;# 
  2558     059F                     	;# 
  2559     060C                     	;# 
  2560     060D                     	;# 
  2561     060E                     	;# 
  2562     060F                     	;# 
  2563     0610                     	;# 
  2564     0611                     	;# 
  2565     0612                     	;# 
  2566     0613                     	;# 
  2567     0614                     	;# 
  2568     070C                     	;# 
  2569     070D                     	;# 
  2570     070E                     	;# 
  2571     070F                     	;# 
  2572     0710                     	;# 
  2573     0711                     	;# 
  2574     0712                     	;# 
  2575     0713                     	;# 
  2576     0716                     	;# 
  2577     0717                     	;# 
  2578     0718                     	;# 
  2579     0719                     	;# 
  2580     071A                     	;# 
  2581     071B                     	;# 
  2582     071C                     	;# 
  2583     071D                     	;# 
  2584     0796                     	;# 
  2585     0797                     	;# 
  2586     0798                     	;# 
  2587     0799                     	;# 
  2588     079A                     	;# 
  2589     079B                     	;# 
  2590     080C                     	;# 
  2591     080D                     	;# 
  2592     080E                     	;# 
  2593     080F                     	;# 
  2594     0810                     	;# 
  2595     0811                     	;# 
  2596     0812                     	;# 
  2597     0813                     	;# 
  2598     0814                     	;# 
  2599     081A                     	;# 
  2600     081A                     	;# 
  2601     081B                     	;# 
  2602     081C                     	;# 
  2603     081C                     	;# 
  2604     081D                     	;# 
  2605     081E                     	;# 
  2606     081F                     	;# 
  2607     088C                     	;# 
  2608     088D                     	;# 
  2609     088E                     	;# 
  2610     088F                     	;# 
  2611     0890                     	;# 
  2612     0891                     	;# 
  2613     0892                     	;# 
  2614     0893                     	;# 
  2615     0895                     	;# 
  2616     0896                     	;# 
  2617     090C                     	;# 
  2618     090E                     	;# 
  2619     090F                     	;# 
  2620     091F                     	;# 
  2621     098F                     	;# 
  2622     098F                     	;# 
  2623     0990                     	;# 
  2624     0991                     	;# 
  2625     0992                     	;# 
  2626     0993                     	;# 
  2627     0994                     	;# 
  2628     0995                     	;# 
  2629     0996                     	;# 
  2630     0997                     	;# 
  2631     0A19                     	;# 
  2632     0A19                     	;# 
  2633     0A1A                     	;# 
  2634     0A1A                     	;# 
  2635     0A1B                     	;# 
  2636     0A1B                     	;# 
  2637     0A1B                     	;# 
  2638     0A1C                     	;# 
  2639     0A1C                     	;# 
  2640     0A1D                     	;# 
  2641     0A1D                     	;# 
  2642     0A1E                     	;# 
  2643     0A1E                     	;# 
  2644     0A1F                     	;# 
  2645     0A1F                     	;# 
  2646     0A1F                     	;# 
  2647     1E0F                     	;# 
  2648     1E10                     	;# 
  2649     1E11                     	;# 
  2650     1E12                     	;# 
  2651     1E13                     	;# 
  2652     1E14                     	;# 
  2653     1E15                     	;# 
  2654     1E16                     	;# 
  2655     1E17                     	;# 
  2656     1E18                     	;# 
  2657     1E19                     	;# 
  2658     1E1A                     	;# 
  2659     1E1B                     	;# 
  2660     1E1C                     	;# 
  2661     1E1D                     	;# 
  2662     1E1E                     	;# 
  2663     1E1F                     	;# 
  2664     1E20                     	;# 
  2665     1E21                     	;# 
  2666     1E22                     	;# 
  2667     1E23                     	;# 
  2668     1E24                     	;# 
  2669     1E25                     	;# 
  2670     1E26                     	;# 
  2671     1E27                     	;# 
  2672     1E28                     	;# 
  2673     1E29                     	;# 
  2674     1E2A                     	;# 
  2675     1E2B                     	;# 
  2676     1E2C                     	;# 
  2677     1E2D                     	;# 
  2678     1E2E                     	;# 
  2679     1E2F                     	;# 
  2680     1E30                     	;# 
  2681     1E31                     	;# 
  2682     1E32                     	;# 
  2683     1E33                     	;# 
  2684     1E34                     	;# 
  2685     1E35                     	;# 
  2686     1E36                     	;# 
  2687     1E37                     	;# 
  2688     1E38                     	;# 
  2689     1E39                     	;# 
  2690     1E3A                     	;# 
  2691     1E3B                     	;# 
  2692     1E3C                     	;# 
  2693     1E3D                     	;# 
  2694     1E3E                     	;# 
  2695     1E3F                     	;# 
  2696     1E50                     	;# 
  2697     1E51                     	;# 
  2698     1E52                     	;# 
  2699     1E53                     	;# 
  2700     1E54                     	;# 
  2701     1E8F                     	;# 
  2702     1E90                     	;# 
  2703     1E91                     	;# 
  2704     1E92                     	;# 
  2705     1E93                     	;# 
  2706     1E9C                     	;# 
  2707     1EA1                     	;# 
  2708     1EA2                     	;# 
  2709     1EB1                     	;# 
  2710     1EBB                     	;# 
  2711     1EBC                     	;# 
  2712     1EBD                     	;# 
  2713     1EBE                     	;# 
  2714     1EC3                     	;# 
  2715     1EC5                     	;# 
  2716     1EC6                     	;# 
  2717     1EC7                     	;# 
  2718     1EC8                     	;# 
  2719     1EC9                     	;# 
  2720     1ECA                     	;# 
  2721     1ECB                     	;# 
  2722     1ECC                     	;# 
  2723     1ECD                     	;# 
  2724     1ECE                     	;# 
  2725     1F10                     	;# 
  2726     1F11                     	;# 
  2727     1F12                     	;# 
  2728     1F13                     	;# 
  2729     1F14                     	;# 
  2730     1F15                     	;# 
  2731     1F16                     	;# 
  2732     1F17                     	;# 
  2733     1F18                     	;# 
  2734     1F19                     	;# 
  2735     1F1A                     	;# 
  2736     1F1B                     	;# 
  2737     1F1C                     	;# 
  2738     1F1D                     	;# 
  2739     1F1E                     	;# 
  2740     1F1F                     	;# 
  2741     1F20                     	;# 
  2742     1F21                     	;# 
  2743     1F22                     	;# 
  2744     1F23                     	;# 
  2745     1F24                     	;# 
  2746     1F25                     	;# 
  2747     1F26                     	;# 
  2748     1F27                     	;# 
  2749     1F28                     	;# 
  2750     1F29                     	;# 
  2751     1F2A                     	;# 
  2752     1F2B                     	;# 
  2753     1F2C                     	;# 
  2754     1F2D                     	;# 
  2755     1F2E                     	;# 
  2756     1F2F                     	;# 
  2757     1F30                     	;# 
  2758     1F31                     	;# 
  2759     1F32                     	;# 
  2760     1F38                     	;# 
  2761     1F39                     	;# 
  2762     1F3A                     	;# 
  2763     1F3B                     	;# 
  2764     1F3C                     	;# 
  2765     1F3D                     	;# 
  2766     1F3E                     	;# 
  2767     1F3F                     	;# 
  2768     1F43                     	;# 
  2769     1F44                     	;# 
  2770     1F45                     	;# 
  2771     1F46                     	;# 
  2772     1F47                     	;# 
  2773     1F48                     	;# 
  2774     1F49                     	;# 
  2775     1F4A                     	;# 
  2776     1F4E                     	;# 
  2777     1F4F                     	;# 
  2778     1F50                     	;# 
  2779     1F51                     	;# 
  2780     1F52                     	;# 
  2781     1F53                     	;# 
  2782     1F54                     	;# 
  2783     1F55                     	;# 
  2784     1F59                     	;# 
  2785     1F5A                     	;# 
  2786     1F5B                     	;# 
  2787     1F5C                     	;# 
  2788     1F5D                     	;# 
  2789     1F64                     	;# 
  2790     1F65                     	;# 
  2791     1F66                     	;# 
  2792     1F67                     	;# 
  2793     1F68                     	;# 
  2794     1F69                     	;# 
  2795     1F6A                     	;# 
  2796     1F6B                     	;# 
  2797     1FE4                     	;# 
  2798     1FE5                     	;# 
  2799     1FE6                     	;# 
  2800     1FE7                     	;# 
  2801     1FE8                     	;# 
  2802     1FE8                     	;# 
  2803     1FE9                     	;# 
  2804     1FEA                     	;# 
  2805     1FEB                     	;# 
  2806     1FED                     	;# 
  2807     1FEE                     	;# 
  2808     1FEF                     	;_my_circ_buf_data_space
  2809                           
  2810                           	psect	idataBANK3
  2811     1735                     __pidataBANK3:
  2812                           
  2813                           ;initializer for _level_pattern
  2814     1735  3403               	retlw	3
  2815     1736  3402               	retlw	2
  2816     1737  3403               	retlw	3
  2817     1738  3403               	retlw	3
  2818     1739  3402               	retlw	2
  2819     173A  3402               	retlw	2
  2820     173B  3401               	retlw	1
  2821     173C  3401               	retlw	1
  2822     173D  3401               	retlw	1
  2823     173E  3401               	retlw	1
  2824     173F  3401               	retlw	1
  2825     1740  3401               	retlw	1
  2826                           
  2827                           ;initializer for _out_seq_L2
  2828     1741  3401               	retlw	1
  2829     1742  3401               	retlw	1
  2830     1743  3402               	retlw	2
  2831     1744  3400               	retlw	0
  2832     1745  3402               	retlw	2
  2833     1746  3400               	retlw	0
  2834     1747  3401               	retlw	1
  2835     1748  3402               	retlw	2
  2836     1749  3400               	retlw	0
  2837     174A  3403               	retlw	3
  2838     174B  3404               	retlw	4
  2839     174C  3405               	retlw	5
  2840     174D  3406               	retlw	6
  2841                           
  2842                           ;initializer for _out_seq_L1
  2843     174E  3400               	retlw	0
  2844     174F  3400               	retlw	0
  2845     1750  3401               	retlw	1
  2846     1751  3402               	retlw	2
  2847     1752  3401               	retlw	1
  2848     1753  3402               	retlw	2
  2849     1754  3400               	retlw	0
  2850     1755  3401               	retlw	1
  2851     1756  3402               	retlw	2
  2852     1757  3403               	retlw	3
  2853     1758  3404               	retlw	4
  2854     1759  3405               	retlw	5
  2855     175A  3406               	retlw	6
  2856                           
  2857                           	psect	idataBANK4
  2858     08B5                     __pidataBANK4:
  2859                           
  2860                           ;initializer for _volt_level
  2861     08B5  3400               	retlw	0
  2862     08B6  3400               	retlw	0
  2863     08B7  348F               	retlw	143
  2864     08B8  3401               	retlw	1
  2865     08B9  340C               	retlw	12
  2866     08BA  3402               	retlw	2
  2867     08BB  3470               	retlw	112
  2868     08BC  3402               	retlw	2
  2869     08BD  34ED               	retlw	237
  2870     08BE  3402               	retlw	2
  2871     08BF  34E0               	retlw	224
  2872     08C0  3404               	retlw	4
  2873                           
  2874                           ;initializer for _out_seq_L3
  2875     08C1  3402               	retlw	2
  2876     08C2  3402               	retlw	2
  2877     08C3  3401               	retlw	1
  2878     08C4  3400               	retlw	0
  2879     08C5  3401               	retlw	1
  2880     08C6  3400               	retlw	0
  2881     08C7  3402               	retlw	2
  2882     08C8  3401               	retlw	1
  2883     08C9  3400               	retlw	0
  2884     08CA  3403               	retlw	3
  2885     08CB  3404               	retlw	4
  2886     08CC  3405               	retlw	5
  2887     08CD  3406               	retlw	6
  2888                           
  2889                           ;initializer for _test_seq_L2
  2890     08CE  3401               	retlw	1
  2891     08CF  3401               	retlw	1
  2892     08D0  3402               	retlw	2
  2893     08D1  3400               	retlw	0
  2894     08D2  3402               	retlw	2
  2895     08D3  3400               	retlw	0
  2896     08D4  3401               	retlw	1
  2897     08D5  3402               	retlw	2
  2898     08D6  3400               	retlw	0
  2899     08D7  3403               	retlw	3
  2900     08D8  3404               	retlw	4
  2901     08D9  3405               	retlw	5
  2902                           
  2903                           ;initializer for _test_seq_L1
  2904     08DA  3400               	retlw	0
  2905     08DB  3400               	retlw	0
  2906     08DC  3401               	retlw	1
  2907     08DD  3402               	retlw	2
  2908     08DE  3401               	retlw	1
  2909     08DF  3402               	retlw	2
  2910     08E0  3400               	retlw	0
  2911     08E1  3401               	retlw	1
  2912     08E2  3402               	retlw	2
  2913     08E3  3403               	retlw	3
  2914     08E4  3404               	retlw	4
  2915     08E5  3405               	retlw	5
  2916                           
  2917                           ;initializer for _my_circ_buf
  2918     08E6  3428               	retlw	40
  2919     08E7  3427               	retlw	39
  2920     08E8  3400               	retlw	0
  2921     08E9  3400               	retlw	0
  2922     08EA  3400               	retlw	0
  2923     08EB  3400               	retlw	0
  2924     08EC  34C8               	retlw	200
  2925     08ED  3400               	retlw	0
  2926                           
  2927                           	psect	idataBANK5
  2928     16BF                     __pidataBANK5:
  2929                           
  2930                           ;initializer for _test_seq_L3
  2931     16BF  3402               	retlw	2
  2932     16C0  3402               	retlw	2
  2933     16C1  3401               	retlw	1
  2934     16C2  3400               	retlw	0
  2935     16C3  3401               	retlw	1
  2936     16C4  3400               	retlw	0
  2937     16C5  3402               	retlw	2
  2938     16C6  3401               	retlw	1
  2939     16C7  3400               	retlw	0
  2940     16C8  3403               	retlw	3
  2941     16C9  3404               	retlw	4
  2942     16CA  3405               	retlw	5
  2943                           
  2944                           	psect	stringtext1
  2945     1800                     __pstringtext1:
  2946     1800                     getOutputLevel@numberOfLevelsOutput:
  2947     1800  3405               	retlw	5
  2948     1801  3400               	retlw	0
  2949     1802                     __end_ofgetOutputLevel@numberOfLevelsOutput:
  2950                           
  2951                           	psect	stringtext2
  2952     1802                     __pstringtext2:
  2953     1802                     getOutputLevel@margin:
  2954     1802  340C               	retlw	12
  2955     1803  3400               	retlw	0
  2956     1804                     __end_ofgetOutputLevel@margin:
  2957                           
  2958                           	psect	nvBANK3
  2959     01E8                     __pnvBANK3:
  2960     01E8                     _TMR1_InterruptHandler:
  2961     01E8                     	ds	2
  2962     01EA                     _timer1ReloadVal:
  2963     01EA                     	ds	2
  2964     0010                     _PORTEbits	set	16
  2965     0019                     _LATBbits	set	25
  2966     001D                     _LATFbits	set	29
  2967     001B                     _LATDbits	set	27
  2968     0018                     _LATAbits	set	24
  2969     001A                     _LATCbits	set	26
  2970     0015                     _TRISD	set	21
  2971     0014                     _TRISC	set	20
  2972     0013                     _TRISB	set	19
  2973     0012                     _TRISA	set	18
  2974     0017                     _TRISF	set	23
  2975     0016                     _TRISE	set	22
  2976     001A                     _LATC	set	26
  2977     0019                     _LATB	set	25
  2978     001D                     _LATF	set	29
  2979     0018                     _LATA	set	24
  2980     001B                     _LATD	set	27
  2981     001C                     _LATE	set	28
  2982     000B                     _INTCONbits	set	11
  2983     009D                     _ADCON0bits	set	157
  2984     009D                     _ADCON0	set	157
  2985     009C                     _ADRESH	set	156
  2986     009B                     _ADRESL	set	155
  2987     009F                     _ADACT	set	159
  2988     009E                     _ADCON1	set	158
  2989     020E                     _T1CONbits	set	526
  2990     020E                     _T1CON	set	526
  2991     020C                     _TMR1L	set	524
  2992     020D                     _TMR1H	set	525
  2993     0211                     _T1CLK	set	529
  2994     0210                     _T1GATE	set	528
  2995     020F                     _T1GCON	set	527
  2996     0710                     _PIR4bits	set	1808
  2997     071A                     _PIE4bits	set	1818
  2998     079B                     _PMD5	set	1947
  2999     079A                     _PMD4	set	1946
  3000     0799                     _PMD3	set	1945
  3001     0798                     _PMD2	set	1944
  3002     0797                     _PMD1	set	1943
  3003     0796                     _PMD0	set	1942
  3004     0892                     _OSCTUNE	set	2194
  3005     0890                     _OSCSTAT	set	2192
  3006     0893                     _OSCFRQ	set	2195
  3007     0891                     _OSCEN	set	2193
  3008     088F                     _OSCCON3	set	2191
  3009     088D                     _OSCCON1	set	2189
  3010     090C                     _FVRCONbits	set	2316
  3011     1E54                     _INLVLF	set	7764
  3012     1E53                     _SLRCONF	set	7763
  3013     1E52                     _ODCONF	set	7762
  3014     1E51                     _WPUF	set	7761
  3015     1E50                     _ANSELF	set	7760
  3016     1F68                     _INLVLE	set	8040
  3017     1F5D                     _INLVLD	set	8029
  3018     1F52                     _INLVLC	set	8018
  3019     1F47                     _INLVLB	set	8007
  3020     1F3C                     _INLVLA	set	7996
  3021     1F67                     _SLRCONE	set	8039
  3022     1F5C                     _SLRCOND	set	8028
  3023     1F51                     _SLRCONC	set	8017
  3024     1F46                     _SLRCONB	set	8006
  3025     1F3B                     _SLRCONA	set	7995
  3026     1F5B                     _ODCOND	set	8027
  3027     1F50                     _ODCONC	set	8016
  3028     1F45                     _ODCONB	set	8005
  3029     1F3A                     _ODCONA	set	7994
  3030     1F66                     _ODCONE	set	8038
  3031     1F4F                     _WPUC	set	8015
  3032     1F39                     _WPUA	set	7993
  3033     1F44                     _WPUB	set	8004
  3034     1F65                     _WPUE	set	8037
  3035     1F5A                     _WPUD	set	8026
  3036     1F38                     _ANSELA	set	7992
  3037     1F64                     _ANSELE	set	8036
  3038     1F43                     _ANSELB	set	8003
  3039     1F4E                     _ANSELC	set	8014
  3040     1F59                     _ANSELD	set	8025
  3041                           
  3042                           	psect	cinit
  3043     001A                     start_initialization:	
  3044                           ; #config settings
  3045                           
  3046     001A                     __initialization:	;BIGRAM
  3047                           
  3048                           ; Initialize objects allocated to BANK3
  3049     001A  3035               	movlw	low __pidataBANK3
  3050     001B  0084               	movwf	4
  3051     001C  3097               	movlw	(high __pidataBANK3)| (0+128)
  3052     001D  0085               	movwf	5
  3053     001E  30A0               	movlw	low __pdataBANK3
  3054     001F  0086               	movwf	6
  3055     0020  3001               	movlw	high __pdataBANK3
  3056     0021  0087               	movwf	7
  3057     0022  3000               	movlw	0
  3058     0023  00FF               	movwf	btemp+1
  3059     0024  3026               	movlw	38
  3060     0025  3196  26B3  3180   	fcall	init_ram
  3061                           
  3062                           ; Initialize objects allocated to BANK4
  3063     0028  30B5               	movlw	low __pidataBANK4
  3064     0029  0084               	movwf	4
  3065     002A  3088               	movlw	(high __pidataBANK4)| (0+128)
  3066     002B  0085               	movwf	5
  3067     002C  3020               	movlw	low __pdataBANK4
  3068     002D  0086               	movwf	6
  3069     002E  3002               	movlw	high __pdataBANK4
  3070     002F  0087               	movwf	7
  3071     0030  3000               	movlw	0
  3072     0031  00FF               	movwf	btemp+1
  3073     0032  3039               	movlw	57
  3074     0033  3196  26B3  3180   	fcall	init_ram
  3075                           
  3076                           ; Initialize objects allocated to BANK5
  3077     0036  30BF               	movlw	low __pidataBANK5
  3078     0037  0084               	movwf	4
  3079     0038  3096               	movlw	(high __pidataBANK5)| (0+128)
  3080     0039  0085               	movwf	5
  3081     003A  30D0               	movlw	low __pdataBANK5
  3082     003B  0086               	movwf	6
  3083     003C  3002               	movlw	high __pdataBANK5
  3084     003D  0087               	movwf	7
  3085     003E  3000               	movlw	0
  3086     003F  00FF               	movwf	btemp+1
  3087     0040  300C               	movlw	12
  3088     0041  3196  26B3  3180   	fcall	init_ram
  3089                           
  3090                           ; Clear objects allocated to BIGRAM
  3091     0044  3028               	movlw	low (0+10024)
  3092     0045  0084               	movwf	4
  3093     0046  3027               	movlw	high (0+10024)
  3094     0047  0085               	movwf	5
  3095     0048  30C8               	movlw	200
  3096     0049  00FE               	movwf	btemp
  3097     004A  3000               	movlw	0
  3098     004B  00FF               	movwf	btemp+1
  3099     004C  3196  26A7  3180   	fcall	clear_ram0
  3100                           
  3101                           ; Clear objects allocated to COMMON
  3102     004F  01FA               	clrf	__pbssCOMMON& (0+127)
  3103     0050  01FB               	clrf	(__pbssCOMMON+1)& (0+127)
  3104                           
  3105                           ; Clear objects allocated to BANK0
  3106     0051  3062               	movlw	low __pbssBANK0
  3107     0052  0084               	movwf	4
  3108     0053  3000               	movlw	high __pbssBANK0
  3109     0054  0085               	movwf	5
  3110     0055  300D               	movlw	13
  3111     0056  00FE               	movwf	btemp
  3112     0057  3000               	movlw	0
  3113     0058  00FF               	movwf	btemp+1
  3114     0059  3196  26A7  3180   	fcall	clear_ram0
  3115                           
  3116                           ; Clear objects allocated to BANK2
  3117     005C  0142               	movlb	2	; select bank2
  3118     005D  01ED               	clrf	__pbssBANK2& (0+127)
  3119     005E  01EE               	clrf	(__pbssBANK2+1)& (0+127)
  3120     005F  01EF               	clrf	(__pbssBANK2+2)& (0+127)
  3121                           
  3122                           ; Clear objects allocated to BANK3
  3123     0060  30C6               	movlw	low __pbssBANK3
  3124     0061  0084               	movwf	4
  3125     0062  3001               	movlw	high __pbssBANK3
  3126     0063  0085               	movwf	5
  3127     0064  3022               	movlw	34
  3128     0065  00FE               	movwf	btemp
  3129     0066  3000               	movlw	0
  3130     0067  00FF               	movwf	btemp+1
  3131     0068  3196  26A7  3180   	fcall	clear_ram0
  3132                           
  3133                           ; Clear objects allocated to BANK4
  3134     006B  3059               	movlw	low __pbssBANK4
  3135     006C  0084               	movwf	4
  3136     006D  3002               	movlw	high __pbssBANK4
  3137     006E  0085               	movwf	5
  3138     006F  3012               	movlw	18
  3139     0070  00FE               	movwf	btemp
  3140     0071  3000               	movlw	0
  3141     0072  00FF               	movwf	btemp+1
  3142     0073  3196  26A7  3180   	fcall	clear_ram0
  3143                           
  3144                           ; Clear objects allocated to BANK5
  3145     0076  30A0               	movlw	low __pbssBANK5
  3146     0077  0084               	movwf	4
  3147     0078  3002               	movlw	high __pbssBANK5
  3148     0079  0085               	movwf	5
  3149     007A  3030               	movlw	48
  3150     007B  00FE               	movwf	btemp
  3151     007C  3000               	movlw	0
  3152     007D  00FF               	movwf	btemp+1
  3153     007E  3196  26A7  3180   	fcall	clear_ram0
  3154                           
  3155                           ; Clear objects allocated to BANK6
  3156     0081  3020               	movlw	low __pbssBANK6
  3157     0082  0084               	movwf	4
  3158     0083  3003               	movlw	high __pbssBANK6
  3159     0084  0085               	movwf	5
  3160     0085  304A               	movlw	74
  3161     0086  00FE               	movwf	btemp
  3162     0087  3000               	movlw	0
  3163     0088  00FF               	movwf	btemp+1
  3164     0089  3196  26A7  3180   	fcall	clear_ram0
  3165                           
  3166                           ; Clear objects allocated to BANK7
  3167     008C  30A0               	movlw	low __pbssBANK7
  3168     008D  0084               	movwf	4
  3169     008E  3003               	movlw	high __pbssBANK7
  3170     008F  0085               	movwf	5
  3171     0090  3032               	movlw	50
  3172     0091  00FE               	movwf	btemp
  3173     0092  3000               	movlw	0
  3174     0093  00FF               	movwf	btemp+1
  3175     0094  3196  26A7  3180   	fcall	clear_ram0
  3176                           
  3177                           ; Clear objects allocated to BANK8
  3178     0097  3020               	movlw	low __pbssBANK8
  3179     0098  0084               	movwf	4
  3180     0099  3004               	movlw	high __pbssBANK8
  3181     009A  0085               	movwf	5
  3182     009B  3032               	movlw	50
  3183     009C  00FE               	movwf	btemp
  3184     009D  3000               	movlw	0
  3185     009E  00FF               	movwf	btemp+1
  3186     009F  3196  26A7  3180   	fcall	clear_ram0
  3187                           
  3188                           ; Clear objects allocated to BANK9
  3189     00A2  30A0               	movlw	low __pbssBANK9
  3190     00A3  0084               	movwf	4
  3191     00A4  3004               	movlw	high __pbssBANK9
  3192     00A5  0085               	movwf	5
  3193     00A6  3032               	movlw	50
  3194     00A7  00FE               	movwf	btemp
  3195     00A8  3000               	movlw	0
  3196     00A9  00FF               	movwf	btemp+1
  3197     00AA  3196  26A7  3180   	fcall	clear_ram0
  3198     00AD                     end_of_initialization:	
  3199                           ;End of C runtime variable initialization code
  3200                           
  3201     00AD                     __end_of__initialization:
  3202     00AD  107E               	bcf	int$flags,0	;clear compiler interrupt flag (level 1)
  3203     00AE  0140               	movlb	0
  3204     00AF  3180  28B1         	ljmp	_main	;jump to C main() function
  3205                           
  3206                           	psect	bssCOMMON
  3207     007A                     __pbssCOMMON:
  3208     007A                     _flag_CL2:
  3209     007A                     	ds	1
  3210     007B                     _flag_CL3:
  3211     007B                     	ds	1
  3212                           
  3213                           	psect	bssBANK0
  3214     0062                     __pbssBANK0:
  3215     0062                     _result:
  3216     0062                     	ds	12
  3217     006E                     _flag_CL1:
  3218     006E                     	ds	1
  3219                           
  3220                           	psect	bssBANK2
  3221     016D                     __pbssBANK2:
  3222     016D                     _flag_UC:
  3223     016D                     	ds	1
  3224     016E                     _flag_WC:
  3225     016E                     	ds	1
  3226     016F                     _flag_RC:
  3227     016F                     	ds	1
  3228                           
  3229                           	psect	bssBANK3
  3230     01C6                     __pbssBANK3:
  3231     01C6                     _out_seq_pointer:
  3232     01C6                     	ds	6
  3233     01CC                     _testCounter:
  3234     01CC                     	ds	4
  3235     01D0                     _tick:
  3236     01D0                     	ds	4
  3237     01D4                     main@F8688:
  3238     01D4                     	ds	3
  3239     01D7                     _updated_L:
  3240     01D7                     	ds	3
  3241     01DA                     _temp_L:
  3242     01DA                     	ds	3
  3243     01DD                     _current_L:
  3244     01DD                     	ds	3
  3245     01E0                     _test_seq_pointer:
  3246     01E0                     	ds	3
  3247     01E3                     _ADC_InterruptHandler:
  3248     01E3                     	ds	2
  3249     01E5                     _flagL1OnR:
  3250     01E5                     	ds	1
  3251     01E6                     _flag_VC:
  3252     01E6                     	ds	1
  3253     01E7                     _run_mainloop:
  3254     01E7                     	ds	1
  3255                           
  3256                           	psect	dataBANK3
  3257     01A0                     __pdataBANK3:
  3258     01A0                     _level_pattern:
  3259     01A0                     	ds	12
  3260     01AC                     _out_seq_L2:
  3261     01AC                     	ds	13
  3262     01B9                     _out_seq_L1:
  3263     01B9                     	ds	13
  3264                           
  3265                           	psect	bssBANK4
  3266     0259                     __pbssBANK4:
  3267     0259                     _currentOutputLevels:
  3268     0259                     	ds	12
  3269     0265                     main@F8692:
  3270     0265                     	ds	6
  3271                           
  3272                           	psect	dataBANK4
  3273     0220                     __pdataBANK4:
  3274     0220                     _volt_level:
  3275     0220                     	ds	12
  3276     022C                     _out_seq_L3:
  3277     022C                     	ds	13
  3278     0239                     _test_seq_L2:
  3279     0239                     	ds	12
  3280     0245                     _test_seq_L1:
  3281     0245                     	ds	12
  3282     0251                     _my_circ_buf:
  3283     0251                     	ds	8
  3284                           
  3285                           	psect	bssBANK5
  3286     02A0                     __pbssBANK5:
  3287     02A0                     main@F8690:
  3288     02A0                     	ds	24
  3289     02B8                     main@F8703:
  3290     02B8                     	ds	12
  3291     02C4                     main@F8686:
  3292     02C4                     	ds	12
  3293                           
  3294                           	psect	dataBANK5
  3295     02D0                     __pdataBANK5:
  3296     02D0                     _test_seq_L3:
  3297     02D0                     	ds	12
  3298                           
  3299                           	psect	bssBANK6
  3300     0320                     __pbssBANK6:
  3301     0320                     relay_to_off_msg@F8757:
  3302     0320                     	ds	50
  3303     0352                     main@F8701:
  3304     0352                     	ds	24
  3305                           
  3306                           	psect	bssBANK7
  3307     03A0                     __pbssBANK7:
  3308     03A0                     relay_to_off_step1_msg@F8761:
  3309     03A0                     	ds	50
  3310                           
  3311                           	psect	bssBANK8
  3312     0420                     __pbssBANK8:
  3313     0420                     relay_to_on_msg@F8766:
  3314     0420                     	ds	50
  3315                           
  3316                           	psect	bssBANK9
  3317     04A0                     __pbssBANK9:
  3318     04A0                     relay_to_on_step1_msg@F8770:
  3319     04A0                     	ds	50
  3320                           
  3321                           	psect	inittext
  3322     16B3                     init_ram:
  3323     16B3  00FE               	movwf	btemp
  3324     16B4                     initloop:
  3325     16B4  0012               	moviw fsr0++
  3326     16B5  001E               	movwi fsr1++
  3327     16B6  3001               	movlw	1
  3328     16B7  02FE               	subwf	btemp,f
  3329     16B8  3000               	movlw	0
  3330     16B9  3BFF               	subwfb	btemp+1,f
  3331     16BA  087F               	movf	btemp+1,w
  3332     16BB  047E               	iorwf	btemp,w
  3333     16BC  1D03               	skipz
  3334     16BD  2EB4               	goto	initloop
  3335     16BE  3400               	retlw	0
  3336                           
  3337                           	psect	clrtext
  3338     16A7                     clear_ram0:	
  3339                           ;	Called with FSR0 containing the base address, and
  3340                           ;	btemp/btemp+1 has the size to clear
  3341                           
  3342     16A7  0064               	clrwdt	;clear the watchdog before getting into this loop
  3343     16A8                     clrloop0:
  3344     16A8  0180               	clrf	0	;clear RAM location pointed to by FSR
  3345     16A9  3101               	addfsr 0,1
  3346     16AA  3001               	movlw	1
  3347     16AB  02FE               	subwf	btemp,f
  3348     16AC  3000               	movlw	0
  3349     16AD  3BFF               	subwfb	btemp+1,f
  3350     16AE  087F               	movf	btemp+1,w
  3351     16AF  047E               	iorwf	btemp,w
  3352     16B0  1D03               	skipz
  3353     16B1  2EA8               	goto	clrloop0	;have we reached the end yet?
  3354     16B2  3400               	retlw	0	;all done for this memory range, return
  3355                           
  3356                           	psect	cstackBANK4
  3357     026B                     __pcstackBANK4:
  3358     026B                     main@indexADC:
  3359                           
  3360                           ; 1 bytes @ 0x0
  3361     026B                     	ds	1
  3362     026C                     main@indexLoad:
  3363                           
  3364                           ; 1 bytes @ 0x1
  3365     026C                     	ds	1
  3366                           
  3367                           	psect	cstackBANK3
  3368     01EC                     __pcstackBANK3:
  3369     01EC                     main@phaseWas:
  3370                           
  3371                           ; 1 bytes @ 0x0
  3372     01EC                     	ds	1
  3373                           
  3374                           	psect	cstackBANK2
  3375     0120                     __pcstackBANK2:
  3376     0120                     main@inc_for_2sec:
  3377                           
  3378                           ; 6 bytes @ 0x0
  3379     0120                     	ds	6
  3380     0126                     main@lastDebounceAdc:
  3381                           
  3382                           ; 24 bytes @ 0x6
  3383     0126                     	ds	24
  3384     013E                     main@updated_reading:
  3385                           
  3386                           ; 6 bytes @ 0x1E
  3387     013E                     	ds	6
  3388     0144                     main@relayIsOff:
  3389                           
  3390                           ; 12 bytes @ 0x24
  3391     0144                     	ds	12
  3392     0150                     main@inc_for_5sec:
  3393                           
  3394                           ; 3 bytes @ 0x30
  3395     0150                     	ds	3
  3396     0153                     main@lastDebounceLevel:
  3397                           
  3398                           ; 12 bytes @ 0x33
  3399     0153                     	ds	12
  3400     015F                     main@reading:
  3401                           
  3402                           ; 6 bytes @ 0x3F
  3403     015F                     	ds	6
  3404     0165                     main@relayOfInProgress:
  3405                           
  3406                           ; 1 bytes @ 0x45
  3407     0165                     	ds	1
  3408     0166                     main@relayOnInProgress:
  3409                           
  3410                           ; 1 bytes @ 0x46
  3411     0166                     	ds	1
  3412     0167                     main@outputIs:
  3413                           
  3414                           ; 1 bytes @ 0x47
  3415     0167                     	ds	1
  3416     0168                     main@phaseExpected:
  3417                           
  3418                           ; 1 bytes @ 0x48
  3419     0168                     	ds	1
  3420     0169                     main@outputWas:
  3421                           
  3422                           ; 1 bytes @ 0x49
  3423     0169                     	ds	1
  3424     016A                     main@counter:
  3425                           
  3426                           ; 2 bytes @ 0x4A
  3427     016A                     	ds	2
  3428     016C                     main@phaseIs:
  3429                           
  3430                           ; 1 bytes @ 0x4C
  3431     016C                     	ds	1
  3432                           
  3433                           	psect	cstackBANK1
  3434     00A0                     __pcstackBANK1:
  3435     00A0                     main@time:
  3436                           
  3437                           ; 24 bytes @ 0x0
  3438     00A0                     	ds	24
  3439     00B8                     main@buffer:
  3440                           
  3441                           ; 50 bytes @ 0x18
  3442     00B8                     	ds	50
  3443     00EA                     main@previous:
  3444                           
  3445                           ; 6 bytes @ 0x4A
  3446     00EA                     	ds	6
  3447                           
  3448                           	psect	cstackCOMMON
  3449     0070                     __pcstackCOMMON:
  3450     0070                     ?_TMR1_ISR:
  3451     0070                     ?_PMD_Initialize:	
  3452                           ; 1 bytes @ 0x0
  3453                           
  3454     0070                     ?_OSCILLATOR_Initialize:	
  3455                           ; 1 bytes @ 0x0
  3456                           
  3457     0070                     ?_TMR1_Initialize:	
  3458                           ; 1 bytes @ 0x0
  3459                           
  3460     0070                     ?_TMR1_DefaultInterruptHandler:	
  3461                           ; 1 bytes @ 0x0
  3462                           
  3463     0070                     ??_TMR1_DefaultInterruptHandler:	
  3464                           ; 1 bytes @ 0x0
  3465                           
  3466     0070                     ?_TMR1_CallBack:	
  3467                           ; 1 bytes @ 0x0
  3468                           
  3469     0070                     ??_TMR1_CallBack:	
  3470                           ; 1 bytes @ 0x0
  3471                           
  3472     0070                     ?_InitSoftUART:	
  3473                           ; 1 bytes @ 0x0
  3474                           
  3475     0070                     ?_UART_Transmit:	
  3476                           ; 1 bytes @ 0x0
  3477                           
  3478     0070                     ?_check_sequence_L1:	
  3479                           ; 1 bytes @ 0x0
  3480                           
  3481     0070                     ?_check_sequence_L2:	
  3482                           ; 1 bytes @ 0x0
  3483                           
  3484     0070                     ?_check_sequence_L3:	
  3485                           ; 1 bytes @ 0x0
  3486                           
  3487     0070                     ?_relay_to_off_step1_msg:	
  3488                           ; 1 bytes @ 0x0
  3489                           
  3490     0070                     ?_flag_off_step1:	
  3491                           ; 1 bytes @ 0x0
  3492                           
  3493     0070                     ?_relay_to_on_step1_msg:	
  3494                           ; 1 bytes @ 0x0
  3495                           
  3496     0070                     ?_flag_on_step1:	
  3497                           ; 1 bytes @ 0x0
  3498                           
  3499     0070                     ?_INTERRUPT_InterruptManager:	
  3500                           ; 1 bytes @ 0x0
  3501                           
  3502     0070                     ?_PIN_MANAGER_Initialize:	
  3503                           ; 1 bytes @ 0x0
  3504                           
  3505     0070                     ?_ADC_Initialize:	
  3506                           ; 1 bytes @ 0x0
  3507                           
  3508     0070                     ?_SYSTEM_Initialize:	
  3509                           ; 1 bytes @ 0x0
  3510                           
  3511     0070                     ?_TMR1_WriteTimer:	
  3512                           ; 1 bytes @ 0x0
  3513                           
  3514     0070                     ?_timer2ISR:	
  3515                           ; 1 bytes @ 0x0
  3516                           
  3517     0070                     ??_timer2ISR:	
  3518                           ; 1 bytes @ 0x0
  3519                           
  3520     0070                     ?_initialize:	
  3521                           ; 1 bytes @ 0x0
  3522                           
  3523     0070                     ?_main:	
  3524                           ; 1 bytes @ 0x0
  3525                           
  3526     0070                     TMR1_WriteTimer@timerVal:	
  3527                           ; 1 bytes @ 0x0
  3528                           
  3529                           
  3530                           ; 2 bytes @ 0x0
  3531     0070                     	ds	2
  3532     0072                     ??_TMR1_ISR:
  3533     0072                     ??_PMD_Initialize:	
  3534                           ; 1 bytes @ 0x2
  3535                           
  3536     0072                     ??_OSCILLATOR_Initialize:	
  3537                           ; 1 bytes @ 0x2
  3538                           
  3539     0072                     ?_TMR1_SetInterruptHandler:	
  3540                           ; 1 bytes @ 0x2
  3541                           
  3542     0072                     ??_InitSoftUART:	
  3543                           ; 1 bytes @ 0x2
  3544                           
  3545     0072                     ??_UART_Transmit:	
  3546                           ; 1 bytes @ 0x2
  3547                           
  3548     0072                     ?_getOutputLevel:	
  3549                           ; 1 bytes @ 0x2
  3550                           
  3551     0072                     ??_check_sequence_L1:	
  3552                           ; 1 bytes @ 0x2
  3553                           
  3554     0072                     ??_check_sequence_L2:	
  3555                           ; 1 bytes @ 0x2
  3556                           
  3557     0072                     ??_check_sequence_L3:	
  3558                           ; 1 bytes @ 0x2
  3559                           
  3560     0072                     ?_relay_to_off:	
  3561                           ; 1 bytes @ 0x2
  3562                           
  3563     0072                     ?_flag_off:	
  3564                           ; 1 bytes @ 0x2
  3565                           
  3566     0072                     ?_relay_to_off_step1:	
  3567                           ; 1 bytes @ 0x2
  3568                           
  3569     0072                     ??_flag_off_step1:	
  3570                           ; 1 bytes @ 0x2
  3571                           
  3572     0072                     ?_relay_to_on:	
  3573                           ; 1 bytes @ 0x2
  3574                           
  3575     0072                     ?_flag_on:	
  3576                           ; 1 bytes @ 0x2
  3577                           
  3578     0072                     ?_relay_to_on_step1:	
  3579                           ; 1 bytes @ 0x2
  3580                           
  3581     0072                     ??_flag_on_step1:	
  3582                           ; 1 bytes @ 0x2
  3583                           
  3584     0072                     ??_INTERRUPT_InterruptManager:	
  3585                           ; 1 bytes @ 0x2
  3586                           
  3587     0072                     ??_PIN_MANAGER_Initialize:	
  3588                           ; 1 bytes @ 0x2
  3589                           
  3590     0072                     ??_ADC_Initialize:	
  3591                           ; 1 bytes @ 0x2
  3592                           
  3593     0072                     ??_TMR1_WriteTimer:	
  3594                           ; 1 bytes @ 0x2
  3595                           
  3596     0072                     ??_initialize:	
  3597                           ; 1 bytes @ 0x2
  3598                           
  3599     0072                     ?_circ_bbuf_push:	
  3600                           ; 1 bytes @ 0x2
  3601                           
  3602     0072                     ?_circ_bbuf_pop:	
  3603                           ; 2 bytes @ 0x2
  3604                           
  3605     0072                     ?_ADC_GetConversion:	
  3606                           ; 2 bytes @ 0x2
  3607                           
  3608     0072                     ?___lmul:	
  3609                           ; 2 bytes @ 0x2
  3610                           
  3611     0072                     check_sequence_L1@channel_reading:	
  3612                           ; 4 bytes @ 0x2
  3613                           
  3614     0072                     check_sequence_L2@channel_reading:	
  3615                           ; 1 bytes @ 0x2
  3616                           
  3617     0072                     check_sequence_L3@channel_reading:	
  3618                           ; 1 bytes @ 0x2
  3619                           
  3620     0072                     relay_to_off@L:	
  3621                           ; 1 bytes @ 0x2
  3622                           
  3623     0072                     relay_to_off_step1@OnOf:	
  3624                           ; 1 bytes @ 0x2
  3625                           
  3626     0072                     relay_to_on@L:	
  3627                           ; 1 bytes @ 0x2
  3628                           
  3629     0072                     relay_to_on_step1@OnOf:	
  3630                           ; 1 bytes @ 0x2
  3631                           
  3632     0072                     flag_on@L:	
  3633                           ; 1 bytes @ 0x2
  3634                           
  3635     0072                     flag_off@L:	
  3636                           ; 1 bytes @ 0x2
  3637                           
  3638     0072                     TMR1_SetInterruptHandler@InterruptHandler:	
  3639                           ; 1 bytes @ 0x2
  3640                           
  3641     0072                     getOutputLevel@inputLevel:	
  3642                           ; 2 bytes @ 0x2
  3643                           
  3644     0072                     circ_bbuf_pop@c:	
  3645                           ; 2 bytes @ 0x2
  3646                           
  3647     0072                     circ_bbuf_push@c:	
  3648                           ; 2 bytes @ 0x2
  3649                           
  3650     0072                     ___lmul@multiplier:	
  3651                           ; 2 bytes @ 0x2
  3652                           
  3653                           
  3654                           ; 4 bytes @ 0x2
  3655     0072                     	ds	1
  3656     0073                     ??_flag_off:
  3657     0073                     ??_relay_to_off_step1:	
  3658                           ; 1 bytes @ 0x3
  3659                           
  3660     0073                     ??_flag_on:	
  3661                           ; 1 bytes @ 0x3
  3662                           
  3663     0073                     ??_relay_to_on_step1:	
  3664                           ; 1 bytes @ 0x3
  3665                           
  3666     0073                     relay_to_off@OnOf:	
  3667                           ; 1 bytes @ 0x3
  3668                           
  3669     0073                     relay_to_on@OnOf:	
  3670                           ; 1 bytes @ 0x3
  3671                           
  3672     0073                     UART_Transmit@DataValue:	
  3673                           ; 1 bytes @ 0x3
  3674                           
  3675                           
  3676                           ; 1 bytes @ 0x3
  3677     0073                     	ds	1
  3678     0074                     ??_TMR1_Initialize:
  3679     0074                     ??_TMR1_SetInterruptHandler:	
  3680                           ; 1 bytes @ 0x4
  3681                           
  3682     0074                     ??_relay_to_off:	
  3683                           ; 1 bytes @ 0x4
  3684                           
  3685     0074                     ??_relay_to_on:	
  3686                           ; 1 bytes @ 0x4
  3687                           
  3688     0074                     ??_ADC_GetConversion:	
  3689                           ; 1 bytes @ 0x4
  3690                           
  3691     0074                     ??_SYSTEM_Initialize:	
  3692                           ; 1 bytes @ 0x4
  3693                           
  3694     0074                     getOutputLevel@index:	
  3695                           ; 1 bytes @ 0x4
  3696                           
  3697     0074                     flag_on_step1@phase:	
  3698                           ; 1 bytes @ 0x4
  3699                           
  3700     0074                     flag_off_step1@phase:	
  3701                           ; 1 bytes @ 0x4
  3702                           
  3703     0074                     UART_Transmit@i:	
  3704                           ; 1 bytes @ 0x4
  3705                           
  3706     0074                     circ_bbuf_pop@data:	
  3707                           ; 1 bytes @ 0x4
  3708                           
  3709     0074                     circ_bbuf_push@data:	
  3710                           ; 1 bytes @ 0x4
  3711                           
  3712                           
  3713                           ; 1 bytes @ 0x4
  3714     0074                     	ds	1
  3715     0075                     ??_circ_bbuf_push:
  3716     0075                     ??_circ_bbuf_pop:	
  3717                           ; 1 bytes @ 0x5
  3718                           
  3719     0075                     ??_getOutputLevel:	
  3720                           ; 1 bytes @ 0x5
  3721                           
  3722     0075                     ADC_GetConversion@channel:	
  3723                           ; 1 bytes @ 0x5
  3724                           
  3725     0075                     relay_to_off_step1@phase:	
  3726                           ; 1 bytes @ 0x5
  3727                           
  3728     0075                     relay_to_on_step1@phase:	
  3729                           ; 1 bytes @ 0x5
  3730                           
  3731     0075                     flag_on@phase:	
  3732                           ; 1 bytes @ 0x5
  3733                           
  3734     0075                     flag_off@phase:	
  3735                           ; 1 bytes @ 0x5
  3736                           
  3737                           
  3738                           ; 1 bytes @ 0x5
  3739     0075                     	ds	1
  3740     0076                     relay_to_off@phase:
  3741     0076                     relay_to_on@phase:	
  3742                           ; 1 bytes @ 0x6
  3743                           
  3744     0076                     ___lmul@multiplicand:	
  3745                           ; 1 bytes @ 0x6
  3746                           
  3747                           
  3748                           ; 4 bytes @ 0x6
  3749     0076                     	ds	2
  3750     0078                     circ_bbuf_push@next:
  3751                           
  3752                           ; 2 bytes @ 0x8
  3753     0078                     	ds	2
  3754     007A                     ??_millis:
  3755     007A                     ??___lmul:	
  3756                           ; 1 bytes @ 0xA
  3757                           
  3758                           
  3759                           	psect	cstackBANK0
  3760     0020                     __pcstackBANK0:	
  3761                           ; 1 bytes @ 0xA
  3762                           
  3763     0020                     ?_push_string_buffer:
  3764     0020                     push_string_buffer@len:	
  3765                           ; 1 bytes @ 0x0
  3766                           
  3767     0020                     getOutputLevel@lb:	
  3768                           ; 2 bytes @ 0x0
  3769                           
  3770     0020                     circ_bbuf_pop@next:	
  3771                           ; 2 bytes @ 0x0
  3772                           
  3773     0020                     ___lmul@product:	
  3774                           ; 2 bytes @ 0x0
  3775                           
  3776                           
  3777                           ; 4 bytes @ 0x0
  3778     0020                     	ds	2
  3779     0022                     ??_push_string_buffer:
  3780     0022                     getOutputLevel@ub:	
  3781                           ; 1 bytes @ 0x2
  3782                           
  3783                           
  3784                           ; 2 bytes @ 0x2
  3785     0022                     	ds	1
  3786     0023                     push_string_buffer@i:
  3787                           
  3788                           ; 2 bytes @ 0x3
  3789     0023                     	ds	1
  3790     0024                     ?_millis:
  3791     0024                     getOutputLevel@i:	
  3792                           ; 4 bytes @ 0x4
  3793                           
  3794                           
  3795                           ; 2 bytes @ 0x4
  3796     0024                     	ds	1
  3797     0025                     push_string_buffer@data:
  3798                           
  3799                           ; 1 bytes @ 0x5
  3800     0025                     	ds	1
  3801     0026                     ?_relay_to_off_msg:
  3802     0026                     ??_relay_to_off_step1_msg:	
  3803                           ; 1 bytes @ 0x6
  3804                           
  3805     0026                     ?_relay_to_on_msg:	
  3806                           ; 1 bytes @ 0x6
  3807                           
  3808     0026                     ??_relay_to_on_step1_msg:	
  3809                           ; 1 bytes @ 0x6
  3810                           
  3811     0026                     relay_to_off_msg@L:	
  3812                           ; 1 bytes @ 0x6
  3813                           
  3814     0026                     relay_to_on_msg@L:	
  3815                           ; 1 bytes @ 0x6
  3816                           
  3817     0026                     getOutputLevel@currentOutputLevel:	
  3818                           ; 1 bytes @ 0x6
  3819                           
  3820                           
  3821                           ; 2 bytes @ 0x6
  3822     0026                     	ds	1
  3823     0027                     ??_relay_to_off_msg:
  3824     0027                     ??_relay_to_on_msg:	
  3825                           ; 1 bytes @ 0x7
  3826                           
  3827                           
  3828                           ; 1 bytes @ 0x7
  3829     0027                     	ds	1
  3830     0028                     millis@out:
  3831     0028                     relay_to_off_step1_msg@buffer:	
  3832                           ; 4 bytes @ 0x8
  3833                           
  3834     0028                     relay_to_on_step1_msg@buffer:	
  3835                           ; 50 bytes @ 0x8
  3836                           
  3837                           
  3838                           ; 50 bytes @ 0x8
  3839     0028                     	ds	1
  3840     0029                     relay_to_off_msg@phase:
  3841     0029                     relay_to_on_msg@phase:	
  3842                           ; 1 bytes @ 0x9
  3843                           
  3844                           
  3845                           ; 1 bytes @ 0x9
  3846     0029                     	ds	1
  3847     002A                     relay_to_off_msg@buffer:
  3848     002A                     relay_to_on_msg@buffer:	
  3849                           ; 50 bytes @ 0xA
  3850                           
  3851                           
  3852                           ; 50 bytes @ 0xA
  3853     002A                     	ds	48
  3854     005A                     relay_to_off_step1_msg@phase:
  3855     005A                     relay_to_on_step1_msg@phase:	
  3856                           ; 1 bytes @ 0x3A
  3857                           
  3858                           
  3859                           ; 1 bytes @ 0x3A
  3860     005A                     	ds	2
  3861     005C                     ??_main:
  3862                           
  3863                           ; 1 bytes @ 0x3C
  3864     005C                     	ds	5
  3865     0061                     main@ch:
  3866                           
  3867                           ; 1 bytes @ 0x41
  3868     0061                     	ds	1
  3869                           
  3870                           	psect	maintext
  3871     00B1                     __pmaintext:	
  3872 ;;
  3873 ;;Main: autosize = 0, tempsize = 5, incstack = 0, save=0
  3874 ;;
  3875 ;; *************** function _main *****************
  3876 ;; Defined at:
  3877 ;;		line 179 in file "main.c"
  3878 ;; Parameters:    Size  Location     Type
  3879 ;;		None
  3880 ;; Auto vars:     Size  Location     Type
  3881 ;;  buffer         50   24[BANK1 ] unsigned char [50]
  3882 ;;  lastDebounce   24    6[BANK2 ] unsigned long [6]
  3883 ;;  time           24    0[BANK1 ] unsigned long [6]
  3884 ;;  lastDebounce   12   51[BANK2 ] unsigned long [3]
  3885 ;;  relayIsOff     12   36[BANK2 ] unsigned long [3]
  3886 ;;  reading         6   63[BANK2 ] unsigned char [6]
  3887 ;;  updated_read    6   30[BANK2 ] unsigned char [6]
  3888 ;;  inc_for_2sec    6    0[BANK2 ] unsigned char [6]
  3889 ;;  previous        6   74[BANK1 ] unsigned char [6]
  3890 ;;  inc_for_5sec    3   48[BANK2 ] unsigned char [3]
  3891 ;;  counter         2   74[BANK2 ] unsigned short 
  3892 ;;  indexLoad       1    1[BANK4 ] unsigned char 
  3893 ;;  indexADC        1    0[BANK4 ] unsigned char 
  3894 ;;  phaseWas        1    0[BANK3 ] unsigned char 
  3895 ;;  phaseIs         1   76[BANK2 ] unsigned char 
  3896 ;;  outputWas       1   73[BANK2 ] unsigned char 
  3897 ;;  phaseExpecte    1   72[BANK2 ] unsigned char 
  3898 ;;  outputIs        1   71[BANK2 ] unsigned char 
  3899 ;;  relayOnInPro    1   70[BANK2 ] unsigned char 
  3900 ;;  relayOfInPro    1   69[BANK2 ] unsigned char 
  3901 ;;  ch              1   65[BANK0 ] unsigned char 
  3902 ;; Return value:  Size  Location     Type
  3903 ;;                  1    wreg      void 
  3904 ;; Registers used:
  3905 ;;		wreg, fsr0l, fsr0h, fsr1l, fsr1h, status,2, status,0, pclath, cstack
  3906 ;; Tracked objects:
  3907 ;;		On entry : B3F/0
  3908 ;;		On exit  : 0/0
  3909 ;;		Unchanged: 0/0
  3910 ;; Data sizes:     COMMON   BANK0   BANK1   BANK2   BANK3   BANK4   BANK5   BANK6   BANK7   BANK8   BANK9  BANK10  BANK1
      +1  BANK12  BANK13  BANK14  BANK15  BANK16  BANK17  BANK18  BANK19  BANK20  BANK21  BANK22  BANK23  BANK24  BANK25
  3911 ;;      Params:         0       0       0       0       0       0       0       0       0       0       0       0       
      +0       0       0       0       0       0       0       0       0       0       0       0       0       0       0
  3912 ;;      Locals:         0       1      80      77       1       2       0       0       0       0       0       0       
      +0       0       0       0       0       0       0       0       0       0       0       0       0       0       0
  3913 ;;      Temps:          0       5       0       0       0       0       0       0       0       0       0       0       
      +0       0       0       0       0       0       0       0       0       0       0       0       0       0       0
  3914 ;;      Totals:         0       6      80      77       1       2       0       0       0       0       0       0       
      +0       0       0       0       0       0       0       0       0       0       0       0       0       0       0
  3915 ;;Total ram usage:      166 bytes
  3916 ;; Hardware stack levels required when called: 7
  3917 ;; This function calls:
  3918 ;;		_ADC_GetConversion
  3919 ;;		_InitSoftUART
  3920 ;;		_SYSTEM_Initialize
  3921 ;;		_TMR1_SetInterruptHandler
  3922 ;;		_UART_Transmit
  3923 ;;		_check_sequence_L1
  3924 ;;		_check_sequence_L2
  3925 ;;		_check_sequence_L3
  3926 ;;		_circ_bbuf_pop
  3927 ;;		_flag_off
  3928 ;;		_flag_off_step1
  3929 ;;		_flag_on
  3930 ;;		_flag_on_step1
  3931 ;;		_getOutputLevel
  3932 ;;		_initialize
  3933 ;;		_millis
  3934 ;;		_push_string_buffer
  3935 ;;		_relay_to_off
  3936 ;;		_relay_to_off_msg
  3937 ;;		_relay_to_off_step1
  3938 ;;		_relay_to_off_step1_msg
  3939 ;;		_relay_to_on
  3940 ;;		_relay_to_on_msg
  3941 ;;		_relay_to_on_step1
  3942 ;;		_relay_to_on_step1_msg
  3943 ;; This function is called by:
  3944 ;;		Startup code after reset
  3945 ;; This function uses a non-reentrant model
  3946 ;;
  3947                           
  3948     00B1                     _main:	
  3949                           ;psect for function _main
  3950                           
  3951     00B1                     l5916:	
  3952                           ;incstack = 0
  3953                           ; Regs used in _main: [wreg-fsr1h+status,2+status,0+pclath+cstack]
  3954                           
  3955                           
  3956                           ;main.c: 181:     uint8_t ch;;main.c: 182:     uint8_t indexADC = 0;
  3957     00B1  0144               	movlb	4	; select bank4
  3958     00B2  01EB               	clrf	main@indexADC^(0+512)
  3959                           
  3960                           ;main.c: 183:     uint8_t indexLoad = 0;
  3961     00B3  01EC               	clrf	main@indexLoad^(0+512)
  3962                           
  3963                           ;main.c: 184:     uint16_t counter = 0;
  3964     00B4  0142               	movlb	2	; select bank2
  3965     00B5  01EA               	clrf	main@counter^(0+256)
  3966     00B6  01EB               	clrf	(main@counter+1)^(0+256)
  3967     00B7                     l5918:
  3968                           
  3969                           ;main.c: 185:     uint32_t lastDebounceLevel[3] = {0};
  3970     00B7  3053               	movlw	low main@lastDebounceLevel
  3971     00B8  0086               	movwf	6
  3972     00B9  3001               	movlw	high main@lastDebounceLevel
  3973     00BA  0087               	movwf	7
  3974     00BB  300C               	movlw	12
  3975     00BC  0140               	movlb	0	; select bank0
  3976     00BD  00DC               	movwf	??_main
  3977     00BE  3000               	movlw	0
  3978     00BF                     u5910:
  3979     00BF  001E               	movwi fsr1++
  3980     00C0  0BDC               	decfsz	??_main,f
  3981     00C1  28BF               	goto	u5910
  3982     00C2                     l5920:
  3983                           
  3984                           ;main.c: 186:     uint8_t inc_for_5sec[3] = {0};
  3985     00C2  3000               	movlw	0
  3986     00C3  0142               	movlb	2	; select bank2
  3987     00C4  00D0               	movwf	main@inc_for_5sec^(0+256)
  3988     00C5  3000               	movlw	0
  3989     00C6  00D1               	movwf	(main@inc_for_5sec+1)^(0+256)
  3990     00C7  3000               	movlw	0
  3991     00C8  00D2               	movwf	(main@inc_for_5sec+2)^(0+256)
  3992     00C9                     l5922:
  3993                           
  3994                           ;main.c: 187:     uint32_t lastDebounceAdc[6] = {0};
  3995     00C9  3026               	movlw	low main@lastDebounceAdc
  3996     00CA  0086               	movwf	6
  3997     00CB  3001               	movlw	high main@lastDebounceAdc
  3998     00CC  0087               	movwf	7
  3999     00CD  3018               	movlw	24
  4000     00CE  0140               	movlb	0	; select bank0
  4001     00CF  00DC               	movwf	??_main
  4002     00D0  3000               	movlw	0
  4003     00D1                     u5920:
  4004     00D1  001E               	movwi fsr1++
  4005     00D2  0BDC               	decfsz	??_main,f
  4006     00D3  28D1               	goto	u5920
  4007     00D4                     l5924:
  4008                           
  4009                           ;main.c: 188:     uint8_t inc_for_2sec[6] = {0};
  4010     00D4  3020               	movlw	low main@inc_for_2sec
  4011     00D5  0086               	movwf	6
  4012     00D6  3001               	movlw	high main@inc_for_2sec
  4013     00D7  0087               	movwf	7
  4014     00D8  3006               	movlw	6
  4015     00D9  00DC               	movwf	??_main
  4016     00DA  3000               	movlw	0
  4017     00DB                     u5930:
  4018     00DB  001E               	movwi fsr1++
  4019     00DC  0BDC               	decfsz	??_main,f
  4020     00DD  28DB               	goto	u5930
  4021     00DE                     l5926:
  4022                           
  4023                           ;main.c: 189:     uint8_t relayOfInProgress = 0;
  4024     00DE  0142               	movlb	2	; select bank2
  4025     00DF  01E5               	clrf	main@relayOfInProgress^(0+256)
  4026     00E0                     l5928:
  4027                           
  4028                           ;main.c: 190:     uint8_t relayOnInProgress = 0;
  4029     00E0  01E6               	clrf	main@relayOnInProgress^(0+256)
  4030     00E1                     l5930:
  4031                           
  4032                           ;main.c: 191:     uint8_t phaseWas = 6;
  4033     00E1  3006               	movlw	6
  4034     00E2  0143               	movlb	3	; select bank3
  4035     00E3  00EC               	movwf	main@phaseWas^(0+384)
  4036     00E4                     l5932:
  4037                           
  4038                           ;main.c: 192:     uint8_t outputWas = 3;
  4039     00E4  3003               	movlw	3
  4040     00E5  0142               	movlb	2	; select bank2
  4041     00E6  00E9               	movwf	main@outputWas^(0+256)
  4042     00E7                     l5934:
  4043                           
  4044                           ;main.c: 193:     uint8_t phaseIs = 6;
  4045     00E7  3006               	movlw	6
  4046     00E8  00EC               	movwf	main@phaseIs^(0+256)
  4047     00E9                     l5936:
  4048                           
  4049                           ;main.c: 194:     uint8_t outputIs = 3;
  4050     00E9  3003               	movlw	3
  4051     00EA  00E7               	movwf	main@outputIs^(0+256)
  4052     00EB                     l5938:
  4053                           
  4054                           ;main.c: 195:     uint8_t phaseExpected = 6;
  4055     00EB  3006               	movlw	6
  4056     00EC  00E8               	movwf	main@phaseExpected^(0+256)
  4057     00ED                     l5940:
  4058                           
  4059                           ;main.c: 196:     uint32_t time[6] = {0};
  4060     00ED  30A0               	movlw	low main@time
  4061     00EE  0086               	movwf	6
  4062     00EF  3000               	movlw	high main@time
  4063     00F0  0087               	movwf	7
  4064     00F1  3018               	movlw	24
  4065     00F2  0140               	movlb	0	; select bank0
  4066     00F3  00DC               	movwf	??_main
  4067     00F4  3000               	movlw	0
  4068     00F5                     u5940:
  4069     00F5  001E               	movwi fsr1++
  4070     00F6  0BDC               	decfsz	??_main,f
  4071     00F7  28F5               	goto	u5940
  4072     00F8                     l5942:
  4073                           
  4074                           ;main.c: 197:     uint32_t relayIsOff[3] = {0};
  4075     00F8  3044               	movlw	low main@relayIsOff
  4076     00F9  0086               	movwf	6
  4077     00FA  3001               	movlw	high main@relayIsOff
  4078     00FB  0087               	movwf	7
  4079     00FC  300C               	movlw	12
  4080     00FD  00DC               	movwf	??_main
  4081     00FE  3000               	movlw	0
  4082     00FF                     u5950:
  4083     00FF  001E               	movwi fsr1++
  4084     0100  0BDC               	decfsz	??_main,f
  4085     0101  28FF               	goto	u5950
  4086     0102                     l5944:
  4087                           
  4088                           ;main.c: 198:     uint8_t reading[6];;main.c: 199:     uint8_t updated_reading[6];;main.
      +                          c: 200:     uint8_t previous[6];;main.c: 201:     char buffer[50];;main.c: 202:     SYST
      +                          EM_Initialize();
  4089     0102  3196  26F4  3180   	fcall	_SYSTEM_Initialize
  4090     0105                     l5946:
  4091                           
  4092                           ;main.c: 203:     test_seq_pointer [0] = test_seq_L1;
  4093     0105  3045               	movlw	(low (_test_seq_L1| (0+512)))& (0+255)
  4094     0106  0143               	movlb	3	; select bank3
  4095     0107  00E0               	movwf	_test_seq_pointer^(0+384)
  4096     0108                     l5948:
  4097                           
  4098                           ;main.c: 204:     test_seq_pointer [1] = test_seq_L2;
  4099     0108  3039               	movlw	(low (_test_seq_L2| (0+512)))& (0+255)
  4100     0109  00E1               	movwf	(low ((_test_seq_pointer| (0+256)+1)))^(0+128)
  4101     010A                     l5950:
  4102                           
  4103                           ;main.c: 205:     test_seq_pointer [2] = test_seq_L3;
  4104     010A  30D0               	movlw	(low (_test_seq_L3| (0+512)))& (0+255)
  4105     010B  00E2               	movwf	(low ((_test_seq_pointer| (0+256)+2)))^(0+128)
  4106     010C                     l5952:
  4107                           
  4108                           ;main.c: 206:     out_seq_pointer [0] = out_seq_L1;
  4109     010C  30B9               	movlw	low _out_seq_L1
  4110     010D  00C6               	movwf	_out_seq_pointer^(0+384)
  4111     010E  3001               	movlw	high _out_seq_L1
  4112     010F  00C7               	movwf	(_out_seq_pointer+1)^(0+384)
  4113     0110                     l5954:
  4114                           
  4115                           ;main.c: 207:     out_seq_pointer [1] = out_seq_L2;
  4116     0110  30AC               	movlw	low _out_seq_L2
  4117     0111  00C8               	movwf	(low ((_out_seq_pointer| (0+256)+2)))^(0+128)
  4118     0112  3001               	movlw	high _out_seq_L2
  4119     0113  00C9               	movwf	((low ((_out_seq_pointer| (0+256)+2))+1))^(0+128)
  4120     0114                     l5956:
  4121                           
  4122                           ;main.c: 208:     out_seq_pointer [2] = out_seq_L3;
  4123     0114  302C               	movlw	low _out_seq_L3
  4124     0115  00CA               	movwf	(low ((_out_seq_pointer| (0+256)+4)))^(0+128)
  4125     0116  3002               	movlw	high _out_seq_L3
  4126     0117  00CB               	movwf	((low ((_out_seq_pointer| (0+256)+4))+1))^(0+128)
  4127     0118                     l5958:
  4128                           
  4129                           ;main.c: 209:     InitSoftUART();
  4130     0118  3196  268A  3180   	fcall	_InitSoftUART
  4131     011B                     l5960:
  4132                           
  4133                           ;main.c: 210:     initialize();
  4134     011B  318F  2714  3180   	fcall	_initialize
  4135     011E                     l5962:
  4136                           
  4137                           ;main.c: 211:     TMR1_SetInterruptHandler(timer2ISR);
  4138     011E  309B               	movlw	low _timer2ISR
  4139     011F  00F2               	movwf	TMR1_SetInterruptHandler@InterruptHandler
  4140     0120  3016               	movlw	high _timer2ISR
  4141     0121  00F3               	movwf	TMR1_SetInterruptHandler@InterruptHandler+1
  4142     0122  3196  268D  3180   	fcall	_TMR1_SetInterruptHandler
  4143     0125                     l5964:
  4144                           
  4145                           ;main.c: 217:     (INTCONbits.GIE = 1);
  4146     0125  178B               	bsf	11,7	;volatile
  4147     0126                     l5966:
  4148                           
  4149                           ;main.c: 220:     (INTCONbits.PEIE = 1);
  4150     0126  170B               	bsf	11,6	;volatile
  4151     0127                     l5968:
  4152                           
  4153                           ;main.c: 229:     {;main.c: 230:         if(!circ_bbuf_pop(&my_circ_buf, &ch))
  4154     0127  3051               	movlw	low _my_circ_buf
  4155     0128  00F2               	movwf	circ_bbuf_pop@c
  4156     0129  3002               	movlw	high _my_circ_buf
  4157     012A  00F3               	movwf	circ_bbuf_pop@c+1
  4158     012B  3061               	movlw	(low (main@ch| 0))& (0+255)
  4159     012C  00F4               	movwf	circ_bbuf_pop@data
  4160     012D  318A  2278  3180   	fcall	_circ_bbuf_pop
  4161     0130  0872               	movf	?_circ_bbuf_pop,w
  4162     0131  0473               	iorwf	?_circ_bbuf_pop+1,w
  4163     0132  1D03               	btfss	3,2
  4164     0133  2935               	goto	u5961
  4165     0134  2936               	goto	u5960
  4166     0135                     u5961:
  4167     0135  293B               	goto	l5972
  4168     0136                     u5960:
  4169     0136                     l5970:
  4170                           
  4171                           ;main.c: 231:             UART_Transmit(ch);
  4172     0136  0140               	movlb	0	; select bank0
  4173     0137  0861               	movf	main@ch,w
  4174     0138  3188  201B  3180   	fcall	_UART_Transmit
  4175     013B                     l5972:
  4176                           
  4177                           ;main.c: 233:         if(run_mainloop)
  4178     013B  0143               	movlb	3	; select bank3
  4179     013C  0867               	movf	_run_mainloop^(0+384),w	;volatile
  4180     013D  1903               	btfsc	3,2
  4181     013E  2940               	goto	u5971
  4182     013F  2941               	goto	u5970
  4183     0140                     u5971:
  4184     0140  2927               	goto	l5968
  4185     0141                     u5970:
  4186     0141                     l5974:
  4187                           
  4188                           ;main.c: 234:         {;main.c: 239:                 result[indexADC] = ADC_GetConversio
      +                          n(indexADC);
  4189     0141  0144               	movlb	4	; select bank4
  4190     0142  086B               	movf	main@indexADC^(0+512),w
  4191     0143  3188  2000  3180   	fcall	_ADC_GetConversion
  4192     0146  0144               	movlb	4	; select bank4
  4193     0147  356B               	lslf	main@indexADC^(0+512),w
  4194     0148  3E62               	addlw	(low (_result| 0))& (0+255)
  4195     0149  0086               	movwf	6
  4196     014A  0187               	clrf	7
  4197     014B  0872               	movf	?_ADC_GetConversion,w
  4198     014C  3FC0               	movwi [0]fsr1
  4199     014D  0873               	movf	?_ADC_GetConversion+1,w
  4200     014E  3FC1               	movwi [1]fsr1
  4201                           
  4202                           ;main.c: 240:                 updated_reading[indexADC] = getOutputLevel(result[indexADC
      +                          ],indexADC);
  4203     014F  356B               	lslf	main@indexADC^(0+512),w
  4204     0150  3E62               	addlw	(low (_result| 0))& (0+255)
  4205     0151  0086               	movwf	6
  4206     0152  0187               	clrf	7
  4207     0153  3F40               	moviw [0]fsr1
  4208     0154  00F2               	movwf	getOutputLevel@inputLevel
  4209     0155  3F41               	moviw [1]fsr1
  4210     0156  00F3               	movwf	getOutputLevel@inputLevel+1
  4211     0157  086B               	movf	main@indexADC^(0+512),w
  4212     0158  00F4               	movwf	getOutputLevel@index
  4213     0159  3187  274D  3180   	fcall	_getOutputLevel
  4214     015C  0140               	movlb	0	; select bank0
  4215     015D  00DC               	movwf	??_main
  4216     015E  0144               	movlb	4	; select bank4
  4217     015F  086B               	movf	main@indexADC^(0+512),w
  4218     0160  3E3E               	addlw	(low (main@updated_reading| (0+256)))& (0+255)
  4219     0161  0086               	movwf	6
  4220     0162  3001               	movlw	1	; select bank2/3
  4221     0163  0087               	movwf	7
  4222     0164  0140               	movlb	0	; select bank0
  4223     0165  085C               	movf	??_main,w
  4224     0166  0081               	movwf	1
  4225     0167                     l5976:
  4226                           
  4227                           ;main.c: 241:                 if(updated_reading[indexADC] != previous[indexADC])
  4228     0167  0144               	movlb	4	; select bank4
  4229     0168  086B               	movf	main@indexADC^(0+512),w
  4230     0169  3EEA               	addlw	(low (main@previous| 0))& (0+255)
  4231     016A  0086               	movwf	6
  4232     016B  0187               	clrf	7
  4233     016C  086B               	movf	main@indexADC^(0+512),w
  4234     016D  3E3E               	addlw	(low (main@updated_reading| (0+256)))& (0+255)
  4235     016E  0084               	movwf	4
  4236     016F  3001               	movlw	1	; select bank2/3
  4237     0170  0085               	movwf	5
  4238     0171  0800               	movf	0,w
  4239     0172  0601               	xorwf	1,w
  4240     0173  1903               	skipnz
  4241     0174  2976               	goto	u5981
  4242     0175  2977               	goto	u5980
  4243     0176                     u5981:
  4244     0176  29AB               	goto	l5984
  4245     0177                     u5980:
  4246     0177                     l5978:
  4247                           
  4248                           ;main.c: 242:                 {;main.c: 243:                     time[indexADC] = millis
      +                          ();
  4249     0177  3197  275B  3180   	fcall	_millis
  4250     017A  0144               	movlb	4	; select bank4
  4251     017B  086B               	movf	main@indexADC^(0+512),w
  4252     017C  0140               	movlb	0	; select bank0
  4253     017D  00DC               	movwf	??_main
  4254     017E  3001               	movlw	1
  4255     017F                     u5995:
  4256     017F  35DC               	lslf	??_main,f
  4257     0180  3EFF               	addlw	-1
  4258     0181  1D03               	skipz
  4259     0182  297F               	goto	u5995
  4260     0183  355C               	lslf	??_main,w
  4261     0184  3EA0               	addlw	(low (main@time| 0))& (0+255)
  4262     0185  0086               	movwf	6
  4263     0186  0187               	clrf	7
  4264     0187  0824               	movf	?_millis,w
  4265     0188  3FC0               	movwi [0]fsr1
  4266     0189  0825               	movf	?_millis+1,w
  4267     018A  3FC1               	movwi [1]fsr1
  4268     018B  0826               	movf	?_millis+2,w
  4269     018C  3FC2               	movwi [2]fsr1
  4270     018D  0827               	movf	?_millis+3,w
  4271     018E  3FC3               	movwi [3]fsr1
  4272     018F                     l5980:
  4273                           
  4274                           ;main.c: 244:                     lastDebounceAdc[indexADC] = 0;
  4275     018F  0144               	movlb	4	; select bank4
  4276     0190  086B               	movf	main@indexADC^(0+512),w
  4277     0191  0140               	movlb	0	; select bank0
  4278     0192  00DC               	movwf	??_main
  4279     0193  3001               	movlw	1
  4280     0194                     u6005:
  4281     0194  35DC               	lslf	??_main,f
  4282     0195  3EFF               	addlw	-1
  4283     0196  1D03               	skipz
  4284     0197  2994               	goto	u6005
  4285     0198  355C               	lslf	??_main,w
  4286     0199  3E26               	addlw	(low (main@lastDebounceAdc| (0+256)))& (0+255)
  4287     019A  0086               	movwf	6
  4288     019B  3001               	movlw	1	; select bank2/3
  4289     019C  0087               	movwf	7
  4290     019D  3000               	movlw	0
  4291     019E  3FC0               	movwi [0]fsr1
  4292     019F  3000               	movlw	0
  4293     01A0  3FC1               	movwi [1]fsr1
  4294     01A1  3FC2               	movwi [2]fsr1
  4295     01A2  3FC3               	movwi [3]fsr1
  4296     01A3                     l5982:
  4297                           
  4298                           ;main.c: 245:                     inc_for_2sec [indexADC] = 1;
  4299     01A3  0144               	movlb	4	; select bank4
  4300     01A4  086B               	movf	main@indexADC^(0+512),w
  4301     01A5  3E20               	addlw	(low (main@inc_for_2sec| (0+256)))& (0+255)
  4302     01A6  0086               	movwf	6
  4303     01A7  3001               	movlw	1	; select bank2/3
  4304     01A8  0087               	movwf	7
  4305     01A9  0181               	clrf	1
  4306     01AA  0A81               	incf	1,f
  4307     01AB                     l5984:
  4308                           
  4309                           ;main.c: 249:                 if (lastDebounceAdc[indexADC] >= 16)
  4310     01AB  086B               	movf	main@indexADC^(0+512),w
  4311     01AC  0140               	movlb	0	; select bank0
  4312     01AD  00DC               	movwf	??_main
  4313     01AE  3001               	movlw	1
  4314     01AF                     u6015:
  4315     01AF  35DC               	lslf	??_main,f
  4316     01B0  3EFF               	addlw	-1
  4317     01B1  1D03               	skipz
  4318     01B2  29AF               	goto	u6015
  4319     01B3  355C               	lslf	??_main,w
  4320     01B4  3E26               	addlw	(low (main@lastDebounceAdc| (0+256)))& (0+255)
  4321     01B5  0086               	movwf	6
  4322     01B6  3001               	movlw	1	; select bank2/3
  4323     01B7  0087               	movwf	7
  4324     01B8  3F43               	moviw [3]fsr1
  4325     01B9  1D03               	btfss	3,2
  4326     01BA  29C9               	goto	u6020
  4327     01BB  3F42               	moviw [2]fsr1
  4328     01BC  1D03               	btfss	3,2
  4329     01BD  29C9               	goto	u6020
  4330     01BE  3F41               	moviw [1]fsr1
  4331     01BF  1D03               	btfss	3,2
  4332     01C0  29C9               	goto	u6020
  4333     01C1  3F40               	moviw [0]fsr1
  4334     01C2  00DD               	movwf	??_main+1
  4335     01C3  3010               	movlw	16
  4336     01C4  025D               	subwf	??_main+1,w
  4337     01C5  1C03               	btfss	3,0
  4338     01C6  29C8               	goto	u6021
  4339     01C7  29C9               	goto	u6020
  4340     01C8                     u6021:
  4341     01C8  2A22               	goto	l6008
  4342     01C9                     u6020:
  4343     01C9                     l5986:
  4344                           
  4345                           ;main.c: 250:                     if (updated_reading[indexADC] != reading[indexADC])
  4346     01C9  0144               	movlb	4	; select bank4
  4347     01CA  086B               	movf	main@indexADC^(0+512),w
  4348     01CB  3E5F               	addlw	(low (main@reading| (0+256)))& (0+255)
  4349     01CC  0086               	movwf	6
  4350     01CD  3001               	movlw	1	; select bank2/3
  4351     01CE  0087               	movwf	7
  4352     01CF  086B               	movf	main@indexADC^(0+512),w
  4353     01D0  3E3E               	addlw	(low (main@updated_reading| (0+256)))& (0+255)
  4354     01D1  0084               	movwf	4
  4355     01D2  3001               	movlw	1	; select bank2/3
  4356     01D3  0085               	movwf	5
  4357     01D4  0800               	movf	0,w
  4358     01D5  0601               	xorwf	1,w
  4359     01D6  1903               	skipnz
  4360     01D7  29D9               	goto	u6031
  4361     01D8  29DA               	goto	u6030
  4362     01D9                     u6031:
  4363     01D9  2A22               	goto	l6008
  4364     01DA                     u6030:
  4365     01DA                     l5988:
  4366                           
  4367                           ;main.c: 251:                     {;main.c: 252:                         reading[indexAD
      +                          C] = updated_reading[indexADC];
  4368     01DA  086B               	movf	main@indexADC^(0+512),w
  4369     01DB  3E5F               	addlw	(low (main@reading| (0+256)))& (0+255)
  4370     01DC  0086               	movwf	6
  4371     01DD  3001               	movlw	1	; select bank2/3
  4372     01DE  0087               	movwf	7
  4373     01DF  086B               	movf	main@indexADC^(0+512),w
  4374     01E0  3E3E               	addlw	(low (main@updated_reading| (0+256)))& (0+255)
  4375     01E1  0084               	movwf	4
  4376     01E2  3001               	movlw	1	; select bank2/3
  4377     01E3  0085               	movwf	5
  4378     01E4  0800               	movf	0,w
  4379     01E5  0081               	movwf	1
  4380     01E6                     l5990:
  4381                           
  4382                           ;main.c: 253:                         buffer[0]='A';
  4383     01E6  3041               	movlw	65
  4384     01E7  0141               	movlb	1	; select bank1
  4385     01E8  00B8               	movwf	main@buffer^(0+128)
  4386     01E9                     l5992:
  4387                           
  4388                           ;main.c: 254:                         buffer[1]= indexADC+0x30;
  4389     01E9  0144               	movlb	4	; select bank4
  4390     01EA  086B               	movf	main@indexADC^(0+512),w
  4391     01EB  3E30               	addlw	48
  4392     01EC  0141               	movlb	1	; select bank1
  4393     01ED  00B9               	movwf	(main@buffer^(0+128)+1)
  4394     01EE                     l5994:
  4395                           
  4396                           ;main.c: 255:                         buffer[2]= ':';
  4397     01EE  303A               	movlw	58
  4398     01EF  00BA               	movwf	(main@buffer^(0+128)+2)
  4399     01F0                     l5996:
  4400                           
  4401                           ;main.c: 256:                         buffer[3]= reading[indexADC]+0x30;
  4402     01F0  0144               	movlb	4	; select bank4
  4403     01F1  086B               	movf	main@indexADC^(0+512),w
  4404     01F2  3E5F               	addlw	(low (main@reading| (0+256)))& (0+255)
  4405     01F3  0086               	movwf	6
  4406     01F4  3001               	movlw	1	; select bank2/3
  4407     01F5  0087               	movwf	7
  4408     01F6  0801               	movf	1,w
  4409     01F7  3E30               	addlw	48
  4410     01F8  0141               	movlb	1	; select bank1
  4411     01F9  00BB               	movwf	(main@buffer^(0+128)+3)
  4412     01FA                     l5998:
  4413                           
  4414                           ;main.c: 257:                         buffer[4]= '\n';
  4415     01FA  300A               	movlw	10
  4416     01FB  00BC               	movwf	(main@buffer^(0+128)+4)
  4417     01FC                     l6000:
  4418                           
  4419                           ;main.c: 258:                         buffer[5]= '\r';
  4420     01FC  300D               	movlw	13
  4421     01FD  00BD               	movwf	(main@buffer^(0+128)+5)
  4422     01FE                     l6002:
  4423                           
  4424                           ;main.c: 259:                         push_string_buffer(buffer,6);
  4425     01FE  3006               	movlw	6
  4426     01FF  0140               	movlb	0	; select bank0
  4427     0200  00A0               	movwf	push_string_buffer@len
  4428     0201  3000               	movlw	0
  4429     0202  00A1               	movwf	push_string_buffer@len+1
  4430     0203  30B8               	movlw	(low (main@buffer| 0))& (0+255)
  4431     0204  3197  27AC  3180   	fcall	_push_string_buffer
  4432     0207                     l6004:
  4433                           
  4434                           ;main.c: 260:                         lastDebounceAdc[indexADC] = 0;
  4435     0207  0144               	movlb	4	; select bank4
  4436     0208  086B               	movf	main@indexADC^(0+512),w
  4437     0209  0140               	movlb	0	; select bank0
  4438     020A  00DC               	movwf	??_main
  4439     020B  3001               	movlw	1
  4440     020C                     u6045:
  4441     020C  35DC               	lslf	??_main,f
  4442     020D  3EFF               	addlw	-1
  4443     020E  1D03               	skipz
  4444     020F  2A0C               	goto	u6045
  4445     0210  355C               	lslf	??_main,w
  4446     0211  3E26               	addlw	(low (main@lastDebounceAdc| (0+256)))& (0+255)
  4447     0212  0086               	movwf	6
  4448     0213  3001               	movlw	1	; select bank2/3
  4449     0214  0087               	movwf	7
  4450     0215  3000               	movlw	0
  4451     0216  3FC0               	movwi [0]fsr1
  4452     0217  3000               	movlw	0
  4453     0218  3FC1               	movwi [1]fsr1
  4454     0219  3FC2               	movwi [2]fsr1
  4455     021A  3FC3               	movwi [3]fsr1
  4456     021B                     l6006:
  4457                           
  4458                           ;main.c: 261:                         inc_for_2sec[indexADC] = 0;
  4459     021B  0144               	movlb	4	; select bank4
  4460     021C  086B               	movf	main@indexADC^(0+512),w
  4461     021D  3E20               	addlw	(low (main@inc_for_2sec| (0+256)))& (0+255)
  4462     021E  0086               	movwf	6
  4463     021F  3001               	movlw	1	; select bank2/3
  4464     0220  0087               	movwf	7
  4465     0221  0181               	clrf	1
  4466     0222                     l6008:
  4467                           
  4468                           ;main.c: 265:                 if (inc_for_2sec[indexADC])
  4469     0222  0144               	movlb	4	; select bank4
  4470     0223  086B               	movf	main@indexADC^(0+512),w
  4471     0224  3E20               	addlw	(low (main@inc_for_2sec| (0+256)))& (0+255)
  4472     0225  0086               	movwf	6
  4473     0226  3001               	movlw	1	; select bank2/3
  4474     0227  0087               	movwf	7
  4475     0228  0801               	movf	1,w
  4476     0229  1903               	btfsc	3,2
  4477     022A  2A2C               	goto	u6051
  4478     022B  2A2D               	goto	u6050
  4479     022C                     u6051:
  4480     022C  2A45               	goto	l6012
  4481     022D                     u6050:
  4482     022D                     l6010:
  4483                           
  4484                           ;main.c: 266:                     lastDebounceAdc[indexADC]++;
  4485     022D  086B               	movf	main@indexADC^(0+512),w
  4486     022E  0140               	movlb	0	; select bank0
  4487     022F  00DC               	movwf	??_main
  4488     0230  3001               	movlw	1
  4489     0231                     u6065:
  4490     0231  35DC               	lslf	??_main,f
  4491     0232  3EFF               	addlw	-1
  4492     0233  1D03               	skipz
  4493     0234  2A31               	goto	u6065
  4494     0235  355C               	lslf	??_main,w
  4495     0236  3E26               	addlw	(low (main@lastDebounceAdc| (0+256)))& (0+255)
  4496     0237  0086               	movwf	6
  4497     0238  3001               	movlw	1	; select bank2/3
  4498     0239  0087               	movwf	7
  4499     023A  3001               	movlw	1
  4500     023B  0781               	addwf	1,f
  4501     023C  3141               	addfsr 1,1
  4502     023D  3000               	movlw	0
  4503     023E  3D81               	addwfc	1,f
  4504     023F  3141               	addfsr 1,1
  4505     0240  3000               	movlw	0
  4506     0241  3D81               	addwfc	1,f
  4507     0242  3141               	addfsr 1,1
  4508     0243  3000               	movlw	0
  4509     0244  3D81               	addwfc	1,f
  4510     0245                     l6012:
  4511                           
  4512                           ;main.c: 267:                 previous[indexADC] = updated_reading[indexADC];
  4513     0245  0144               	movlb	4	; select bank4
  4514     0246  086B               	movf	main@indexADC^(0+512),w
  4515     0247  3EEA               	addlw	(low (main@previous| 0))& (0+255)
  4516     0248  0086               	movwf	6
  4517     0249  0187               	clrf	7
  4518     024A  086B               	movf	main@indexADC^(0+512),w
  4519     024B  3E3E               	addlw	(low (main@updated_reading| (0+256)))& (0+255)
  4520     024C  0084               	movwf	4
  4521     024D  3001               	movlw	1	; select bank2/3
  4522     024E  0085               	movwf	5
  4523     024F  0800               	movf	0,w
  4524     0250  0081               	movwf	1
  4525     0251                     l6014:
  4526                           
  4527                           ;main.c: 269:             updated_L[0] = check_sequence_L1(reading);
  4528     0251  305F               	movlw	(low (main@reading| (0+256)))& (0+255)
  4529     0252  318D  2539  3180   	fcall	_check_sequence_L1
  4530     0255  0143               	movlb	3	; select bank3
  4531     0256  00D7               	movwf	_updated_L^(0+384)	;volatile
  4532     0257                     l6016:
  4533                           
  4534                           ;main.c: 270:             updated_L[1] = check_sequence_L2(reading);
  4535     0257  305F               	movlw	(low (main@reading| (0+256)))& (0+255)
  4536     0258  318D  25D3  3180   	fcall	_check_sequence_L2
  4537     025B  0143               	movlb	3	; select bank3
  4538     025C  00D8               	movwf	(_updated_L^(0+384)+1)	;volatile
  4539     025D                     l6018:
  4540                           
  4541                           ;main.c: 271:             updated_L[2] = check_sequence_L3(reading);
  4542     025D  305F               	movlw	(low (main@reading| (0+256)))& (0+255)
  4543     025E  318E  266D  3180   	fcall	_check_sequence_L3
  4544     0261  0143               	movlb	3	; select bank3
  4545     0262  00D9               	movwf	(_updated_L^(0+384)+2)	;volatile
  4546     0263                     l6020:
  4547                           
  4548                           ;main.c: 276:                 if(updated_L[indexLoad] != temp_L[indexLoad])
  4549     0263  0144               	movlb	4	; select bank4
  4550     0264  086C               	movf	main@indexLoad^(0+512),w
  4551     0265  3EDA               	addlw	(low (_temp_L| (0+256)))& (0+255)
  4552     0266  0086               	movwf	6
  4553     0267  3001               	movlw	1	; select bank3/4
  4554     0268  0087               	movwf	7
  4555     0269  086C               	movf	main@indexLoad^(0+512),w
  4556     026A  3ED7               	addlw	(low (_updated_L| (0+256)))& (0+255)
  4557     026B  0084               	movwf	4
  4558     026C  3001               	movlw	1	; select bank3/4
  4559     026D  0085               	movwf	5
  4560     026E  0800               	movf	0,w
  4561     026F  0601               	xorwf	1,w
  4562     0270  1903               	skipnz
  4563     0271  2A73               	goto	u6071
  4564     0272  2A74               	goto	u6070
  4565     0273                     u6071:
  4566     0273  2AC3               	goto	l378
  4567     0274                     u6070:
  4568     0274                     l6022:
  4569                           
  4570                           ;main.c: 277:                 {;main.c: 278:                     if((!relayOfInProgress)
      +                           && (!relayOnInProgress))
  4571     0274  0142               	movlb	2	; select bank2
  4572     0275  0865               	movf	main@relayOfInProgress^(0+256),w
  4573     0276  1D03               	btfss	3,2
  4574     0277  2A79               	goto	u6081
  4575     0278  2A7A               	goto	u6080
  4576     0279                     u6081:
  4577     0279  2AB6               	goto	l6040
  4578     027A                     u6080:
  4579     027A                     l6024:
  4580     027A  0866               	movf	main@relayOnInProgress^(0+256),w
  4581     027B  1D03               	btfss	3,2
  4582     027C  2A7E               	goto	u6091
  4583     027D  2A7F               	goto	u6090
  4584     027E                     u6091:
  4585     027E  2AB6               	goto	l6040
  4586     027F                     u6090:
  4587     027F                     l6026:
  4588                           
  4589                           ;main.c: 279:                         {;main.c: 280:                             outputW
      +                          as = indexLoad;
  4590     027F  0144               	movlb	4	; select bank4
  4591     0280  086C               	movf	main@indexLoad^(0+512),w
  4592     0281  0142               	movlb	2	; select bank2
  4593     0282  00E9               	movwf	main@outputWas^(0+256)
  4594     0283                     l6028:
  4595                           
  4596                           ;main.c: 281:                             phaseWas = current_L[indexLoad];
  4597     0283  0144               	movlb	4	; select bank4
  4598     0284  086C               	movf	main@indexLoad^(0+512),w
  4599     0285  3EDD               	addlw	(low (_current_L| (0+256)))& (0+255)
  4600     0286  0086               	movwf	6
  4601     0287  3001               	movlw	1	; select bank3/4
  4602     0288  0087               	movwf	7
  4603     0289  0801               	movf	1,w
  4604     028A  0143               	movlb	3	; select bank3
  4605     028B  00EC               	movwf	main@phaseWas^(0+384)
  4606     028C                     l6030:
  4607                           
  4608                           ;main.c: 282:                             phaseExpected = updated_L[indexLoad];
  4609     028C  0144               	movlb	4	; select bank4
  4610     028D  086C               	movf	main@indexLoad^(0+512),w
  4611     028E  3ED7               	addlw	(low (_updated_L| (0+256)))& (0+255)
  4612     028F  0086               	movwf	6
  4613     0290  3001               	movlw	1	; select bank3/4
  4614     0291  0087               	movwf	7
  4615     0292  0801               	movf	1,w
  4616     0293  0142               	movlb	2	; select bank2
  4617     0294  00E8               	movwf	main@phaseExpected^(0+256)
  4618     0295                     l6032:
  4619                           
  4620                           ;main.c: 283:                             counter = 0;
  4621     0295  01EA               	clrf	main@counter^(0+256)
  4622     0296  01EB               	clrf	(main@counter+1)^(0+256)
  4623     0297                     l6034:
  4624                           
  4625                           ;main.c: 284:                             relayOfInProgress = 1;
  4626     0297  01E5               	clrf	main@relayOfInProgress^(0+256)
  4627     0298  0AE5               	incf	main@relayOfInProgress^(0+256),f
  4628     0299                     l6036:
  4629                           
  4630                           ;main.c: 286:                             lastDebounceLevel[indexLoad] = 0;
  4631     0299  0144               	movlb	4	; select bank4
  4632     029A  086C               	movf	main@indexLoad^(0+512),w
  4633     029B  0140               	movlb	0	; select bank0
  4634     029C  00DC               	movwf	??_main
  4635     029D  3001               	movlw	1
  4636     029E                     u6105:
  4637     029E  35DC               	lslf	??_main,f
  4638     029F  3EFF               	addlw	-1
  4639     02A0  1D03               	skipz
  4640     02A1  2A9E               	goto	u6105
  4641     02A2  355C               	lslf	??_main,w
  4642     02A3  3E53               	addlw	(low (main@lastDebounceLevel| (0+256)))& (0+255)
  4643     02A4  0086               	movwf	6
  4644     02A5  3001               	movlw	1	; select bank2/3
  4645     02A6  0087               	movwf	7
  4646     02A7  3000               	movlw	0
  4647     02A8  3FC0               	movwi [0]fsr1
  4648     02A9  3000               	movlw	0
  4649     02AA  3FC1               	movwi [1]fsr1
  4650     02AB  3FC2               	movwi [2]fsr1
  4651     02AC  3FC3               	movwi [3]fsr1
  4652     02AD                     l6038:
  4653                           
  4654                           ;main.c: 287:                             inc_for_5sec[indexLoad] = 1;
  4655     02AD  0144               	movlb	4	; select bank4
  4656     02AE  086C               	movf	main@indexLoad^(0+512),w
  4657     02AF  3E50               	addlw	(low (main@inc_for_5sec| (0+256)))& (0+255)
  4658     02B0  0086               	movwf	6
  4659     02B1  3001               	movlw	1	; select bank2/3
  4660     02B2  0087               	movwf	7
  4661     02B3  0181               	clrf	1
  4662     02B4  0A81               	incf	1,f
  4663                           
  4664                           ;main.c: 289:                         }
  4665     02B5  2AC3               	goto	l378
  4666     02B6                     l6040:
  4667                           
  4668                           ;main.c: 291:                         updated_L[indexLoad] = temp_L[indexLoad];
  4669     02B6  0144               	movlb	4	; select bank4
  4670     02B7  086C               	movf	main@indexLoad^(0+512),w
  4671     02B8  3ED7               	addlw	(low (_updated_L| (0+256)))& (0+255)
  4672     02B9  0086               	movwf	6
  4673     02BA  3001               	movlw	1	; select bank3/4
  4674     02BB  0087               	movwf	7
  4675     02BC  086C               	movf	main@indexLoad^(0+512),w
  4676     02BD  3EDA               	addlw	(low (_temp_L| (0+256)))& (0+255)
  4677     02BE  0084               	movwf	4
  4678     02BF  3001               	movlw	1	; select bank3/4
  4679     02C0  0085               	movwf	5
  4680     02C1  0800               	movf	0,w
  4681     02C2  0081               	movwf	1
  4682     02C3                     l378:	
  4683                           ;main.c: 292:                 }
  4684                           
  4685                           
  4686                           ;main.c: 293:                 temp_L[indexLoad] = updated_L[indexLoad];
  4687     02C3  086C               	movf	main@indexLoad^(0+512),w
  4688     02C4  3EDA               	addlw	(low (_temp_L| (0+256)))& (0+255)
  4689     02C5  0086               	movwf	6
  4690     02C6  3001               	movlw	1	; select bank3/4
  4691     02C7  0087               	movwf	7
  4692     02C8  086C               	movf	main@indexLoad^(0+512),w
  4693     02C9  3ED7               	addlw	(low (_updated_L| (0+256)))& (0+255)
  4694     02CA  0084               	movwf	4
  4695     02CB  3001               	movlw	1	; select bank3/4
  4696     02CC  0085               	movwf	5
  4697     02CD  0800               	movf	0,w
  4698     02CE  0081               	movwf	1
  4699     02CF                     l6042:
  4700                           
  4701                           ;main.c: 296:                 if (lastDebounceLevel[indexLoad] >= 83)
  4702     02CF  086C               	movf	main@indexLoad^(0+512),w
  4703     02D0  0140               	movlb	0	; select bank0
  4704     02D1  00DC               	movwf	??_main
  4705     02D2  3001               	movlw	1
  4706     02D3                     u6115:
  4707     02D3  35DC               	lslf	??_main,f
  4708     02D4  3EFF               	addlw	-1
  4709     02D5  1D03               	skipz
  4710     02D6  2AD3               	goto	u6115
  4711     02D7  355C               	lslf	??_main,w
  4712     02D8  3E53               	addlw	(low (main@lastDebounceLevel| (0+256)))& (0+255)
  4713     02D9  0086               	movwf	6
  4714     02DA  3001               	movlw	1	; select bank2/3
  4715     02DB  0087               	movwf	7
  4716     02DC  3F43               	moviw [3]fsr1
  4717     02DD  1D03               	btfss	3,2
  4718     02DE  2AED               	goto	u6120
  4719     02DF  3F42               	moviw [2]fsr1
  4720     02E0  1D03               	btfss	3,2
  4721     02E1  2AED               	goto	u6120
  4722     02E2  3F41               	moviw [1]fsr1
  4723     02E3  1D03               	btfss	3,2
  4724     02E4  2AED               	goto	u6120
  4725     02E5  3F40               	moviw [0]fsr1
  4726     02E6  00DD               	movwf	??_main+1
  4727     02E7  3053               	movlw	83
  4728     02E8  025D               	subwf	??_main+1,w
  4729     02E9  1C03               	btfss	3,0
  4730     02EA  2AEC               	goto	u6121
  4731     02EB  2AED               	goto	u6120
  4732     02EC                     u6121:
  4733     02EC  2B90               	goto	l6082
  4734     02ED                     u6120:
  4735     02ED                     l6044:
  4736                           
  4737                           ;main.c: 297:                 {;main.c: 298:                     if ((updated_L[indexLoa
      +                          d] != current_L[indexLoad])||(relayIsOff[indexLoad]))
  4738     02ED  0144               	movlb	4	; select bank4
  4739     02EE  086C               	movf	main@indexLoad^(0+512),w
  4740     02EF  3EDD               	addlw	(low (_current_L| (0+256)))& (0+255)
  4741     02F0  0086               	movwf	6
  4742     02F1  3001               	movlw	1	; select bank3/4
  4743     02F2  0087               	movwf	7
  4744     02F3  086C               	movf	main@indexLoad^(0+512),w
  4745     02F4  3ED7               	addlw	(low (_updated_L| (0+256)))& (0+255)
  4746     02F5  0084               	movwf	4
  4747     02F6  3001               	movlw	1	; select bank3/4
  4748     02F7  0085               	movwf	5
  4749     02F8  0800               	movf	0,w
  4750     02F9  0601               	xorwf	1,w
  4751     02FA  1D03               	skipz
  4752     02FB  2AFD               	goto	u6131
  4753     02FC  2AFE               	goto	u6130
  4754     02FD                     u6131:
  4755     02FD  2B1B               	goto	l6048
  4756     02FE                     u6130:
  4757     02FE                     l6046:
  4758     02FE  086C               	movf	main@indexLoad^(0+512),w
  4759     02FF  0140               	movlb	0	; select bank0
  4760     0300  00DC               	movwf	??_main
  4761     0301  3001               	movlw	1
  4762     0302                     u6145:
  4763     0302  35DC               	lslf	??_main,f
  4764     0303  3EFF               	addlw	-1
  4765     0304  1D03               	skipz
  4766     0305  2B02               	goto	u6145
  4767     0306  355C               	lslf	??_main,w
  4768     0307  3E44               	addlw	(low (main@relayIsOff| (0+256)))& (0+255)
  4769     0308  0086               	movwf	6
  4770     0309  3001               	movlw	1	; select bank2/3
  4771     030A  0087               	movwf	7
  4772     030B  3F40               	moviw [0]fsr1
  4773     030C  00DD               	movwf	??_main+1
  4774     030D  3F41               	moviw [1]fsr1
  4775     030E  00DE               	movwf	??_main+2
  4776     030F  3F42               	moviw [2]fsr1
  4777     0310  00DF               	movwf	??_main+3
  4778     0311  3F43               	moviw [3]fsr1
  4779     0312  00E0               	movwf	??_main+4
  4780     0313  0860               	movf	??_main+4,w
  4781     0314  045F               	iorwf	??_main+3,w
  4782     0315  045E               	iorwf	??_main+2,w
  4783     0316  045D               	iorwf	??_main+1,w
  4784     0317  1903               	skipnz
  4785     0318  2B1A               	goto	u6151
  4786     0319  2B1B               	goto	u6150
  4787     031A                     u6151:
  4788     031A  2B90               	goto	l6082
  4789     031B                     u6150:
  4790     031B                     l6048:
  4791                           
  4792                           ;main.c: 299:                     {;main.c: 300:                     if((!relayOfInProgr
      +                          ess) && (!relayOnInProgress))
  4793     031B  0142               	movlb	2	; select bank2
  4794     031C  0865               	movf	main@relayOfInProgress^(0+256),w
  4795     031D  1D03               	btfss	3,2
  4796     031E  2B20               	goto	u6161
  4797     031F  2B21               	goto	u6160
  4798     0320                     u6161:
  4799     0320  2B90               	goto	l6082
  4800     0321                     u6160:
  4801     0321                     l6050:
  4802     0321  0866               	movf	main@relayOnInProgress^(0+256),w
  4803     0322  1D03               	btfss	3,2
  4804     0323  2B25               	goto	u6171
  4805     0324  2B26               	goto	u6170
  4806     0325                     u6171:
  4807     0325  2B90               	goto	l6082
  4808     0326                     u6170:
  4809     0326                     l6052:
  4810                           
  4811                           ;main.c: 301:                         {;main.c: 302:                             outputI
      +                          s = indexLoad;
  4812     0326  0144               	movlb	4	; select bank4
  4813     0327  086C               	movf	main@indexLoad^(0+512),w
  4814     0328  0142               	movlb	2	; select bank2
  4815     0329  00E7               	movwf	main@outputIs^(0+256)
  4816     032A                     l6054:
  4817                           
  4818                           ;main.c: 303:                             phaseIs = updated_L[indexLoad];
  4819     032A  0144               	movlb	4	; select bank4
  4820     032B  086C               	movf	main@indexLoad^(0+512),w
  4821     032C  3ED7               	addlw	(low (_updated_L| (0+256)))& (0+255)
  4822     032D  0086               	movwf	6
  4823     032E  3001               	movlw	1	; select bank3/4
  4824     032F  0087               	movwf	7
  4825     0330  0801               	movf	1,w
  4826     0331  0142               	movlb	2	; select bank2
  4827     0332  00EC               	movwf	main@phaseIs^(0+256)
  4828     0333                     l6056:
  4829                           
  4830                           ;main.c: 304:                             current_L[indexLoad] = updated_L[indexLoad];
  4831     0333  0144               	movlb	4	; select bank4
  4832     0334  086C               	movf	main@indexLoad^(0+512),w
  4833     0335  3EDD               	addlw	(low (_current_L| (0+256)))& (0+255)
  4834     0336  0086               	movwf	6
  4835     0337  3001               	movlw	1	; select bank3/4
  4836     0338  0087               	movwf	7
  4837     0339  086C               	movf	main@indexLoad^(0+512),w
  4838     033A  3ED7               	addlw	(low (_updated_L| (0+256)))& (0+255)
  4839     033B  0084               	movwf	4
  4840     033C  3001               	movlw	1	; select bank3/4
  4841     033D  0085               	movwf	5
  4842     033E  0800               	movf	0,w
  4843     033F  0081               	movwf	1
  4844     0340                     l6058:
  4845                           
  4846                           ;main.c: 306:                             buffer[0]='L';
  4847     0340  304C               	movlw	76
  4848     0341  0141               	movlb	1	; select bank1
  4849     0342  00B8               	movwf	main@buffer^(0+128)
  4850     0343                     l6060:
  4851                           
  4852                           ;main.c: 307:                             buffer[1]= indexLoad+0x30+1;
  4853     0343  0144               	movlb	4	; select bank4
  4854     0344  086C               	movf	main@indexLoad^(0+512),w
  4855     0345  3E31               	addlw	49
  4856     0346  0141               	movlb	1	; select bank1
  4857     0347  00B9               	movwf	(main@buffer^(0+128)+1)
  4858     0348                     l6062:
  4859                           
  4860                           ;main.c: 308:                             buffer[2]= ':';
  4861     0348  303A               	movlw	58
  4862     0349  00BA               	movwf	(main@buffer^(0+128)+2)
  4863     034A                     l6064:
  4864                           
  4865                           ;main.c: 309:                             buffer[3]= phaseIs+0x30;
  4866     034A  0142               	movlb	2	; select bank2
  4867     034B  086C               	movf	main@phaseIs^(0+256),w
  4868     034C  3E30               	addlw	48
  4869     034D  0141               	movlb	1	; select bank1
  4870     034E  00BB               	movwf	(main@buffer^(0+128)+3)
  4871     034F                     l6066:
  4872                           
  4873                           ;main.c: 310:                             buffer[4]= '\n';
  4874     034F  300A               	movlw	10
  4875     0350  00BC               	movwf	(main@buffer^(0+128)+4)
  4876     0351                     l6068:
  4877                           
  4878                           ;main.c: 311:                             buffer[5]= '\r';
  4879     0351  300D               	movlw	13
  4880     0352  00BD               	movwf	(main@buffer^(0+128)+5)
  4881     0353                     l6070:
  4882                           
  4883                           ;main.c: 312:                             push_string_buffer(buffer,6);
  4884     0353  3006               	movlw	6
  4885     0354  0140               	movlb	0	; select bank0
  4886     0355  00A0               	movwf	push_string_buffer@len
  4887     0356  3000               	movlw	0
  4888     0357  00A1               	movwf	push_string_buffer@len+1
  4889     0358  30B8               	movlw	(low (main@buffer| 0))& (0+255)
  4890     0359  3197  27AC  3180   	fcall	_push_string_buffer
  4891     035C                     l6072:
  4892                           
  4893                           ;main.c: 315:                             counter = 0;
  4894     035C  0142               	movlb	2	; select bank2
  4895     035D  01EA               	clrf	main@counter^(0+256)
  4896     035E  01EB               	clrf	(main@counter+1)^(0+256)
  4897     035F                     l6074:
  4898                           
  4899                           ;main.c: 316:                             relayOnInProgress = 1;
  4900     035F  01E6               	clrf	main@relayOnInProgress^(0+256)
  4901     0360  0AE6               	incf	main@relayOnInProgress^(0+256),f
  4902     0361                     l6076:
  4903                           
  4904                           ;main.c: 317:                             relayIsOff[indexLoad] = 0;
  4905     0361  0144               	movlb	4	; select bank4
  4906     0362  086C               	movf	main@indexLoad^(0+512),w
  4907     0363  0140               	movlb	0	; select bank0
  4908     0364  00DC               	movwf	??_main
  4909     0365  3001               	movlw	1
  4910     0366                     u6185:
  4911     0366  35DC               	lslf	??_main,f
  4912     0367  3EFF               	addlw	-1
  4913     0368  1D03               	skipz
  4914     0369  2B66               	goto	u6185
  4915     036A  355C               	lslf	??_main,w
  4916     036B  3E44               	addlw	(low (main@relayIsOff| (0+256)))& (0+255)
  4917     036C  0086               	movwf	6
  4918     036D  3001               	movlw	1	; select bank2/3
  4919     036E  0087               	movwf	7
  4920     036F  3000               	movlw	0
  4921     0370  3FC0               	movwi [0]fsr1
  4922     0371  3000               	movlw	0
  4923     0372  3FC1               	movwi [1]fsr1
  4924     0373  3FC2               	movwi [2]fsr1
  4925     0374  3FC3               	movwi [3]fsr1
  4926     0375                     l6078:
  4927                           
  4928                           ;main.c: 318:                             lastDebounceLevel[indexLoad]=0;
  4929     0375  0144               	movlb	4	; select bank4
  4930     0376  086C               	movf	main@indexLoad^(0+512),w
  4931     0377  0140               	movlb	0	; select bank0
  4932     0378  00DC               	movwf	??_main
  4933     0379  3001               	movlw	1
  4934     037A                     u6195:
  4935     037A  35DC               	lslf	??_main,f
  4936     037B  3EFF               	addlw	-1
  4937     037C  1D03               	skipz
  4938     037D  2B7A               	goto	u6195
  4939     037E  355C               	lslf	??_main,w
  4940     037F  3E53               	addlw	(low (main@lastDebounceLevel| (0+256)))& (0+255)
  4941     0380  0086               	movwf	6
  4942     0381  3001               	movlw	1	; select bank2/3
  4943     0382  0087               	movwf	7
  4944     0383  3000               	movlw	0
  4945     0384  3FC0               	movwi [0]fsr1
  4946     0385  3000               	movlw	0
  4947     0386  3FC1               	movwi [1]fsr1
  4948     0387  3FC2               	movwi [2]fsr1
  4949     0388  3FC3               	movwi [3]fsr1
  4950     0389                     l6080:
  4951                           
  4952                           ;main.c: 319:                             inc_for_5sec[indexLoad] = 0;
  4953     0389  0144               	movlb	4	; select bank4
  4954     038A  086C               	movf	main@indexLoad^(0+512),w
  4955     038B  3E50               	addlw	(low (main@inc_for_5sec| (0+256)))& (0+255)
  4956     038C  0086               	movwf	6
  4957     038D  3001               	movlw	1	; select bank2/3
  4958     038E  0087               	movwf	7
  4959     038F  0181               	clrf	1
  4960     0390                     l6082:
  4961                           
  4962                           ;main.c: 323:                 if (inc_for_5sec[indexLoad])
  4963     0390  0144               	movlb	4	; select bank4
  4964     0391  086C               	movf	main@indexLoad^(0+512),w
  4965     0392  3E50               	addlw	(low (main@inc_for_5sec| (0+256)))& (0+255)
  4966     0393  0086               	movwf	6
  4967     0394  3001               	movlw	1	; select bank2/3
  4968     0395  0087               	movwf	7
  4969     0396  0801               	movf	1,w
  4970     0397  1903               	btfsc	3,2
  4971     0398  2B9A               	goto	u6201
  4972     0399  2B9B               	goto	u6200
  4973     039A                     u6201:
  4974     039A  2BB3               	goto	l6086
  4975     039B                     u6200:
  4976     039B                     l6084:
  4977                           
  4978                           ;main.c: 324:                     lastDebounceLevel[indexLoad]++;
  4979     039B  086C               	movf	main@indexLoad^(0+512),w
  4980     039C  0140               	movlb	0	; select bank0
  4981     039D  00DC               	movwf	??_main
  4982     039E  3001               	movlw	1
  4983     039F                     u6215:
  4984     039F  35DC               	lslf	??_main,f
  4985     03A0  3EFF               	addlw	-1
  4986     03A1  1D03               	skipz
  4987     03A2  2B9F               	goto	u6215
  4988     03A3  355C               	lslf	??_main,w
  4989     03A4  3E53               	addlw	(low (main@lastDebounceLevel| (0+256)))& (0+255)
  4990     03A5  0086               	movwf	6
  4991     03A6  3001               	movlw	1	; select bank2/3
  4992     03A7  0087               	movwf	7
  4993     03A8  3001               	movlw	1
  4994     03A9  0781               	addwf	1,f
  4995     03AA  3141               	addfsr 1,1
  4996     03AB  3000               	movlw	0
  4997     03AC  3D81               	addwfc	1,f
  4998     03AD  3141               	addfsr 1,1
  4999     03AE  3000               	movlw	0
  5000     03AF  3D81               	addwfc	1,f
  5001     03B0  3141               	addfsr 1,1
  5002     03B1  3000               	movlw	0
  5003     03B2  3D81               	addwfc	1,f
  5004     03B3                     l6086:
  5005                           
  5006                           ;main.c: 327:             if(relayOfInProgress)
  5007     03B3  0142               	movlb	2	; select bank2
  5008     03B4  0865               	movf	main@relayOfInProgress^(0+256),w
  5009     03B5  1903               	btfsc	3,2
  5010     03B6  2BB8               	goto	u6221
  5011     03B7  2BB9               	goto	u6220
  5012     03B8                     u6221:
  5013     03B8  2C9A               	goto	l6156
  5014     03B9                     u6220:
  5015     03B9                     l6088:
  5016                           
  5017                           ;main.c: 328:             {;main.c: 329:                 if (counter == 0)
  5018     03B9  086A               	movf	main@counter^(0+256),w
  5019     03BA  046B               	iorwf	(main@counter+1)^(0+256),w
  5020     03BB  1D03               	btfss	3,2
  5021     03BC  2BBE               	goto	u6231
  5022     03BD  2BBF               	goto	u6230
  5023     03BE                     u6231:
  5024     03BE  2C13               	goto	l6110
  5025     03BF                     u6230:
  5026     03BF                     l6090:
  5027                           
  5028                           ;main.c: 330:                 {;main.c: 331:                     if (((phaseWas == 0) ||
      +                           ((phaseWas >= 3)&&(phaseWas <= 5))) &&
  5029     03BF  0143               	movlb	3	; select bank3
  5030     03C0  086C               	movf	main@phaseWas^(0+384),w
  5031     03C1  1903               	btfsc	3,2
  5032     03C2  2BC4               	goto	u6241
  5033     03C3  2BC5               	goto	u6240
  5034     03C4                     u6241:
  5035     03C4  2BD1               	goto	l6096
  5036     03C5                     u6240:
  5037     03C5                     l6092:
  5038     03C5  3003               	movlw	3
  5039     03C6  026C               	subwf	main@phaseWas^(0+384),w
  5040     03C7  1C03               	skipc
  5041     03C8  2BCA               	goto	u6251
  5042     03C9  2BCB               	goto	u6250
  5043     03CA                     u6251:
  5044     03CA  2BEC               	goto	l6104
  5045     03CB                     u6250:
  5046     03CB                     l6094:
  5047     03CB  3006               	movlw	6
  5048     03CC  026C               	subwf	main@phaseWas^(0+384),w
  5049     03CD  1803               	skipnc
  5050     03CE  2BD0               	goto	u6261
  5051     03CF  2BD1               	goto	u6260
  5052     03D0                     u6261:
  5053     03D0  2BEC               	goto	l6104
  5054     03D1                     u6260:
  5055     03D1                     l6096:
  5056     03D1  0142               	movlb	2	; select bank2
  5057     03D2  0868               	movf	main@phaseExpected^(0+256),w
  5058     03D3  1903               	btfsc	3,2
  5059     03D4  2BD6               	goto	u6271
  5060     03D5  2BD7               	goto	u6270
  5061     03D6                     u6271:
  5062     03D6  2BE3               	goto	l6102
  5063     03D7                     u6270:
  5064     03D7                     l6098:
  5065     03D7  3003               	movlw	3
  5066     03D8  0268               	subwf	main@phaseExpected^(0+256),w
  5067     03D9  1C03               	skipc
  5068     03DA  2BDC               	goto	u6281
  5069     03DB  2BDD               	goto	u6280
  5070     03DC                     u6281:
  5071     03DC  2BEC               	goto	l6104
  5072     03DD                     u6280:
  5073     03DD                     l6100:
  5074     03DD  3006               	movlw	6
  5075     03DE  0268               	subwf	main@phaseExpected^(0+256),w
  5076     03DF  1803               	skipnc
  5077     03E0  2BE2               	goto	u6291
  5078     03E1  2BE3               	goto	u6290
  5079     03E2                     u6291:
  5080     03E2  2BEC               	goto	l6104
  5081     03E3                     u6290:
  5082     03E3                     l6102:
  5083                           
  5084                           ;main.c: 333:                             relay_to_off(phaseWas,outputWas,0);
  5085     03E3  0869               	movf	main@outputWas^(0+256),w
  5086     03E4  00F2               	movwf	relay_to_off@L
  5087     03E5  01F3               	clrf	relay_to_off@OnOf
  5088     03E6  0143               	movlb	3	; select bank3
  5089     03E7  086C               	movf	main@phaseWas^(0+384),w
  5090     03E8  318C  240B  3180   	fcall	_relay_to_off
  5091     03EB  2BFF               	goto	l6108
  5092     03EC                     l6104:
  5093                           
  5094                           ;main.c: 336:                     {;main.c: 337:                         relay_to_off(ph
      +                          aseWas,outputWas,1);
  5095     03EC  0142               	movlb	2	; select bank2
  5096     03ED  0869               	movf	main@outputWas^(0+256),w
  5097     03EE  00F2               	movwf	relay_to_off@L
  5098     03EF  01F3               	clrf	relay_to_off@OnOf
  5099     03F0  0AF3               	incf	relay_to_off@OnOf,f
  5100     03F1  0143               	movlb	3	; select bank3
  5101     03F2  086C               	movf	main@phaseWas^(0+384),w
  5102     03F3  318C  240B  3180   	fcall	_relay_to_off
  5103     03F6                     l6106:
  5104                           
  5105                           ;main.c: 338:                         relay_to_off_msg(phaseWas,outputWas);
  5106     03F6  0142               	movlb	2	; select bank2
  5107     03F7  0869               	movf	main@outputWas^(0+256),w
  5108     03F8  0140               	movlb	0	; select bank0
  5109     03F9  00A6               	movwf	relay_to_off_msg@L
  5110     03FA  0143               	movlb	3	; select bank3
  5111     03FB  086C               	movf	main@phaseWas^(0+384),w
  5112     03FC  3186  2649  3180   	fcall	_relay_to_off_msg
  5113     03FF                     l6108:
  5114                           
  5115                           ;main.c: 340:                     relayIsOff[outputWas] = 1;
  5116     03FF  0142               	movlb	2	; select bank2
  5117     0400  0869               	movf	main@outputWas^(0+256),w
  5118     0401  0140               	movlb	0	; select bank0
  5119     0402  00DC               	movwf	??_main
  5120     0403  3001               	movlw	1
  5121     0404                     u6305:
  5122     0404  35DC               	lslf	??_main,f
  5123     0405  3EFF               	addlw	-1
  5124     0406  1D03               	skipz
  5125     0407  2C04               	goto	u6305
  5126     0408  355C               	lslf	??_main,w
  5127     0409  3E44               	addlw	(low (main@relayIsOff| (0+256)))& (0+255)
  5128     040A  0086               	movwf	6
  5129     040B  3001               	movlw	1	; select bank2/3
  5130     040C  0087               	movwf	7
  5131     040D  3001               	movlw	1
  5132     040E  3FC0               	movwi [0]fsr1
  5133     040F  3000               	movlw	0
  5134     0410  3FC1               	movwi [1]fsr1
  5135     0411  3FC2               	movwi [2]fsr1
  5136     0412  3FC3               	movwi [3]fsr1
  5137     0413                     l6110:
  5138                           
  5139                           ;main.c: 342:                 counter++;
  5140     0413  3001               	movlw	1
  5141     0414  0142               	movlb	2	; select bank2
  5142     0415  07EA               	addwf	main@counter^(0+256),f
  5143     0416  3000               	movlw	0
  5144     0417  3DEB               	addwfc	(main@counter+1)^(0+256),f
  5145     0418                     l6112:
  5146                           
  5147                           ;main.c: 343:                 if(counter == 6)
  5148     0418  3006               	movlw	6
  5149     0419  066A               	xorwf	main@counter^(0+256),w
  5150     041A  046B               	iorwf	(main@counter+1)^(0+256),w
  5151     041B  1D03               	btfss	3,2
  5152     041C  2C1E               	goto	u6311
  5153     041D  2C1F               	goto	u6310
  5154     041E                     u6311:
  5155     041E  2C83               	goto	l6148
  5156     041F                     u6310:
  5157     041F                     l6114:
  5158                           
  5159                           ;main.c: 344:                 {;main.c: 345:                     relay_to_off(phaseWas,o
      +                          utputWas,0);
  5160     041F  0869               	movf	main@outputWas^(0+256),w
  5161     0420  00F2               	movwf	relay_to_off@L
  5162     0421  01F3               	clrf	relay_to_off@OnOf
  5163     0422  0143               	movlb	3	; select bank3
  5164     0423  086C               	movf	main@phaseWas^(0+384),w
  5165     0424  318C  240B  3180   	fcall	_relay_to_off
  5166     0427                     l6116:
  5167                           
  5168                           ;main.c: 346:                     if (!(((phaseWas == 0) || ((phaseWas >= 3)&&(phaseWas 
      +                          <= 5))) &&
  5169     0427  0143               	movlb	3	; select bank3
  5170     0428  086C               	movf	main@phaseWas^(0+384),w
  5171     0429  1903               	btfsc	3,2
  5172     042A  2C2C               	goto	u6321
  5173     042B  2C2D               	goto	u6320
  5174     042C                     u6321:
  5175     042C  2C39               	goto	l6122
  5176     042D                     u6320:
  5177     042D                     l6118:
  5178     042D  3003               	movlw	3
  5179     042E  026C               	subwf	main@phaseWas^(0+384),w
  5180     042F  1C03               	skipc
  5181     0430  2C32               	goto	u6331
  5182     0431  2C33               	goto	u6330
  5183     0432                     u6331:
  5184     0432  2C4B               	goto	l6128
  5185     0433                     u6330:
  5186     0433                     l6120:
  5187     0433  3006               	movlw	6
  5188     0434  026C               	subwf	main@phaseWas^(0+384),w
  5189     0435  1803               	skipnc
  5190     0436  2C38               	goto	u6341
  5191     0437  2C39               	goto	u6340
  5192     0438                     u6341:
  5193     0438  2C4B               	goto	l6128
  5194     0439                     u6340:
  5195     0439                     l6122:
  5196     0439  0142               	movlb	2	; select bank2
  5197     043A  0868               	movf	main@phaseExpected^(0+256),w
  5198     043B  1903               	btfsc	3,2
  5199     043C  2C3E               	goto	u6351
  5200     043D  2C3F               	goto	u6350
  5201     043E                     u6351:
  5202     043E  2C53               	goto	l6130
  5203     043F                     u6350:
  5204     043F                     l6124:
  5205     043F  3003               	movlw	3
  5206     0440  0268               	subwf	main@phaseExpected^(0+256),w
  5207     0441  1C03               	skipc
  5208     0442  2C44               	goto	u6361
  5209     0443  2C45               	goto	u6360
  5210     0444                     u6361:
  5211     0444  2C4B               	goto	l6128
  5212     0445                     u6360:
  5213     0445                     l6126:
  5214     0445  3006               	movlw	6
  5215     0446  0268               	subwf	main@phaseExpected^(0+256),w
  5216     0447  1C03               	skipc
  5217     0448  2C4A               	goto	u6371
  5218     0449  2C4B               	goto	u6370
  5219     044A                     u6371:
  5220     044A  2C53               	goto	l6130
  5221     044B                     u6370:
  5222     044B                     l6128:
  5223                           
  5224                           ;main.c: 348:                             flag_off(phaseWas,outputWas);
  5225     044B  0142               	movlb	2	; select bank2
  5226     044C  0869               	movf	main@outputWas^(0+256),w
  5227     044D  00F2               	movwf	flag_off@L
  5228     044E  0143               	movlb	3	; select bank3
  5229     044F  086C               	movf	main@phaseWas^(0+384),w
  5230     0450  3188  20EE  3180   	fcall	_flag_off
  5231     0453                     l6130:
  5232                           
  5233                           ;main.c: 350:                     if ((phaseWas == 0) || ((phaseWas >= 3)&&(phaseWas <= 
      +                          5)))
  5234     0453  0143               	movlb	3	; select bank3
  5235     0454  086C               	movf	main@phaseWas^(0+384),w
  5236     0455  1903               	btfsc	3,2
  5237     0456  2C58               	goto	u6381
  5238     0457  2C59               	goto	u6380
  5239     0458                     u6381:
  5240     0458  2C65               	goto	l6136
  5241     0459                     u6380:
  5242     0459                     l6132:
  5243     0459  3003               	movlw	3
  5244     045A  026C               	subwf	main@phaseWas^(0+384),w
  5245     045B  1C03               	skipc
  5246     045C  2C5E               	goto	u6391
  5247     045D  2C5F               	goto	u6390
  5248     045E                     u6391:
  5249     045E  2C7F               	goto	l6146
  5250     045F                     u6390:
  5251     045F                     l6134:
  5252     045F  3006               	movlw	6
  5253     0460  026C               	subwf	main@phaseWas^(0+384),w
  5254     0461  1803               	skipnc
  5255     0462  2C64               	goto	u6401
  5256     0463  2C65               	goto	u6400
  5257     0464                     u6401:
  5258     0464  2C7F               	goto	l6146
  5259     0465                     u6400:
  5260     0465                     l6136:
  5261                           
  5262                           ;main.c: 351:                     {;main.c: 352:                         if(phaseWas == 
      +                          0 && outputWas == 0)
  5263     0465  086C               	movf	main@phaseWas^(0+384),w
  5264     0466  1D03               	btfss	3,2
  5265     0467  2C69               	goto	u6411
  5266     0468  2C6A               	goto	u6410
  5267     0469                     u6411:
  5268     0469  2C72               	goto	l6142
  5269     046A                     u6410:
  5270     046A                     l6138:
  5271     046A  0142               	movlb	2	; select bank2
  5272     046B  0869               	movf	main@outputWas^(0+256),w
  5273     046C  1D03               	btfss	3,2
  5274     046D  2C6F               	goto	u6421
  5275     046E  2C70               	goto	u6420
  5276     046F                     u6421:
  5277     046F  2C72               	goto	l6142
  5278     0470                     u6420:
  5279     0470                     l6140:
  5280                           
  5281                           ;main.c: 353:                             flagL1OnR = 0;
  5282     0470  0143               	movlb	3	; select bank3
  5283     0471  01E5               	clrf	_flagL1OnR^(0+384)	;volatile
  5284     0472                     l6142:
  5285                           
  5286                           ;main.c: 354:                         relay_to_off_step1(phaseWas,1);
  5287     0472  01F2               	clrf	relay_to_off_step1@OnOf
  5288     0473  0AF2               	incf	relay_to_off_step1@OnOf,f
  5289     0474  0143               	movlb	3	; select bank3
  5290     0475  086C               	movf	main@phaseWas^(0+384),w
  5291     0476  3189  21C9  3180   	fcall	_relay_to_off_step1
  5292     0479                     l6144:
  5293                           
  5294                           ;main.c: 355:                         relay_to_off_step1_msg(phaseWas);
  5295     0479  0143               	movlb	3	; select bank3
  5296     047A  086C               	movf	main@phaseWas^(0+384),w
  5297     047B  318A  22EC  3180   	fcall	_relay_to_off_step1_msg
  5298                           
  5299                           ;main.c: 356:                     }
  5300     047E  2C83               	goto	l6148
  5301     047F                     l6146:
  5302                           
  5303                           ;main.c: 358:                     {;main.c: 359:                         relayOfInProgre
      +                          ss = 0;
  5304     047F  0142               	movlb	2	; select bank2
  5305     0480  01E5               	clrf	main@relayOfInProgress^(0+256)
  5306                           
  5307                           ;main.c: 360:                         counter = 0;
  5308     0481  01EA               	clrf	main@counter^(0+256)
  5309     0482  01EB               	clrf	(main@counter+1)^(0+256)
  5310     0483                     l6148:
  5311                           
  5312                           ;main.c: 363:                 if(counter == 2*6 -1)
  5313     0483  300B               	movlw	11
  5314     0484  0142               	movlb	2	; select bank2
  5315     0485  066A               	xorwf	main@counter^(0+256),w
  5316     0486  046B               	iorwf	(main@counter+1)^(0+256),w
  5317     0487  1D03               	btfss	3,2
  5318     0488  2C8A               	goto	u6431
  5319     0489  2C8B               	goto	u6430
  5320     048A                     u6431:
  5321     048A  2C9A               	goto	l6156
  5322     048B                     u6430:
  5323     048B                     l6150:
  5324                           
  5325                           ;main.c: 364:                 {;main.c: 365:                     relay_to_off_step1(phas
      +                          eWas,0);
  5326     048B  01F2               	clrf	relay_to_off_step1@OnOf
  5327     048C  0143               	movlb	3	; select bank3
  5328     048D  086C               	movf	main@phaseWas^(0+384),w
  5329     048E  3189  21C9  3180   	fcall	_relay_to_off_step1
  5330                           
  5331                           ;main.c: 366:                     flag_off_step1(phaseWas);
  5332     0491  0143               	movlb	3	; select bank3
  5333     0492  086C               	movf	main@phaseWas^(0+384),w
  5334     0493  3197  27D5  3180   	fcall	_flag_off_step1
  5335     0496                     l6152:
  5336                           
  5337                           ;main.c: 367:                     relayOfInProgress = 0;
  5338     0496  0142               	movlb	2	; select bank2
  5339     0497  01E5               	clrf	main@relayOfInProgress^(0+256)
  5340     0498                     l6154:
  5341                           
  5342                           ;main.c: 368:                     counter = 0;
  5343     0498  01EA               	clrf	main@counter^(0+256)
  5344     0499  01EB               	clrf	(main@counter+1)^(0+256)
  5345     049A                     l6156:
  5346                           
  5347                           ;main.c: 371:             if(relayOnInProgress)
  5348     049A  0866               	movf	main@relayOnInProgress^(0+256),w
  5349     049B  1903               	btfsc	3,2
  5350     049C  2C9E               	goto	u6441
  5351     049D  2C9F               	goto	u6440
  5352     049E                     u6441:
  5353     049E  2D15               	goto	l6196
  5354     049F                     u6440:
  5355     049F                     l6158:
  5356                           
  5357                           ;main.c: 372:             {;main.c: 373:                 if (counter == 0)
  5358     049F  086A               	movf	main@counter^(0+256),w
  5359     04A0  046B               	iorwf	(main@counter+1)^(0+256),w
  5360     04A1  1D03               	btfss	3,2
  5361     04A2  2CA4               	goto	u6451
  5362     04A3  2CA5               	goto	u6450
  5363     04A4                     u6451:
  5364     04A4  2CB6               	goto	l6164
  5365     04A5                     u6450:
  5366     04A5                     l6160:
  5367                           
  5368                           ;main.c: 374:                 {;main.c: 375:                     relay_to_on(phaseIs,out
      +                          putIs,1);
  5369     04A5  0867               	movf	main@outputIs^(0+256),w
  5370     04A6  00F2               	movwf	relay_to_on@L
  5371     04A7  01F3               	clrf	relay_to_on@OnOf
  5372     04A8  0AF3               	incf	relay_to_on@OnOf,f
  5373     04A9  086C               	movf	main@phaseIs^(0+256),w
  5374     04AA  318C  24A2  3180   	fcall	_relay_to_on
  5375     04AD                     l6162:
  5376                           
  5377                           ;main.c: 376:                     relay_to_on_msg(phaseIs,outputIs);
  5378     04AD  0142               	movlb	2	; select bank2
  5379     04AE  0867               	movf	main@outputIs^(0+256),w
  5380     04AF  0140               	movlb	0	; select bank0
  5381     04B0  00A6               	movwf	relay_to_on_msg@L
  5382     04B1  0142               	movlb	2	; select bank2
  5383     04B2  086C               	movf	main@phaseIs^(0+256),w
  5384     04B3  3185  2534  3180   	fcall	_relay_to_on_msg
  5385     04B6                     l6164:
  5386                           
  5387                           ;main.c: 378:                 counter++;
  5388     04B6  3001               	movlw	1
  5389     04B7  0142               	movlb	2	; select bank2
  5390     04B8  07EA               	addwf	main@counter^(0+256),f
  5391     04B9  3000               	movlw	0
  5392     04BA  3DEB               	addwfc	(main@counter+1)^(0+256),f
  5393     04BB                     l6166:
  5394                           
  5395                           ;main.c: 379:                 if(counter == 6)
  5396     04BB  3006               	movlw	6
  5397     04BC  066A               	xorwf	main@counter^(0+256),w
  5398     04BD  046B               	iorwf	(main@counter+1)^(0+256),w
  5399     04BE  1D03               	btfss	3,2
  5400     04BF  2CC1               	goto	u6461
  5401     04C0  2CC2               	goto	u6460
  5402     04C1                     u6461:
  5403     04C1  2CFF               	goto	l6188
  5404     04C2                     u6460:
  5405     04C2                     l6168:
  5406                           
  5407                           ;main.c: 380:                 {;main.c: 381:                     relay_to_on(phaseIs,out
      +                          putIs,0);
  5408     04C2  0867               	movf	main@outputIs^(0+256),w
  5409     04C3  00F2               	movwf	relay_to_on@L
  5410     04C4  01F3               	clrf	relay_to_on@OnOf
  5411     04C5  086C               	movf	main@phaseIs^(0+256),w
  5412     04C6  318C  24A2  3180   	fcall	_relay_to_on
  5413                           
  5414                           ;main.c: 382:                     flag_on(phaseIs,outputIs);
  5415     04C9  0142               	movlb	2	; select bank2
  5416     04CA  0867               	movf	main@outputIs^(0+256),w
  5417     04CB  00F2               	movwf	flag_on@L
  5418     04CC  086C               	movf	main@phaseIs^(0+256),w
  5419     04CD  3188  207E  3180   	fcall	_flag_on
  5420     04D0                     l6170:
  5421                           
  5422                           ;main.c: 383:                     if ((phaseIs == 0) || ((phaseIs >= 3)&&(phaseIs <= 5))
      +                          )
  5423     04D0  0142               	movlb	2	; select bank2
  5424     04D1  086C               	movf	main@phaseIs^(0+256),w
  5425     04D2  1903               	btfsc	3,2
  5426     04D3  2CD5               	goto	u6471
  5427     04D4  2CD6               	goto	u6470
  5428     04D5                     u6471:
  5429     04D5  2CE2               	goto	l6176
  5430     04D6                     u6470:
  5431     04D6                     l6172:
  5432     04D6  3003               	movlw	3
  5433     04D7  026C               	subwf	main@phaseIs^(0+256),w
  5434     04D8  1C03               	skipc
  5435     04D9  2CDB               	goto	u6481
  5436     04DA  2CDC               	goto	u6480
  5437     04DB                     u6481:
  5438     04DB  2CFC               	goto	l6186
  5439     04DC                     u6480:
  5440     04DC                     l6174:
  5441     04DC  3006               	movlw	6
  5442     04DD  026C               	subwf	main@phaseIs^(0+256),w
  5443     04DE  1803               	skipnc
  5444     04DF  2CE1               	goto	u6491
  5445     04E0  2CE2               	goto	u6490
  5446     04E1                     u6491:
  5447     04E1  2CFC               	goto	l6186
  5448     04E2                     u6490:
  5449     04E2                     l6176:
  5450                           
  5451                           ;main.c: 384:                     {;main.c: 385:                         if(phaseIs == 0
      +                           && outputIs == 0)
  5452     04E2  086C               	movf	main@phaseIs^(0+256),w
  5453     04E3  1D03               	btfss	3,2
  5454     04E4  2CE6               	goto	u6501
  5455     04E5  2CE7               	goto	u6500
  5456     04E6                     u6501:
  5457     04E6  2CEF               	goto	l6182
  5458     04E7                     u6500:
  5459     04E7                     l6178:
  5460     04E7  0867               	movf	main@outputIs^(0+256),w
  5461     04E8  1D03               	btfss	3,2
  5462     04E9  2CEB               	goto	u6511
  5463     04EA  2CEC               	goto	u6510
  5464     04EB                     u6511:
  5465     04EB  2CEF               	goto	l6182
  5466     04EC                     u6510:
  5467     04EC                     l6180:
  5468                           
  5469                           ;main.c: 386:                             flagL1OnR = 1;
  5470     04EC  3001               	movlw	1
  5471     04ED  0143               	movlb	3	; select bank3
  5472     04EE  00E5               	movwf	_flagL1OnR^(0+384)	;volatile
  5473     04EF                     l6182:
  5474                           
  5475                           ;main.c: 387:                         relay_to_on_step1(phaseIs,1);
  5476     04EF  01F2               	clrf	relay_to_on_step1@OnOf
  5477     04F0  0AF2               	incf	relay_to_on_step1@OnOf,f
  5478     04F1  0142               	movlb	2	; select bank2
  5479     04F2  086C               	movf	main@phaseIs^(0+256),w
  5480     04F3  3189  217C  3180   	fcall	_relay_to_on_step1
  5481     04F6                     l6184:
  5482                           
  5483                           ;main.c: 388:                         relay_to_on_step1_msg(phaseIs);
  5484     04F6  0142               	movlb	2	; select bank2
  5485     04F7  086C               	movf	main@phaseIs^(0+256),w
  5486     04F8  318B  2377  3180   	fcall	_relay_to_on_step1_msg
  5487                           
  5488                           ;main.c: 389:                     }
  5489     04FB  2CFF               	goto	l6188
  5490     04FC                     l6186:
  5491                           
  5492                           ;main.c: 391:                     {;main.c: 392:                         relayOnInProgre
      +                          ss = 0;
  5493     04FC  01E6               	clrf	main@relayOnInProgress^(0+256)
  5494                           
  5495                           ;main.c: 393:                         counter = 0;
  5496     04FD  01EA               	clrf	main@counter^(0+256)
  5497     04FE  01EB               	clrf	(main@counter+1)^(0+256)
  5498     04FF                     l6188:
  5499                           
  5500                           ;main.c: 396:                 if(counter == 2*6 -1)
  5501     04FF  300B               	movlw	11
  5502     0500  0142               	movlb	2	; select bank2
  5503     0501  066A               	xorwf	main@counter^(0+256),w
  5504     0502  046B               	iorwf	(main@counter+1)^(0+256),w
  5505     0503  1D03               	btfss	3,2
  5506     0504  2D06               	goto	u6521
  5507     0505  2D07               	goto	u6520
  5508     0506                     u6521:
  5509     0506  2D15               	goto	l6196
  5510     0507                     u6520:
  5511     0507                     l6190:
  5512                           
  5513                           ;main.c: 397:                 {;main.c: 398:                     relay_to_on_step1(phase
      +                          Is,0);
  5514     0507  01F2               	clrf	relay_to_on_step1@OnOf
  5515     0508  086C               	movf	main@phaseIs^(0+256),w
  5516     0509  3189  217C  3180   	fcall	_relay_to_on_step1
  5517                           
  5518                           ;main.c: 399:                     flag_on_step1(phaseIs);
  5519     050C  0142               	movlb	2	; select bank2
  5520     050D  086C               	movf	main@phaseIs^(0+256),w
  5521     050E  3197  2783  3180   	fcall	_flag_on_step1
  5522     0511                     l6192:
  5523                           
  5524                           ;main.c: 400:                     relayOnInProgress = 0;
  5525     0511  0142               	movlb	2	; select bank2
  5526     0512  01E6               	clrf	main@relayOnInProgress^(0+256)
  5527     0513                     l6194:
  5528                           
  5529                           ;main.c: 401:                     counter = 0;
  5530     0513  01EA               	clrf	main@counter^(0+256)
  5531     0514  01EB               	clrf	(main@counter+1)^(0+256)
  5532     0515                     l6196:
  5533                           
  5534                           ;main.c: 404:             indexADC++;
  5535     0515  3001               	movlw	1
  5536     0516  0140               	movlb	0	; select bank0
  5537     0517  00DC               	movwf	??_main
  5538     0518  085C               	movf	??_main,w
  5539     0519  0144               	movlb	4	; select bank4
  5540     051A  07EB               	addwf	main@indexADC^(0+512),f
  5541     051B                     l6198:
  5542                           
  5543                           ;main.c: 405:             indexLoad++;
  5544     051B  3001               	movlw	1
  5545     051C  0140               	movlb	0	; select bank0
  5546     051D  00DC               	movwf	??_main
  5547     051E  085C               	movf	??_main,w
  5548     051F  0144               	movlb	4	; select bank4
  5549     0520  07EC               	addwf	main@indexLoad^(0+512),f
  5550     0521                     l6200:
  5551                           
  5552                           ;main.c: 406:             if(indexADC >= 6)
  5553     0521  3006               	movlw	6
  5554     0522  026B               	subwf	main@indexADC^(0+512),w
  5555     0523  1C03               	skipc
  5556     0524  2D26               	goto	u6531
  5557     0525  2D27               	goto	u6530
  5558     0526                     u6531:
  5559     0526  2D28               	goto	l6204
  5560     0527                     u6530:
  5561     0527                     l6202:
  5562                           
  5563                           ;main.c: 407:                 indexADC = 0;
  5564     0527  01EB               	clrf	main@indexADC^(0+512)
  5565     0528                     l6204:
  5566                           
  5567                           ;main.c: 408:             if(indexLoad >= 3)
  5568     0528  3003               	movlw	3
  5569     0529  026C               	subwf	main@indexLoad^(0+512),w
  5570     052A  1C03               	skipc
  5571     052B  2D2D               	goto	u6541
  5572     052C  2D2E               	goto	u6540
  5573     052D                     u6541:
  5574     052D  2D2F               	goto	l419
  5575     052E                     u6540:
  5576     052E                     l6206:
  5577                           
  5578                           ;main.c: 409:                 indexLoad = 0;
  5579     052E  01EC               	clrf	main@indexLoad^(0+512)
  5580     052F                     l419:
  5581                           
  5582                           ;main.c: 410:             run_mainloop = 0;
  5583     052F  0143               	movlb	3	; select bank3
  5584     0530  01E7               	clrf	_run_mainloop^(0+384)	;volatile
  5585     0531  2927               	goto	l5968
  5586     0532  3180  2818         	ljmp	start
  5587     0534                     __end_of_main:
  5588                           
  5589                           	psect	text1
  5590     0B77                     __ptext1:	
  5591 ;; *************** function _relay_to_on_step1_msg *****************
  5592 ;; Defined at:
  5593 ;;		line 1084 in file "main.c"
  5594 ;; Parameters:    Size  Location     Type
  5595 ;;  phase           1    wreg     unsigned char 
  5596 ;; Auto vars:     Size  Location     Type
  5597 ;;  phase           1   58[BANK0 ] unsigned char 
  5598 ;;  buffer         50    8[BANK0 ] unsigned char [50]
  5599 ;; Return value:  Size  Location     Type
  5600 ;;                  1    wreg      void 
  5601 ;; Registers used:
  5602 ;;		wreg, fsr0l, fsr0h, fsr1l, fsr1h, status,2, status,0, pclath, cstack
  5603 ;; Tracked objects:
  5604 ;;		On entry : 0/0
  5605 ;;		On exit  : 0/0
  5606 ;;		Unchanged: 0/0
  5607 ;; Data sizes:     COMMON   BANK0   BANK1   BANK2   BANK3   BANK4   BANK5   BANK6   BANK7   BANK8   BANK9  BANK10  BANK1
      +1  BANK12  BANK13  BANK14  BANK15  BANK16  BANK17  BANK18  BANK19  BANK20  BANK21  BANK22  BANK23  BANK24  BANK25
  5608 ;;      Params:         0       0       0       0       0       0       0       0       0       0       0       0       
      +0       0       0       0       0       0       0       0       0       0       0       0       0       0       0
  5609 ;;      Locals:         0      51       0       0       0       0       0       0       0       0       0       0       
      +0       0       0       0       0       0       0       0       0       0       0       0       0       0       0
  5610 ;;      Temps:          0       2       0       0       0       0       0       0       0       0       0       0       
      +0       0       0       0       0       0       0       0       0       0       0       0       0       0       0
  5611 ;;      Totals:         0      53       0       0       0       0       0       0       0       0       0       0       
      +0       0       0       0       0       0       0       0       0       0       0       0       0       0       0
  5612 ;;Total ram usage:       53 bytes
  5613 ;; Hardware stack levels used: 1
  5614 ;; Hardware stack levels required when called: 6
  5615 ;; This function calls:
  5616 ;;		_push_string_buffer
  5617 ;; This function is called by:
  5618 ;;		_main
  5619 ;; This function uses a non-reentrant model
  5620 ;;
  5621                           
  5622     0B77                     _relay_to_on_step1_msg:	
  5623                           ;psect for function _relay_to_on_step1_msg
  5624                           
  5625                           
  5626                           ;incstack = 0
  5627                           ; Regs used in _relay_to_on_step1_msg: [wreg-fsr1h+status,2+status,0+pclath+cstack]
  5628                           ;relay_to_on_step1_msg@phase stored from wreg
  5629     0B77  0140               	movlb	0	; select bank0
  5630     0B78  00DA               	movwf	relay_to_on_step1_msg@phase
  5631     0B79                     l5868:
  5632                           
  5633                           ;main.c: 1084: void relay_to_on_step1_msg(uint8_t phase);main.c: 1085: {;main.c: 1086:  
      +                             char buffer[50]={0};
  5634     0B79  3028               	movlw	low relay_to_on_step1_msg@buffer
  5635     0B7A  0086               	movwf	6
  5636     0B7B  3000               	movlw	high relay_to_on_step1_msg@buffer
  5637     0B7C  0087               	movwf	7
  5638     0B7D  3032               	movlw	50
  5639     0B7E  00A6               	movwf	??_relay_to_on_step1_msg
  5640     0B7F  3000               	movlw	0
  5641     0B80                     u5860:
  5642     0B80  001E               	movwi fsr1++
  5643     0B81  0BA6               	decfsz	??_relay_to_on_step1_msg,f
  5644     0B82  2B80               	goto	u5860
  5645                           
  5646                           ;main.c: 1087:     switch(phase)
  5647     0B83  2BEB               	goto	l5890
  5648     0B84                     l5870:
  5649                           
  5650                           ;main.c: 1090:             if(!flag_RC)
  5651     0B84  0142               	movlb	2	; select bank2
  5652     0B85  086F               	movf	_flag_RC^(0+256),w	;volatile
  5653     0B86  1D03               	btfss	3,2
  5654     0B87  2B89               	goto	u5871
  5655     0B88  2B8A               	goto	u5870
  5656     0B89                     u5871:
  5657     0B89  2C01               	goto	l5892
  5658     0B8A                     u5870:
  5659     0B8A                     l5872:
  5660                           
  5661                           ;main.c: 1091:             {;main.c: 1092:                     buffer[0]='R';
  5662     0B8A  3052               	movlw	82
  5663     0B8B  0140               	movlb	0	; select bank0
  5664     0B8C  00A8               	movwf	relay_to_on_step1_msg@buffer
  5665                           
  5666                           ;main.c: 1093:                     buffer[1]='C';
  5667     0B8D  3043               	movlw	67
  5668     0B8E  00A9               	movwf	relay_to_on_step1_msg@buffer+1
  5669                           
  5670                           ;main.c: 1094:                     buffer[2]= ' ';
  5671     0B8F  3020               	movlw	32
  5672     0B90  00AA               	movwf	relay_to_on_step1_msg@buffer+2
  5673                           
  5674                           ;main.c: 1095:                     buffer[3]= 'O';
  5675     0B91  304F               	movlw	79
  5676     0B92  00AB               	movwf	relay_to_on_step1_msg@buffer+3
  5677                           
  5678                           ;main.c: 1096:                     buffer[4]= 'n';
  5679     0B93  306E               	movlw	110
  5680     0B94  00AC               	movwf	relay_to_on_step1_msg@buffer+4
  5681                           
  5682                           ;main.c: 1097:                     buffer[5]= '\n';
  5683     0B95  300A               	movlw	10
  5684     0B96  00AD               	movwf	relay_to_on_step1_msg@buffer+5
  5685                           
  5686                           ;main.c: 1098:                     buffer[6]= '\r';
  5687     0B97  300D               	movlw	13
  5688     0B98  00AE               	movwf	relay_to_on_step1_msg@buffer+6
  5689     0B99  2C01               	goto	l5892
  5690     0B9A                     l5874:
  5691                           
  5692                           ;main.c: 1102:             if(!flag_WC)
  5693     0B9A  0142               	movlb	2	; select bank2
  5694     0B9B  086E               	movf	_flag_WC^(0+256),w	;volatile
  5695     0B9C  1D03               	btfss	3,2
  5696     0B9D  2B9F               	goto	u5881
  5697     0B9E  2BA0               	goto	u5880
  5698     0B9F                     u5881:
  5699     0B9F  2C01               	goto	l5892
  5700     0BA0                     u5880:
  5701     0BA0                     l5876:
  5702                           
  5703                           ;main.c: 1103:             {;main.c: 1104:                     buffer[0]='W';
  5704     0BA0  3057               	movlw	87
  5705     0BA1  0140               	movlb	0	; select bank0
  5706     0BA2  00A8               	movwf	relay_to_on_step1_msg@buffer
  5707                           
  5708                           ;main.c: 1105:                     buffer[1]='C';
  5709     0BA3  3043               	movlw	67
  5710     0BA4  00A9               	movwf	relay_to_on_step1_msg@buffer+1
  5711                           
  5712                           ;main.c: 1106:                     buffer[2]= ' ';
  5713     0BA5  3020               	movlw	32
  5714     0BA6  00AA               	movwf	relay_to_on_step1_msg@buffer+2
  5715                           
  5716                           ;main.c: 1107:                     buffer[3]= 'O';
  5717     0BA7  304F               	movlw	79
  5718     0BA8  00AB               	movwf	relay_to_on_step1_msg@buffer+3
  5719                           
  5720                           ;main.c: 1108:                     buffer[4]= 'n';
  5721     0BA9  306E               	movlw	110
  5722     0BAA  00AC               	movwf	relay_to_on_step1_msg@buffer+4
  5723                           
  5724                           ;main.c: 1109:                     buffer[5]= '\n';
  5725     0BAB  300A               	movlw	10
  5726     0BAC  00AD               	movwf	relay_to_on_step1_msg@buffer+5
  5727                           
  5728                           ;main.c: 1110:                     buffer[6]= '\r';
  5729     0BAD  300D               	movlw	13
  5730     0BAE  00AE               	movwf	relay_to_on_step1_msg@buffer+6
  5731     0BAF  2C01               	goto	l5892
  5732     0BB0                     l5878:
  5733                           
  5734                           ;main.c: 1114:             if(!flag_UC)
  5735     0BB0  0142               	movlb	2	; select bank2
  5736     0BB1  086D               	movf	_flag_UC^(0+256),w	;volatile
  5737     0BB2  1D03               	btfss	3,2
  5738     0BB3  2BB5               	goto	u5891
  5739     0BB4  2BB6               	goto	u5890
  5740     0BB5                     u5891:
  5741     0BB5  2C01               	goto	l5892
  5742     0BB6                     u5890:
  5743     0BB6                     l5880:
  5744                           
  5745                           ;main.c: 1115:             {;main.c: 1116:                     buffer[0]='U';
  5746     0BB6  3055               	movlw	85
  5747     0BB7  0140               	movlb	0	; select bank0
  5748     0BB8  00A8               	movwf	relay_to_on_step1_msg@buffer
  5749                           
  5750                           ;main.c: 1117:                     buffer[1]='C';
  5751     0BB9  3043               	movlw	67
  5752     0BBA  00A9               	movwf	relay_to_on_step1_msg@buffer+1
  5753                           
  5754                           ;main.c: 1118:                     buffer[2]= ' ';
  5755     0BBB  3020               	movlw	32
  5756     0BBC  00AA               	movwf	relay_to_on_step1_msg@buffer+2
  5757                           
  5758                           ;main.c: 1119:                     buffer[3]= 'O';
  5759     0BBD  304F               	movlw	79
  5760     0BBE  00AB               	movwf	relay_to_on_step1_msg@buffer+3
  5761                           
  5762                           ;main.c: 1120:                     buffer[4]= 'n';
  5763     0BBF  306E               	movlw	110
  5764     0BC0  00AC               	movwf	relay_to_on_step1_msg@buffer+4
  5765                           
  5766                           ;main.c: 1121:                     buffer[5]= '\n';
  5767     0BC1  300A               	movlw	10
  5768     0BC2  00AD               	movwf	relay_to_on_step1_msg@buffer+5
  5769                           
  5770                           ;main.c: 1122:                     buffer[6]= '\r';
  5771     0BC3  300D               	movlw	13
  5772     0BC4  00AE               	movwf	relay_to_on_step1_msg@buffer+6
  5773     0BC5  2C01               	goto	l5892
  5774     0BC6                     l5882:
  5775                           
  5776                           ;main.c: 1126:             if(!flag_VC)
  5777     0BC6  0143               	movlb	3	; select bank3
  5778     0BC7  0866               	movf	_flag_VC^(0+384),w	;volatile
  5779     0BC8  1D03               	btfss	3,2
  5780     0BC9  2BCB               	goto	u5901
  5781     0BCA  2BCC               	goto	u5900
  5782     0BCB                     u5901:
  5783     0BCB  2C01               	goto	l5892
  5784     0BCC                     u5900:
  5785     0BCC                     l5884:
  5786                           
  5787                           ;main.c: 1127:             {;main.c: 1128:                     buffer[0]='V';
  5788     0BCC  3056               	movlw	86
  5789     0BCD  0140               	movlb	0	; select bank0
  5790     0BCE  00A8               	movwf	relay_to_on_step1_msg@buffer
  5791                           
  5792                           ;main.c: 1129:                     buffer[1]='C';
  5793     0BCF  3043               	movlw	67
  5794     0BD0  00A9               	movwf	relay_to_on_step1_msg@buffer+1
  5795                           
  5796                           ;main.c: 1130:                     buffer[2]= ' ';
  5797     0BD1  3020               	movlw	32
  5798     0BD2  00AA               	movwf	relay_to_on_step1_msg@buffer+2
  5799                           
  5800                           ;main.c: 1131:                     buffer[3]= 'O';
  5801     0BD3  304F               	movlw	79
  5802     0BD4  00AB               	movwf	relay_to_on_step1_msg@buffer+3
  5803                           
  5804                           ;main.c: 1132:                     buffer[4]= 'n';
  5805     0BD5  306E               	movlw	110
  5806     0BD6  00AC               	movwf	relay_to_on_step1_msg@buffer+4
  5807                           
  5808                           ;main.c: 1133:                     buffer[5]= '\n';
  5809     0BD7  300A               	movlw	10
  5810     0BD8  00AD               	movwf	relay_to_on_step1_msg@buffer+5
  5811                           
  5812                           ;main.c: 1134:                     buffer[6]= '\r';
  5813     0BD9  300D               	movlw	13
  5814     0BDA  00AE               	movwf	relay_to_on_step1_msg@buffer+6
  5815     0BDB  2C01               	goto	l5892
  5816     0BDC                     l5886:
  5817                           
  5818                           ;main.c: 1138:             {;main.c: 1139:                     buffer[0]='S';
  5819     0BDC  3053               	movlw	83
  5820     0BDD  00A8               	movwf	relay_to_on_step1_msg@buffer
  5821                           
  5822                           ;main.c: 1140:                     buffer[1]='1';
  5823     0BDE  3031               	movlw	49
  5824     0BDF  00A9               	movwf	relay_to_on_step1_msg@buffer+1
  5825                           
  5826                           ;main.c: 1141:                     buffer[2]= ' ';
  5827     0BE0  3020               	movlw	32
  5828     0BE1  00AA               	movwf	relay_to_on_step1_msg@buffer+2
  5829                           
  5830                           ;main.c: 1142:                     buffer[3]= 'O';
  5831     0BE2  304F               	movlw	79
  5832     0BE3  00AB               	movwf	relay_to_on_step1_msg@buffer+3
  5833                           
  5834                           ;main.c: 1143:                     buffer[4]= 'f';
  5835     0BE4  3066               	movlw	102
  5836     0BE5  00AC               	movwf	relay_to_on_step1_msg@buffer+4
  5837                           
  5838                           ;main.c: 1144:                     buffer[5]= '\n';
  5839     0BE6  300A               	movlw	10
  5840     0BE7  00AD               	movwf	relay_to_on_step1_msg@buffer+5
  5841                           
  5842                           ;main.c: 1145:                     buffer[6]= '\r';
  5843     0BE8  300D               	movlw	13
  5844     0BE9  00AE               	movwf	relay_to_on_step1_msg@buffer+6
  5845                           
  5846                           ;main.c: 1146:             };main.c: 1147:             break;
  5847     0BEA  2C01               	goto	l5892
  5848     0BEB                     l5890:
  5849     0BEB  085A               	movf	relay_to_on_step1_msg@phase,w
  5850     0BEC  00A6               	movwf	??_relay_to_on_step1_msg
  5851     0BED  01A7               	clrf	??_relay_to_on_step1_msg+1
  5852                           
  5853                           ; Switch on 2 bytes has been partitioned into a top level switch of size 1, and 1 sub-sw
      +                          itches
  5854                           ; Switch size 1, requested type "simple"
  5855                           ; Number of cases is 1, Range of values is 0 to 0
  5856                           ; switch strategies available:
  5857                           ; Name         Instructions Cycles
  5858                           ; simple_byte            4     3 (average)
  5859                           ; direct_byte            8     6 (fixed)
  5860                           ; jumptable            260     6 (fixed)
  5861                           ;	Chosen strategy is simple_byte
  5862     0BEE  0827               	movf	??_relay_to_on_step1_msg+1,w
  5863     0BEF  3A00               	xorlw	0	; case 0
  5864     0BF0  1903               	skipnz
  5865     0BF1  2BF3               	goto	l6448
  5866     0BF2  2BDC               	goto	l5886
  5867     0BF3                     l6448:
  5868                           
  5869                           ; Switch size 1, requested type "simple"
  5870                           ; Number of cases is 4, Range of values is 0 to 5
  5871                           ; switch strategies available:
  5872                           ; Name         Instructions Cycles
  5873                           ; simple_byte           13     7 (average)
  5874                           ; direct_byte           18     6 (fixed)
  5875                           ; jumptable            260     6 (fixed)
  5876                           ;	Chosen strategy is simple_byte
  5877     0BF3  0826               	movf	??_relay_to_on_step1_msg,w
  5878     0BF4  3A00               	xorlw	0	; case 0
  5879     0BF5  1903               	skipnz
  5880     0BF6  2B84               	goto	l5870
  5881     0BF7  3A03               	xorlw	3	; case 3
  5882     0BF8  1903               	skipnz
  5883     0BF9  2BB0               	goto	l5878
  5884     0BFA  3A07               	xorlw	7	; case 4
  5885     0BFB  1903               	skipnz
  5886     0BFC  2BC6               	goto	l5882
  5887     0BFD  3A01               	xorlw	1	; case 5
  5888     0BFE  1903               	skipnz
  5889     0BFF  2B9A               	goto	l5874
  5890     0C00  2BDC               	goto	l5886
  5891     0C01                     l5892:
  5892                           
  5893                           ;main.c: 1149:     push_string_buffer(buffer,7);
  5894     0C01  3007               	movlw	7
  5895     0C02  0140               	movlb	0	; select bank0
  5896     0C03  00A0               	movwf	push_string_buffer@len
  5897     0C04  3000               	movlw	0
  5898     0C05  00A1               	movwf	push_string_buffer@len+1
  5899     0C06  3028               	movlw	(low (relay_to_on_step1_msg@buffer| 0))& (0+255)
  5900     0C07  3197  27AC  318B   	fcall	_push_string_buffer
  5901     0C0A                     l738:
  5902     0C0A  0008               	return
  5903     0C0B                     __end_of_relay_to_on_step1_msg:
  5904                           
  5905                           	psect	text2
  5906     097C                     __ptext2:	
  5907 ;; *************** function _relay_to_on_step1 *****************
  5908 ;; Defined at:
  5909 ;;		line 643 in file "main.c"
  5910 ;; Parameters:    Size  Location     Type
  5911 ;;  phase           1    wreg     unsigned char 
  5912 ;;  OnOf            1    2[COMMON] _Bool 
  5913 ;; Auto vars:     Size  Location     Type
  5914 ;;  phase           1    5[COMMON] unsigned char 
  5915 ;; Return value:  Size  Location     Type
  5916 ;;                  1    wreg      void 
  5917 ;; Registers used:
  5918 ;;		wreg, fsr0l, fsr0h, status,2, status,0
  5919 ;; Tracked objects:
  5920 ;;		On entry : 0/0
  5921 ;;		On exit  : 0/0
  5922 ;;		Unchanged: 0/0
  5923 ;; Data sizes:     COMMON   BANK0   BANK1   BANK2   BANK3   BANK4   BANK5   BANK6   BANK7   BANK8   BANK9  BANK10  BANK1
      +1  BANK12  BANK13  BANK14  BANK15  BANK16  BANK17  BANK18  BANK19  BANK20  BANK21  BANK22  BANK23  BANK24  BANK25
  5924 ;;      Params:         1       0       0       0       0       0       0       0       0       0       0       0       
      +0       0       0       0       0       0       0       0       0       0       0       0       0       0       0
  5925 ;;      Locals:         1       0       0       0       0       0       0       0       0       0       0       0       
      +0       0       0       0       0       0       0       0       0       0       0       0       0       0       0
  5926 ;;      Temps:          2       0       0       0       0       0       0       0       0       0       0       0       
      +0       0       0       0       0       0       0       0       0       0       0       0       0       0       0
  5927 ;;      Totals:         4       0       0       0       0       0       0       0       0       0       0       0       
      +0       0       0       0       0       0       0       0       0       0       0       0       0       0       0
  5928 ;;Total ram usage:        4 bytes
  5929 ;; Hardware stack levels used: 1
  5930 ;; Hardware stack levels required when called: 4
  5931 ;; This function calls:
  5932 ;;		Nothing
  5933 ;; This function is called by:
  5934 ;;		_main
  5935 ;; This function uses a non-reentrant model
  5936 ;;
  5937                           
  5938     097C                     _relay_to_on_step1:	
  5939                           ;psect for function _relay_to_on_step1
  5940                           
  5941                           
  5942                           ;incstack = 0
  5943                           ; Regs used in _relay_to_on_step1: [wreg-fsr0h+status,2+status,0]
  5944                           ;relay_to_on_step1@phase stored from wreg
  5945     097C  00F5               	movwf	relay_to_on_step1@phase
  5946     097D                     l5842:
  5947                           
  5948                           ;main.c: 643: void relay_to_on_step1(uint8_t phase,_Bool OnOf);main.c: 644: {;main.c: 64
      +                          5:     switch(phase)
  5949     097D  29B2               	goto	l5862
  5950     097E                     l5844:
  5951                           
  5952                           ;main.c: 648:             if(!flag_RC)
  5953     097E  0142               	movlb	2	; select bank2
  5954     097F  086F               	movf	_flag_RC^(0+256),w	;volatile
  5955     0980  1D03               	btfss	3,2
  5956     0981  2983               	goto	u5821
  5957     0982  2984               	goto	u5820
  5958     0983                     u5821:
  5959     0983  29C8               	goto	l602
  5960     0984                     u5820:
  5961     0984                     l5846:
  5962                           
  5963                           ;main.c: 649:                 LATCbits.LATC4 = OnOf;
  5964     0984  0C72               	rrf	relay_to_on_step1@OnOf,w
  5965     0985  0140               	movlb	0	; select bank0
  5966     0986  1C03               	skipc
  5967     0987  121A               	bcf	26,4	;volatile
  5968     0988  1803               	skipnc
  5969     0989  161A               	bsf	26,4	;volatile
  5970     098A  29C8               	goto	l602
  5971     098B                     l5848:
  5972                           
  5973                           ;main.c: 652:             if(!flag_WC)
  5974     098B  0142               	movlb	2	; select bank2
  5975     098C  086E               	movf	_flag_WC^(0+256),w	;volatile
  5976     098D  1D03               	btfss	3,2
  5977     098E  2990               	goto	u5831
  5978     098F  2991               	goto	u5830
  5979     0990                     u5831:
  5980     0990  29C8               	goto	l602
  5981     0991                     u5830:
  5982     0991                     l5850:
  5983                           
  5984                           ;main.c: 653:                 LATDbits.LATD6 = OnOf;
  5985     0991  0C72               	rrf	relay_to_on_step1@OnOf,w
  5986     0992  0140               	movlb	0	; select bank0
  5987     0993  1C03               	skipc
  5988     0994  131B               	bcf	27,6	;volatile
  5989     0995  1803               	skipnc
  5990     0996  171B               	bsf	27,6	;volatile
  5991     0997  29C8               	goto	l602
  5992     0998                     l5852:
  5993                           
  5994                           ;main.c: 656:             if(!flag_UC)
  5995     0998  0142               	movlb	2	; select bank2
  5996     0999  086D               	movf	_flag_UC^(0+256),w	;volatile
  5997     099A  1D03               	btfss	3,2
  5998     099B  299D               	goto	u5841
  5999     099C  299E               	goto	u5840
  6000     099D                     u5841:
  6001     099D  29C8               	goto	l602
  6002     099E                     u5840:
  6003     099E                     l5854:
  6004                           
  6005                           ;main.c: 657:                 LATAbits.LATA6 = OnOf;
  6006     099E  0C72               	rrf	relay_to_on_step1@OnOf,w
  6007     099F  0140               	movlb	0	; select bank0
  6008     09A0  1C03               	skipc
  6009     09A1  1318               	bcf	24,6	;volatile
  6010     09A2  1803               	skipnc
  6011     09A3  1718               	bsf	24,6	;volatile
  6012     09A4  29C8               	goto	l602
  6013     09A5                     l5856:
  6014                           
  6015                           ;main.c: 660:             if(!flag_VC)
  6016     09A5  0143               	movlb	3	; select bank3
  6017     09A6  0866               	movf	_flag_VC^(0+384),w	;volatile
  6018     09A7  1D03               	btfss	3,2
  6019     09A8  29AA               	goto	u5851
  6020     09A9  29AB               	goto	u5850
  6021     09AA                     u5851:
  6022     09AA  29C8               	goto	l602
  6023     09AB                     u5850:
  6024     09AB                     l5858:
  6025                           
  6026                           ;main.c: 661:                 LATDbits.LATD0 = OnOf;
  6027     09AB  0C72               	rrf	relay_to_on_step1@OnOf,w
  6028     09AC  0140               	movlb	0	; select bank0
  6029     09AD  1C03               	skipc
  6030     09AE  101B               	bcf	27,0	;volatile
  6031     09AF  1803               	skipnc
  6032     09B0  141B               	bsf	27,0	;volatile
  6033     09B1  29C8               	goto	l602
  6034     09B2                     l5862:
  6035     09B2  0875               	movf	relay_to_on_step1@phase,w
  6036     09B3  00F3               	movwf	??_relay_to_on_step1
  6037     09B4  01F4               	clrf	??_relay_to_on_step1+1
  6038                           
  6039                           ; Switch on 2 bytes has been partitioned into a top level switch of size 1, and 1 sub-sw
      +                          itches
  6040                           ; Switch size 1, requested type "simple"
  6041                           ; Number of cases is 1, Range of values is 0 to 0
  6042                           ; switch strategies available:
  6043                           ; Name         Instructions Cycles
  6044                           ; simple_byte            4     3 (average)
  6045                           ; direct_byte            8     6 (fixed)
  6046                           ; jumptable            260     6 (fixed)
  6047                           ;	Chosen strategy is simple_byte
  6048     09B5  0874               	movf	??_relay_to_on_step1+1,w
  6049     09B6  3A00               	xorlw	0	; case 0
  6050     09B7  1903               	skipnz
  6051     09B8  29BA               	goto	l6450
  6052     09B9  29C8               	goto	l602
  6053     09BA                     l6450:
  6054                           
  6055                           ; Switch size 1, requested type "simple"
  6056                           ; Number of cases is 4, Range of values is 0 to 5
  6057                           ; switch strategies available:
  6058                           ; Name         Instructions Cycles
  6059                           ; simple_byte           13     7 (average)
  6060                           ; direct_byte           18     6 (fixed)
  6061                           ; jumptable            260     6 (fixed)
  6062                           ;	Chosen strategy is simple_byte
  6063     09BA  0873               	movf	??_relay_to_on_step1,w
  6064     09BB  3A00               	xorlw	0	; case 0
  6065     09BC  1903               	skipnz
  6066     09BD  297E               	goto	l5844
  6067     09BE  3A03               	xorlw	3	; case 3
  6068     09BF  1903               	skipnz
  6069     09C0  2998               	goto	l5852
  6070     09C1  3A07               	xorlw	7	; case 4
  6071     09C2  1903               	skipnz
  6072     09C3  29A5               	goto	l5856
  6073     09C4  3A01               	xorlw	1	; case 5
  6074     09C5  1903               	skipnz
  6075     09C6  298B               	goto	l5848
  6076     09C7  29C8               	goto	l602
  6077     09C8                     l602:
  6078     09C8  0008               	return
  6079     09C9                     __end_of_relay_to_on_step1:
  6080                           
  6081                           	psect	text3
  6082     0534                     __ptext3:	
  6083 ;; *************** function _relay_to_on_msg *****************
  6084 ;; Defined at:
  6085 ;;		line 952 in file "main.c"
  6086 ;; Parameters:    Size  Location     Type
  6087 ;;  phase           1    wreg     unsigned char 
  6088 ;;  L               1    6[BANK0 ] unsigned char 
  6089 ;; Auto vars:     Size  Location     Type
  6090 ;;  phase           1    9[BANK0 ] unsigned char 
  6091 ;;  buffer         50   10[BANK0 ] unsigned char [50]
  6092 ;; Return value:  Size  Location     Type
  6093 ;;                  1    wreg      void 
  6094 ;; Registers used:
  6095 ;;		wreg, fsr0l, fsr0h, fsr1l, fsr1h, status,2, status,0, pclath, cstack
  6096 ;; Tracked objects:
  6097 ;;		On entry : 0/0
  6098 ;;		On exit  : 0/0
  6099 ;;		Unchanged: 0/0
  6100 ;; Data sizes:     COMMON   BANK0   BANK1   BANK2   BANK3   BANK4   BANK5   BANK6   BANK7   BANK8   BANK9  BANK10  BANK1
      +1  BANK12  BANK13  BANK14  BANK15  BANK16  BANK17  BANK18  BANK19  BANK20  BANK21  BANK22  BANK23  BANK24  BANK25
  6101 ;;      Params:         0       1       0       0       0       0       0       0       0       0       0       0       
      +0       0       0       0       0       0       0       0       0       0       0       0       0       0       0
  6102 ;;      Locals:         0      51       0       0       0       0       0       0       0       0       0       0       
      +0       0       0       0       0       0       0       0       0       0       0       0       0       0       0
  6103 ;;      Temps:          0       2       0       0       0       0       0       0       0       0       0       0       
      +0       0       0       0       0       0       0       0       0       0       0       0       0       0       0
  6104 ;;      Totals:         0      54       0       0       0       0       0       0       0       0       0       0       
      +0       0       0       0       0       0       0       0       0       0       0       0       0       0       0
  6105 ;;Total ram usage:       54 bytes
  6106 ;; Hardware stack levels used: 1
  6107 ;; Hardware stack levels required when called: 6
  6108 ;; This function calls:
  6109 ;;		_push_string_buffer
  6110 ;; This function is called by:
  6111 ;;		_main
  6112 ;; This function uses a non-reentrant model
  6113 ;;
  6114                           
  6115     0534                     _relay_to_on_msg:	
  6116                           ;psect for function _relay_to_on_msg
  6117                           
  6118                           
  6119                           ;incstack = 0
  6120                           ; Regs used in _relay_to_on_msg: [wreg-fsr1h+status,2+status,0+pclath+cstack]
  6121                           ;relay_to_on_msg@phase stored from wreg
  6122     0534  0140               	movlb	0	; select bank0
  6123     0535  00A9               	movwf	relay_to_on_msg@phase
  6124     0536                     l5764:
  6125                           
  6126                           ;main.c: 952: void relay_to_on_msg(uint8_t phase,uint8_t L);main.c: 953: {;main.c: 954: 
      +                              char buffer[50]={0};
  6127     0536  302A               	movlw	low relay_to_on_msg@buffer
  6128     0537  0086               	movwf	6
  6129     0538  3000               	movlw	high relay_to_on_msg@buffer
  6130     0539  0087               	movwf	7
  6131     053A  3032               	movlw	50
  6132     053B  00A7               	movwf	??_relay_to_on_msg
  6133     053C  3000               	movlw	0
  6134     053D                     u5660:
  6135     053D  001E               	movwi fsr1++
  6136     053E  0BA7               	decfsz	??_relay_to_on_msg,f
  6137     053F  2D3D               	goto	u5660
  6138                           
  6139                           ;main.c: 955:     switch(phase)
  6140     0540  2E24               	goto	l5812
  6141     0541                     l704:	
  6142                           ;main.c: 959:         case 5:
  6143                           
  6144     0541                     l5766:
  6145                           
  6146                           ;main.c: 961:             if(L == 0)
  6147     0541  0826               	movf	relay_to_on_msg@L,w
  6148     0542  1D03               	btfss	3,2
  6149     0543  2D45               	goto	u5671
  6150     0544  2D46               	goto	u5670
  6151     0545                     u5671:
  6152     0545  2D5B               	goto	l5772
  6153     0546                     u5670:
  6154     0546                     l5768:
  6155                           
  6156                           ;main.c: 962:                 if(!flag_CL1)
  6157     0546  086E               	movf	_flag_CL1,w	;volatile
  6158     0547  1D03               	btfss	3,2
  6159     0548  2D4A               	goto	u5681
  6160     0549  2D4B               	goto	u5680
  6161     054A                     u5681:
  6162     054A  2D5B               	goto	l5772
  6163     054B                     u5680:
  6164     054B                     l5770:
  6165                           
  6166                           ;main.c: 963:                 {;main.c: 964:                     buffer[0]='C';
  6167     054B  3043               	movlw	67
  6168     054C  00AA               	movwf	relay_to_on_msg@buffer
  6169                           
  6170                           ;main.c: 965:                     buffer[1]='L';
  6171     054D  304C               	movlw	76
  6172     054E  00AB               	movwf	relay_to_on_msg@buffer+1
  6173                           
  6174                           ;main.c: 966:                     buffer[2]='1';
  6175     054F  3031               	movlw	49
  6176     0550  00AC               	movwf	relay_to_on_msg@buffer+2
  6177                           
  6178                           ;main.c: 967:                     buffer[3]= ' ';
  6179     0551  3020               	movlw	32
  6180     0552  00AD               	movwf	relay_to_on_msg@buffer+3
  6181                           
  6182                           ;main.c: 968:                     buffer[4]= 'O';
  6183     0553  304F               	movlw	79
  6184     0554  00AE               	movwf	relay_to_on_msg@buffer+4
  6185                           
  6186                           ;main.c: 969:                     buffer[5]= 'n';
  6187     0555  306E               	movlw	110
  6188     0556  00AF               	movwf	relay_to_on_msg@buffer+5
  6189                           
  6190                           ;main.c: 970:                     buffer[6]= '\n';
  6191     0557  300A               	movlw	10
  6192     0558  00B0               	movwf	relay_to_on_msg@buffer+6
  6193                           
  6194                           ;main.c: 971:                     buffer[7]= '\r';
  6195     0559  300D               	movlw	13
  6196     055A  00B1               	movwf	relay_to_on_msg@buffer+7
  6197     055B                     l5772:
  6198                           
  6199                           ;main.c: 973:             if(L == 1)
  6200     055B  0326               	decf	relay_to_on_msg@L,w
  6201     055C  1D03               	btfss	3,2
  6202     055D  2D5F               	goto	u5691
  6203     055E  2D60               	goto	u5690
  6204     055F                     u5691:
  6205     055F  2D75               	goto	l5778
  6206     0560                     u5690:
  6207     0560                     l5774:
  6208                           
  6209                           ;main.c: 974:                 if(!flag_CL2)
  6210     0560  087A               	movf	_flag_CL2,w	;volatile
  6211     0561  1D03               	btfss	3,2
  6212     0562  2D64               	goto	u5701
  6213     0563  2D65               	goto	u5700
  6214     0564                     u5701:
  6215     0564  2D75               	goto	l5778
  6216     0565                     u5700:
  6217     0565                     l5776:
  6218                           
  6219                           ;main.c: 975:                 {;main.c: 976:                     buffer[0]='C';
  6220     0565  3043               	movlw	67
  6221     0566  00AA               	movwf	relay_to_on_msg@buffer
  6222                           
  6223                           ;main.c: 977:                     buffer[1]='L';
  6224     0567  304C               	movlw	76
  6225     0568  00AB               	movwf	relay_to_on_msg@buffer+1
  6226                           
  6227                           ;main.c: 978:                     buffer[2]='2';
  6228     0569  3032               	movlw	50
  6229     056A  00AC               	movwf	relay_to_on_msg@buffer+2
  6230                           
  6231                           ;main.c: 979:                     buffer[3]= ' ';
  6232     056B  3020               	movlw	32
  6233     056C  00AD               	movwf	relay_to_on_msg@buffer+3
  6234                           
  6235                           ;main.c: 980:                     buffer[4]= 'O';
  6236     056D  304F               	movlw	79
  6237     056E  00AE               	movwf	relay_to_on_msg@buffer+4
  6238                           
  6239                           ;main.c: 981:                     buffer[5]= 'n';
  6240     056F  306E               	movlw	110
  6241     0570  00AF               	movwf	relay_to_on_msg@buffer+5
  6242                           
  6243                           ;main.c: 982:                     buffer[6]= '\n';
  6244     0571  300A               	movlw	10
  6245     0572  00B0               	movwf	relay_to_on_msg@buffer+6
  6246                           
  6247                           ;main.c: 983:                     buffer[7]= '\r';
  6248     0573  300D               	movlw	13
  6249     0574  00B1               	movwf	relay_to_on_msg@buffer+7
  6250     0575                     l5778:
  6251                           
  6252                           ;main.c: 985:             if(L == 2)
  6253     0575  3002               	movlw	2
  6254     0576  0626               	xorwf	relay_to_on_msg@L,w
  6255     0577  1D03               	btfss	3,2
  6256     0578  2D7A               	goto	u5711
  6257     0579  2D7B               	goto	u5710
  6258     057A                     u5711:
  6259     057A  2E40               	goto	l5814
  6260     057B                     u5710:
  6261     057B                     l5780:
  6262                           
  6263                           ;main.c: 986:                 if(!flag_CL3)
  6264     057B  087B               	movf	_flag_CL3,w	;volatile
  6265     057C  1D03               	btfss	3,2
  6266     057D  2D7F               	goto	u5721
  6267     057E  2D80               	goto	u5720
  6268     057F                     u5721:
  6269     057F  2E40               	goto	l5814
  6270     0580                     u5720:
  6271     0580                     l5782:
  6272                           
  6273                           ;main.c: 987:                 {;main.c: 988:                     buffer[0]='C';
  6274     0580  3043               	movlw	67
  6275     0581  00AA               	movwf	relay_to_on_msg@buffer
  6276                           
  6277                           ;main.c: 989:                     buffer[1]='L';
  6278     0582  304C               	movlw	76
  6279     0583  00AB               	movwf	relay_to_on_msg@buffer+1
  6280                           
  6281                           ;main.c: 990:                     buffer[2]='3';
  6282     0584  3033               	movlw	51
  6283     0585  00AC               	movwf	relay_to_on_msg@buffer+2
  6284                           
  6285                           ;main.c: 991:                     buffer[3]= ' ';
  6286     0586  3020               	movlw	32
  6287     0587  00AD               	movwf	relay_to_on_msg@buffer+3
  6288                           
  6289                           ;main.c: 992:                     buffer[4]= 'O';
  6290     0588  304F               	movlw	79
  6291     0589  00AE               	movwf	relay_to_on_msg@buffer+4
  6292                           
  6293                           ;main.c: 993:                     buffer[5]= 'n';
  6294     058A  306E               	movlw	110
  6295     058B  00AF               	movwf	relay_to_on_msg@buffer+5
  6296                           
  6297                           ;main.c: 994:                     buffer[6]= '\n';
  6298     058C  300A               	movlw	10
  6299     058D  00B0               	movwf	relay_to_on_msg@buffer+6
  6300                           
  6301                           ;main.c: 995:                     buffer[7]= '\r';
  6302     058E  300D               	movlw	13
  6303     058F  00B1               	movwf	relay_to_on_msg@buffer+7
  6304     0590  2E40               	goto	l5814
  6305     0591                     l5784:
  6306                           
  6307                           ;main.c: 999:             if(L == 0)
  6308     0591  0826               	movf	relay_to_on_msg@L,w
  6309     0592  1D03               	btfss	3,2
  6310     0593  2D95               	goto	u5731
  6311     0594  2D96               	goto	u5730
  6312     0595                     u5731:
  6313     0595  2DA6               	goto	l5788
  6314     0596                     u5730:
  6315     0596                     l5786:
  6316                           
  6317                           ;main.c: 1000:                 {;main.c: 1001:                     buffer[0]='S';
  6318     0596  3053               	movlw	83
  6319     0597  00AA               	movwf	relay_to_on_msg@buffer
  6320                           
  6321                           ;main.c: 1002:                     buffer[1]='L';
  6322     0598  304C               	movlw	76
  6323     0599  00AB               	movwf	relay_to_on_msg@buffer+1
  6324                           
  6325                           ;main.c: 1003:                     buffer[2]='1';
  6326     059A  3031               	movlw	49
  6327     059B  00AC               	movwf	relay_to_on_msg@buffer+2
  6328                           
  6329                           ;main.c: 1004:                     buffer[3]= ' ';
  6330     059C  3020               	movlw	32
  6331     059D  00AD               	movwf	relay_to_on_msg@buffer+3
  6332                           
  6333                           ;main.c: 1005:                     buffer[4]= 'O';
  6334     059E  304F               	movlw	79
  6335     059F  00AE               	movwf	relay_to_on_msg@buffer+4
  6336                           
  6337                           ;main.c: 1006:                     buffer[5]= 'n';
  6338     05A0  306E               	movlw	110
  6339     05A1  00AF               	movwf	relay_to_on_msg@buffer+5
  6340                           
  6341                           ;main.c: 1007:                     buffer[6]= '\n';
  6342     05A2  300A               	movlw	10
  6343     05A3  00B0               	movwf	relay_to_on_msg@buffer+6
  6344                           
  6345                           ;main.c: 1008:                     buffer[7]= '\r';
  6346     05A4  300D               	movlw	13
  6347     05A5  00B1               	movwf	relay_to_on_msg@buffer+7
  6348     05A6                     l5788:
  6349                           
  6350                           ;main.c: 1010:             if(L == 1)
  6351     05A6  0326               	decf	relay_to_on_msg@L,w
  6352     05A7  1D03               	btfss	3,2
  6353     05A8  2DAA               	goto	u5741
  6354     05A9  2DAB               	goto	u5740
  6355     05AA                     u5741:
  6356     05AA  2DBB               	goto	l5792
  6357     05AB                     u5740:
  6358     05AB                     l5790:
  6359                           
  6360                           ;main.c: 1011:                 {;main.c: 1012:                     buffer[0]='S';
  6361     05AB  3053               	movlw	83
  6362     05AC  00AA               	movwf	relay_to_on_msg@buffer
  6363                           
  6364                           ;main.c: 1013:                     buffer[1]='L';
  6365     05AD  304C               	movlw	76
  6366     05AE  00AB               	movwf	relay_to_on_msg@buffer+1
  6367                           
  6368                           ;main.c: 1014:                     buffer[2]='2';
  6369     05AF  3032               	movlw	50
  6370     05B0  00AC               	movwf	relay_to_on_msg@buffer+2
  6371                           
  6372                           ;main.c: 1015:                     buffer[3]= ' ';
  6373     05B1  3020               	movlw	32
  6374     05B2  00AD               	movwf	relay_to_on_msg@buffer+3
  6375                           
  6376                           ;main.c: 1016:                     buffer[4]= 'O';
  6377     05B3  304F               	movlw	79
  6378     05B4  00AE               	movwf	relay_to_on_msg@buffer+4
  6379                           
  6380                           ;main.c: 1017:                     buffer[5]= 'n';
  6381     05B5  306E               	movlw	110
  6382     05B6  00AF               	movwf	relay_to_on_msg@buffer+5
  6383                           
  6384                           ;main.c: 1018:                     buffer[6]= '\n';
  6385     05B7  300A               	movlw	10
  6386     05B8  00B0               	movwf	relay_to_on_msg@buffer+6
  6387                           
  6388                           ;main.c: 1019:                     buffer[7]= '\r';
  6389     05B9  300D               	movlw	13
  6390     05BA  00B1               	movwf	relay_to_on_msg@buffer+7
  6391     05BB                     l5792:
  6392                           
  6393                           ;main.c: 1021:             if(L == 2)
  6394     05BB  3002               	movlw	2
  6395     05BC  0626               	xorwf	relay_to_on_msg@L,w
  6396     05BD  1D03               	btfss	3,2
  6397     05BE  2DC0               	goto	u5751
  6398     05BF  2DC1               	goto	u5750
  6399     05C0                     u5751:
  6400     05C0  2E40               	goto	l5814
  6401     05C1                     u5750:
  6402     05C1                     l5794:
  6403                           
  6404                           ;main.c: 1022:                 {;main.c: 1023:                     buffer[0]='S';
  6405     05C1  3053               	movlw	83
  6406     05C2  00AA               	movwf	relay_to_on_msg@buffer
  6407                           
  6408                           ;main.c: 1024:                     buffer[1]='L';
  6409     05C3  304C               	movlw	76
  6410     05C4  00AB               	movwf	relay_to_on_msg@buffer+1
  6411                           
  6412                           ;main.c: 1025:                     buffer[2]='3';
  6413     05C5  3033               	movlw	51
  6414     05C6  00AC               	movwf	relay_to_on_msg@buffer+2
  6415                           
  6416                           ;main.c: 1026:                     buffer[3]= ' ';
  6417     05C7  3020               	movlw	32
  6418     05C8  00AD               	movwf	relay_to_on_msg@buffer+3
  6419                           
  6420                           ;main.c: 1027:                     buffer[4]= 'O';
  6421     05C9  304F               	movlw	79
  6422     05CA  00AE               	movwf	relay_to_on_msg@buffer+4
  6423                           
  6424                           ;main.c: 1028:                     buffer[5]= 'n';
  6425     05CB  306E               	movlw	110
  6426     05CC  00AF               	movwf	relay_to_on_msg@buffer+5
  6427                           
  6428                           ;main.c: 1029:                     buffer[6]= '\n';
  6429     05CD  300A               	movlw	10
  6430     05CE  00B0               	movwf	relay_to_on_msg@buffer+6
  6431                           
  6432                           ;main.c: 1030:                     buffer[7]= '\r';
  6433     05CF  300D               	movlw	13
  6434     05D0  00B1               	movwf	relay_to_on_msg@buffer+7
  6435     05D1  2E40               	goto	l5814
  6436     05D2                     l5796:
  6437                           
  6438                           ;main.c: 1034:             if(L == 0)
  6439     05D2  0826               	movf	relay_to_on_msg@L,w
  6440     05D3  1D03               	btfss	3,2
  6441     05D4  2DD6               	goto	u5761
  6442     05D5  2DD7               	goto	u5760
  6443     05D6                     u5761:
  6444     05D6  2DE7               	goto	l5800
  6445     05D7                     u5760:
  6446     05D7                     l5798:
  6447                           
  6448                           ;main.c: 1035:                 {;main.c: 1036:                     buffer[0]='T';
  6449     05D7  3054               	movlw	84
  6450     05D8  00AA               	movwf	relay_to_on_msg@buffer
  6451                           
  6452                           ;main.c: 1037:                     buffer[1]='L';
  6453     05D9  304C               	movlw	76
  6454     05DA  00AB               	movwf	relay_to_on_msg@buffer+1
  6455                           
  6456                           ;main.c: 1038:                     buffer[2]='1';
  6457     05DB  3031               	movlw	49
  6458     05DC  00AC               	movwf	relay_to_on_msg@buffer+2
  6459                           
  6460                           ;main.c: 1039:                     buffer[3]= ' ';
  6461     05DD  3020               	movlw	32
  6462     05DE  00AD               	movwf	relay_to_on_msg@buffer+3
  6463                           
  6464                           ;main.c: 1040:                     buffer[4]= 'O';
  6465     05DF  304F               	movlw	79
  6466     05E0  00AE               	movwf	relay_to_on_msg@buffer+4
  6467                           
  6468                           ;main.c: 1041:                     buffer[5]= 'n';
  6469     05E1  306E               	movlw	110
  6470     05E2  00AF               	movwf	relay_to_on_msg@buffer+5
  6471                           
  6472                           ;main.c: 1042:                     buffer[6]= '\n';
  6473     05E3  300A               	movlw	10
  6474     05E4  00B0               	movwf	relay_to_on_msg@buffer+6
  6475                           
  6476                           ;main.c: 1043:                     buffer[7]= '\r';
  6477     05E5  300D               	movlw	13
  6478     05E6  00B1               	movwf	relay_to_on_msg@buffer+7
  6479     05E7                     l5800:
  6480                           
  6481                           ;main.c: 1045:             if(L == 1)
  6482     05E7  0326               	decf	relay_to_on_msg@L,w
  6483     05E8  1D03               	btfss	3,2
  6484     05E9  2DEB               	goto	u5771
  6485     05EA  2DEC               	goto	u5770
  6486     05EB                     u5771:
  6487     05EB  2DFC               	goto	l5804
  6488     05EC                     u5770:
  6489     05EC                     l5802:
  6490                           
  6491                           ;main.c: 1046:                 {;main.c: 1047:                     buffer[0]='T';
  6492     05EC  3054               	movlw	84
  6493     05ED  00AA               	movwf	relay_to_on_msg@buffer
  6494                           
  6495                           ;main.c: 1048:                     buffer[1]='L';
  6496     05EE  304C               	movlw	76
  6497     05EF  00AB               	movwf	relay_to_on_msg@buffer+1
  6498                           
  6499                           ;main.c: 1049:                     buffer[2]='2';
  6500     05F0  3032               	movlw	50
  6501     05F1  00AC               	movwf	relay_to_on_msg@buffer+2
  6502                           
  6503                           ;main.c: 1050:                     buffer[3]= ' ';
  6504     05F2  3020               	movlw	32
  6505     05F3  00AD               	movwf	relay_to_on_msg@buffer+3
  6506                           
  6507                           ;main.c: 1051:                     buffer[4]= 'O';
  6508     05F4  304F               	movlw	79
  6509     05F5  00AE               	movwf	relay_to_on_msg@buffer+4
  6510                           
  6511                           ;main.c: 1052:                     buffer[5]= 'n';
  6512     05F6  306E               	movlw	110
  6513     05F7  00AF               	movwf	relay_to_on_msg@buffer+5
  6514                           
  6515                           ;main.c: 1053:                     buffer[6]= '\n';
  6516     05F8  300A               	movlw	10
  6517     05F9  00B0               	movwf	relay_to_on_msg@buffer+6
  6518                           
  6519                           ;main.c: 1054:                     buffer[7]= '\r';
  6520     05FA  300D               	movlw	13
  6521     05FB  00B1               	movwf	relay_to_on_msg@buffer+7
  6522     05FC                     l5804:
  6523                           
  6524                           ;main.c: 1056:             if(L == 2)
  6525     05FC  3002               	movlw	2
  6526     05FD  0626               	xorwf	relay_to_on_msg@L,w
  6527     05FE  1D03               	btfss	3,2
  6528     05FF  2E01               	goto	u5781
  6529     0600  2E02               	goto	u5780
  6530     0601                     u5781:
  6531     0601  2E40               	goto	l5814
  6532     0602                     u5780:
  6533     0602                     l5806:
  6534                           
  6535                           ;main.c: 1057:                 {;main.c: 1058:                     buffer[0]='T';
  6536     0602  3054               	movlw	84
  6537     0603  00AA               	movwf	relay_to_on_msg@buffer
  6538                           
  6539                           ;main.c: 1059:                     buffer[1]='L';
  6540     0604  304C               	movlw	76
  6541     0605  00AB               	movwf	relay_to_on_msg@buffer+1
  6542                           
  6543                           ;main.c: 1060:                     buffer[2]='3';
  6544     0606  3033               	movlw	51
  6545     0607  00AC               	movwf	relay_to_on_msg@buffer+2
  6546                           
  6547                           ;main.c: 1061:                     buffer[3]= ' ';
  6548     0608  3020               	movlw	32
  6549     0609  00AD               	movwf	relay_to_on_msg@buffer+3
  6550                           
  6551                           ;main.c: 1062:                     buffer[4]= 'O';
  6552     060A  304F               	movlw	79
  6553     060B  00AE               	movwf	relay_to_on_msg@buffer+4
  6554                           
  6555                           ;main.c: 1063:                     buffer[5]= 'n';
  6556     060C  306E               	movlw	110
  6557     060D  00AF               	movwf	relay_to_on_msg@buffer+5
  6558                           
  6559                           ;main.c: 1064:                     buffer[6]= '\n';
  6560     060E  300A               	movlw	10
  6561     060F  00B0               	movwf	relay_to_on_msg@buffer+6
  6562                           
  6563                           ;main.c: 1065:                     buffer[7]= '\r';
  6564     0610  300D               	movlw	13
  6565     0611  00B1               	movwf	relay_to_on_msg@buffer+7
  6566     0612  2E40               	goto	l5814
  6567     0613                     l5808:
  6568                           
  6569                           ;main.c: 1069:                 {;main.c: 1070:                     buffer[0]='S';
  6570     0613  3053               	movlw	83
  6571     0614  00AA               	movwf	relay_to_on_msg@buffer
  6572                           
  6573                           ;main.c: 1071:                     buffer[1]='P';
  6574     0615  3050               	movlw	80
  6575     0616  00AB               	movwf	relay_to_on_msg@buffer+1
  6576                           
  6577                           ;main.c: 1072:                     buffer[2]='1';
  6578     0617  3031               	movlw	49
  6579     0618  00AC               	movwf	relay_to_on_msg@buffer+2
  6580                           
  6581                           ;main.c: 1073:                     buffer[3]= ' ';
  6582     0619  3020               	movlw	32
  6583     061A  00AD               	movwf	relay_to_on_msg@buffer+3
  6584                           
  6585                           ;main.c: 1074:                     buffer[4]= 'O';
  6586     061B  304F               	movlw	79
  6587     061C  00AE               	movwf	relay_to_on_msg@buffer+4
  6588                           
  6589                           ;main.c: 1075:                     buffer[5]= 'f';
  6590     061D  3066               	movlw	102
  6591     061E  00AF               	movwf	relay_to_on_msg@buffer+5
  6592                           
  6593                           ;main.c: 1076:                     buffer[6]= '\n';
  6594     061F  300A               	movlw	10
  6595     0620  00B0               	movwf	relay_to_on_msg@buffer+6
  6596                           
  6597                           ;main.c: 1077:                     buffer[7]= '\r';
  6598     0621  300D               	movlw	13
  6599     0622  00B1               	movwf	relay_to_on_msg@buffer+7
  6600                           
  6601                           ;main.c: 1078:                 };main.c: 1079:             break;
  6602     0623  2E40               	goto	l5814
  6603     0624                     l5812:
  6604     0624  0829               	movf	relay_to_on_msg@phase,w
  6605     0625  00A7               	movwf	??_relay_to_on_msg
  6606     0626  01A8               	clrf	??_relay_to_on_msg+1
  6607                           
  6608                           ; Switch on 2 bytes has been partitioned into a top level switch of size 1, and 1 sub-sw
      +                          itches
  6609                           ; Switch size 1, requested type "simple"
  6610                           ; Number of cases is 1, Range of values is 0 to 0
  6611                           ; switch strategies available:
  6612                           ; Name         Instructions Cycles
  6613                           ; simple_byte            4     3 (average)
  6614                           ; direct_byte            8     6 (fixed)
  6615                           ; jumptable            260     6 (fixed)
  6616                           ;	Chosen strategy is simple_byte
  6617     0627  0828               	movf	??_relay_to_on_msg+1,w
  6618     0628  3A00               	xorlw	0	; case 0
  6619     0629  1903               	skipnz
  6620     062A  2E2C               	goto	l6452
  6621     062B  2E13               	goto	l5808
  6622     062C                     l6452:
  6623                           
  6624                           ; Switch size 1, requested type "simple"
  6625                           ; Number of cases is 6, Range of values is 0 to 5
  6626                           ; switch strategies available:
  6627                           ; Name         Instructions Cycles
  6628                           ; direct_byte           18     6 (fixed)
  6629                           ; simple_byte           19    10 (average)
  6630                           ; jumptable            260     6 (fixed)
  6631                           ;	Chosen strategy is simple_byte
  6632     062C  0827               	movf	??_relay_to_on_msg,w
  6633     062D  3A00               	xorlw	0	; case 0
  6634     062E  1903               	skipnz
  6635     062F  2D41               	goto	l5766
  6636     0630  3A01               	xorlw	1	; case 1
  6637     0631  1903               	skipnz
  6638     0632  2D91               	goto	l5784
  6639     0633  3A03               	xorlw	3	; case 2
  6640     0634  1903               	skipnz
  6641     0635  2DD2               	goto	l5796
  6642     0636  3A01               	xorlw	1	; case 3
  6643     0637  1903               	skipnz
  6644     0638  2D41               	goto	l704
  6645     0639  3A07               	xorlw	7	; case 4
  6646     063A  1903               	skipnz
  6647     063B  2D41               	goto	l5766
  6648     063C  3A01               	xorlw	1	; case 5
  6649     063D  1903               	skipnz
  6650     063E  2D41               	goto	l5766
  6651     063F  2E13               	goto	l5808
  6652     0640                     l5814:
  6653                           
  6654                           ;main.c: 1081:     push_string_buffer(buffer,8);
  6655     0640  3008               	movlw	8
  6656     0641  00A0               	movwf	push_string_buffer@len
  6657     0642  3000               	movlw	0
  6658     0643  00A1               	movwf	push_string_buffer@len+1
  6659     0644  302A               	movlw	(low (relay_to_on_msg@buffer| 0))& (0+255)
  6660     0645  3197  27AC  3185   	fcall	_push_string_buffer
  6661     0648                     l722:
  6662     0648  0008               	return
  6663     0649                     __end_of_relay_to_on_msg:
  6664                           
  6665                           	psect	text4
  6666     0CA2                     __ptext4:	
  6667 ;; *************** function _relay_to_on *****************
  6668 ;; Defined at:
  6669 ;;		line 605 in file "main.c"
  6670 ;; Parameters:    Size  Location     Type
  6671 ;;  phase           1    wreg     unsigned char 
  6672 ;;  L               1    2[COMMON] unsigned char 
  6673 ;;  OnOf            1    3[COMMON] _Bool 
  6674 ;; Auto vars:     Size  Location     Type
  6675 ;;  phase           1    6[COMMON] unsigned char 
  6676 ;; Return value:  Size  Location     Type
  6677 ;;                  1    wreg      void 
  6678 ;; Registers used:
  6679 ;;		wreg, fsr0l, fsr0h, status,2, status,0
  6680 ;; Tracked objects:
  6681 ;;		On entry : 0/0
  6682 ;;		On exit  : 0/0
  6683 ;;		Unchanged: 0/0
  6684 ;; Data sizes:     COMMON   BANK0   BANK1   BANK2   BANK3   BANK4   BANK5   BANK6   BANK7   BANK8   BANK9  BANK10  BANK1
      +1  BANK12  BANK13  BANK14  BANK15  BANK16  BANK17  BANK18  BANK19  BANK20  BANK21  BANK22  BANK23  BANK24  BANK25
  6685 ;;      Params:         2       0       0       0       0       0       0       0       0       0       0       0       
      +0       0       0       0       0       0       0       0       0       0       0       0       0       0       0
  6686 ;;      Locals:         1       0       0       0       0       0       0       0       0       0       0       0       
      +0       0       0       0       0       0       0       0       0       0       0       0       0       0       0
  6687 ;;      Temps:          2       0       0       0       0       0       0       0       0       0       0       0       
      +0       0       0       0       0       0       0       0       0       0       0       0       0       0       0
  6688 ;;      Totals:         5       0       0       0       0       0       0       0       0       0       0       0       
      +0       0       0       0       0       0       0       0       0       0       0       0       0       0       0
  6689 ;;Total ram usage:        5 bytes
  6690 ;; Hardware stack levels used: 1
  6691 ;; Hardware stack levels required when called: 4
  6692 ;; This function calls:
  6693 ;;		Nothing
  6694 ;; This function is called by:
  6695 ;;		_main
  6696 ;; This function uses a non-reentrant model
  6697 ;;
  6698                           
  6699     0CA2                     _relay_to_on:	
  6700                           ;psect for function _relay_to_on
  6701                           
  6702                           
  6703                           ;incstack = 0
  6704                           ; Regs used in _relay_to_on: [wreg-fsr0h+status,2+status,0]
  6705                           ;relay_to_on@phase stored from wreg
  6706     0CA2  00F6               	movwf	relay_to_on@phase
  6707     0CA3                     l5712:
  6708                           
  6709                           ;main.c: 605: void relay_to_on(uint8_t phase,uint8_t L, _Bool OnOf);main.c: 606: {;main.
      +                          c: 607:     switch(phase)
  6710     0CA3  2D1C               	goto	l5758
  6711     0CA4                     l570:	
  6712                           ;main.c: 611:         case 5:
  6713                           
  6714     0CA4                     l5714:
  6715                           
  6716                           ;main.c: 613:             if(L == 0)
  6717     0CA4  0872               	movf	relay_to_on@L,w
  6718     0CA5  1D03               	btfss	3,2
  6719     0CA6  2CA8               	goto	u5541
  6720     0CA7  2CA9               	goto	u5540
  6721     0CA8                     u5541:
  6722     0CA8  2CB4               	goto	l5720
  6723     0CA9                     u5540:
  6724     0CA9                     l5716:
  6725                           
  6726                           ;main.c: 614:                 if(!flag_CL1)
  6727     0CA9  0140               	movlb	0	; select bank0
  6728     0CAA  086E               	movf	_flag_CL1,w	;volatile
  6729     0CAB  1D03               	btfss	3,2
  6730     0CAC  2CAE               	goto	u5551
  6731     0CAD  2CAF               	goto	u5550
  6732     0CAE                     u5551:
  6733     0CAE  2CB4               	goto	l5720
  6734     0CAF                     u5550:
  6735     0CAF                     l5718:
  6736                           
  6737                           ;main.c: 615:                     LATDbits.LATD2 = OnOf;
  6738     0CAF  0C73               	rrf	relay_to_on@OnOf,w
  6739     0CB0  1C03               	skipc
  6740     0CB1  111B               	bcf	27,2	;volatile
  6741     0CB2  1803               	skipnc
  6742     0CB3  151B               	bsf	27,2	;volatile
  6743     0CB4                     l5720:
  6744                           
  6745                           ;main.c: 616:             if(L == 1)
  6746     0CB4  0372               	decf	relay_to_on@L,w
  6747     0CB5  1D03               	btfss	3,2
  6748     0CB6  2CB8               	goto	u5561
  6749     0CB7  2CB9               	goto	u5560
  6750     0CB8                     u5561:
  6751     0CB8  2CC4               	goto	l5726
  6752     0CB9                     u5560:
  6753     0CB9                     l5722:
  6754                           
  6755                           ;main.c: 617:                 if(!flag_CL2)
  6756     0CB9  087A               	movf	_flag_CL2,w	;volatile
  6757     0CBA  1D03               	btfss	3,2
  6758     0CBB  2CBD               	goto	u5571
  6759     0CBC  2CBE               	goto	u5570
  6760     0CBD                     u5571:
  6761     0CBD  2CC4               	goto	l5726
  6762     0CBE                     u5570:
  6763     0CBE                     l5724:
  6764                           
  6765                           ;main.c: 618:                     LATCbits.LATC2 = OnOf;
  6766     0CBE  0C73               	rrf	relay_to_on@OnOf,w
  6767     0CBF  0140               	movlb	0	; select bank0
  6768     0CC0  1C03               	skipc
  6769     0CC1  111A               	bcf	26,2	;volatile
  6770     0CC2  1803               	skipnc
  6771     0CC3  151A               	bsf	26,2	;volatile
  6772     0CC4                     l5726:
  6773                           
  6774                           ;main.c: 619:             if(L == 2)
  6775     0CC4  3002               	movlw	2
  6776     0CC5  0672               	xorwf	relay_to_on@L,w
  6777     0CC6  1D03               	btfss	3,2
  6778     0CC7  2CC9               	goto	u5581
  6779     0CC8  2CCA               	goto	u5580
  6780     0CC9                     u5581:
  6781     0CC9  2D38               	goto	l588
  6782     0CCA                     u5580:
  6783     0CCA                     l5728:
  6784                           
  6785                           ;main.c: 620:                 if(!flag_CL3)
  6786     0CCA  087B               	movf	_flag_CL3,w	;volatile
  6787     0CCB  1D03               	btfss	3,2
  6788     0CCC  2CCE               	goto	u5591
  6789     0CCD  2CCF               	goto	u5590
  6790     0CCE                     u5591:
  6791     0CCE  2D38               	goto	l588
  6792     0CCF                     u5590:
  6793     0CCF                     l5730:
  6794                           
  6795                           ;main.c: 621:                     LATCbits.LATC0 = OnOf;
  6796     0CCF  0C73               	rrf	relay_to_on@OnOf,w
  6797     0CD0  0140               	movlb	0	; select bank0
  6798     0CD1  1C03               	skipc
  6799     0CD2  101A               	bcf	26,0	;volatile
  6800     0CD3  1803               	skipnc
  6801     0CD4  141A               	bsf	26,0	;volatile
  6802     0CD5  2D38               	goto	l588
  6803     0CD6                     l5732:
  6804                           
  6805                           ;main.c: 624:             if(L == 0)
  6806     0CD6  0872               	movf	relay_to_on@L,w
  6807     0CD7  1D03               	btfss	3,2
  6808     0CD8  2CDA               	goto	u5601
  6809     0CD9  2CDB               	goto	u5600
  6810     0CDA                     u5601:
  6811     0CDA  2CE1               	goto	l5736
  6812     0CDB                     u5600:
  6813     0CDB                     l5734:
  6814                           
  6815                           ;main.c: 625:                 LATFbits.LATF0 = OnOf;
  6816     0CDB  0C73               	rrf	relay_to_on@OnOf,w
  6817     0CDC  0140               	movlb	0	; select bank0
  6818     0CDD  1C03               	skipc
  6819     0CDE  101D               	bcf	29,0	;volatile
  6820     0CDF  1803               	skipnc
  6821     0CE0  141D               	bsf	29,0	;volatile
  6822     0CE1                     l5736:
  6823                           
  6824                           ;main.c: 626:             if(L == 1)
  6825     0CE1  0372               	decf	relay_to_on@L,w
  6826     0CE2  1D03               	btfss	3,2
  6827     0CE3  2CE5               	goto	u5611
  6828     0CE4  2CE6               	goto	u5610
  6829     0CE5                     u5611:
  6830     0CE5  2CEC               	goto	l5740
  6831     0CE6                     u5610:
  6832     0CE6                     l5738:
  6833                           
  6834                           ;main.c: 627:                 LATCbits.LATC6 = OnOf;
  6835     0CE6  0C73               	rrf	relay_to_on@OnOf,w
  6836     0CE7  0140               	movlb	0	; select bank0
  6837     0CE8  1C03               	skipc
  6838     0CE9  131A               	bcf	26,6	;volatile
  6839     0CEA  1803               	skipnc
  6840     0CEB  171A               	bsf	26,6	;volatile
  6841     0CEC                     l5740:
  6842                           
  6843                           ;main.c: 628:             if(L == 2)
  6844     0CEC  3002               	movlw	2
  6845     0CED  0672               	xorwf	relay_to_on@L,w
  6846     0CEE  1D03               	btfss	3,2
  6847     0CEF  2CF1               	goto	u5621
  6848     0CF0  2CF2               	goto	u5620
  6849     0CF1                     u5621:
  6850     0CF1  2D38               	goto	l588
  6851     0CF2                     u5620:
  6852     0CF2                     l5742:
  6853                           
  6854                           ;main.c: 629:                 LATBbits.LATB0 = OnOf;
  6855     0CF2  0C73               	rrf	relay_to_on@OnOf,w
  6856     0CF3  0140               	movlb	0	; select bank0
  6857     0CF4  1C03               	skipc
  6858     0CF5  1019               	bcf	25,0	;volatile
  6859     0CF6  1803               	skipnc
  6860     0CF7  1419               	bsf	25,0	;volatile
  6861     0CF8  2D38               	goto	l588
  6862     0CF9                     l5744:
  6863                           
  6864                           ;main.c: 632:             if(L == 0)
  6865     0CF9  0872               	movf	relay_to_on@L,w
  6866     0CFA  1D03               	btfss	3,2
  6867     0CFB  2CFD               	goto	u5631
  6868     0CFC  2CFE               	goto	u5630
  6869     0CFD                     u5631:
  6870     0CFD  2D04               	goto	l5748
  6871     0CFE                     u5630:
  6872     0CFE                     l5746:
  6873                           
  6874                           ;main.c: 633:                 LATFbits.LATF2 = OnOf;
  6875     0CFE  0C73               	rrf	relay_to_on@OnOf,w
  6876     0CFF  0140               	movlb	0	; select bank0
  6877     0D00  1C03               	skipc
  6878     0D01  111D               	bcf	29,2	;volatile
  6879     0D02  1803               	skipnc
  6880     0D03  151D               	bsf	29,2	;volatile
  6881     0D04                     l5748:
  6882                           
  6883                           ;main.c: 634:             if(L == 1)
  6884     0D04  0372               	decf	relay_to_on@L,w
  6885     0D05  1D03               	btfss	3,2
  6886     0D06  2D08               	goto	u5641
  6887     0D07  2D09               	goto	u5640
  6888     0D08                     u5641:
  6889     0D08  2D0F               	goto	l5752
  6890     0D09                     u5640:
  6891     0D09                     l5750:
  6892                           
  6893                           ;main.c: 635:                 LATDbits.LATD4 = OnOf;
  6894     0D09  0C73               	rrf	relay_to_on@OnOf,w
  6895     0D0A  0140               	movlb	0	; select bank0
  6896     0D0B  1C03               	skipc
  6897     0D0C  121B               	bcf	27,4	;volatile
  6898     0D0D  1803               	skipnc
  6899     0D0E  161B               	bsf	27,4	;volatile
  6900     0D0F                     l5752:
  6901                           
  6902                           ;main.c: 636:             if(L == 2)
  6903     0D0F  3002               	movlw	2
  6904     0D10  0672               	xorwf	relay_to_on@L,w
  6905     0D11  1D03               	btfss	3,2
  6906     0D12  2D14               	goto	u5651
  6907     0D13  2D15               	goto	u5650
  6908     0D14                     u5651:
  6909     0D14  2D38               	goto	l588
  6910     0D15                     u5650:
  6911     0D15                     l5754:
  6912                           
  6913                           ;main.c: 637:                 LATBbits.LATB2 = OnOf;
  6914     0D15  0C73               	rrf	relay_to_on@OnOf,w
  6915     0D16  0140               	movlb	0	; select bank0
  6916     0D17  1C03               	skipc
  6917     0D18  1119               	bcf	25,2	;volatile
  6918     0D19  1803               	skipnc
  6919     0D1A  1519               	bsf	25,2	;volatile
  6920     0D1B  2D38               	goto	l588
  6921     0D1C                     l5758:
  6922     0D1C  0876               	movf	relay_to_on@phase,w
  6923     0D1D  00F4               	movwf	??_relay_to_on
  6924     0D1E  01F5               	clrf	??_relay_to_on+1
  6925                           
  6926                           ; Switch on 2 bytes has been partitioned into a top level switch of size 1, and 1 sub-sw
      +                          itches
  6927                           ; Switch size 1, requested type "simple"
  6928                           ; Number of cases is 1, Range of values is 0 to 0
  6929                           ; switch strategies available:
  6930                           ; Name         Instructions Cycles
  6931                           ; simple_byte            4     3 (average)
  6932                           ; direct_byte            8     6 (fixed)
  6933                           ; jumptable            260     6 (fixed)
  6934                           ;	Chosen strategy is simple_byte
  6935     0D1F  0875               	movf	??_relay_to_on+1,w
  6936     0D20  3A00               	xorlw	0	; case 0
  6937     0D21  1903               	skipnz
  6938     0D22  2D24               	goto	l6454
  6939     0D23  2D38               	goto	l588
  6940     0D24                     l6454:
  6941                           
  6942                           ; Switch size 1, requested type "simple"
  6943                           ; Number of cases is 6, Range of values is 0 to 5
  6944                           ; switch strategies available:
  6945                           ; Name         Instructions Cycles
  6946                           ; direct_byte           18     6 (fixed)
  6947                           ; simple_byte           19    10 (average)
  6948                           ; jumptable            260     6 (fixed)
  6949                           ;	Chosen strategy is simple_byte
  6950     0D24  0874               	movf	??_relay_to_on,w
  6951     0D25  3A00               	xorlw	0	; case 0
  6952     0D26  1903               	skipnz
  6953     0D27  2CA4               	goto	l5714
  6954     0D28  3A01               	xorlw	1	; case 1
  6955     0D29  1903               	skipnz
  6956     0D2A  2CD6               	goto	l5732
  6957     0D2B  3A03               	xorlw	3	; case 2
  6958     0D2C  1903               	skipnz
  6959     0D2D  2CF9               	goto	l5744
  6960     0D2E  3A01               	xorlw	1	; case 3
  6961     0D2F  1903               	skipnz
  6962     0D30  2CA4               	goto	l570
  6963     0D31  3A07               	xorlw	7	; case 4
  6964     0D32  1903               	skipnz
  6965     0D33  2CA4               	goto	l5714
  6966     0D34  3A01               	xorlw	1	; case 5
  6967     0D35  1903               	skipnz
  6968     0D36  2CA4               	goto	l5714
  6969     0D37  2D38               	goto	l588
  6970     0D38                     l588:
  6971     0D38  0008               	return
  6972     0D39                     __end_of_relay_to_on:
  6973                           
  6974                           	psect	text5
  6975     0AEC                     __ptext5:	
  6976 ;; *************** function _relay_to_off_step1_msg *****************
  6977 ;; Defined at:
  6978 ;;		line 893 in file "main.c"
  6979 ;; Parameters:    Size  Location     Type
  6980 ;;  phase           1    wreg     unsigned char 
  6981 ;; Auto vars:     Size  Location     Type
  6982 ;;  phase           1   58[BANK0 ] unsigned char 
  6983 ;;  buffer         50    8[BANK0 ] unsigned char [50]
  6984 ;; Return value:  Size  Location     Type
  6985 ;;                  1    wreg      void 
  6986 ;; Registers used:
  6987 ;;		wreg, fsr0l, fsr0h, fsr1l, fsr1h, status,2, status,0, pclath, cstack
  6988 ;; Tracked objects:
  6989 ;;		On entry : 0/0
  6990 ;;		On exit  : 0/0
  6991 ;;		Unchanged: 0/0
  6992 ;; Data sizes:     COMMON   BANK0   BANK1   BANK2   BANK3   BANK4   BANK5   BANK6   BANK7   BANK8   BANK9  BANK10  BANK1
      +1  BANK12  BANK13  BANK14  BANK15  BANK16  BANK17  BANK18  BANK19  BANK20  BANK21  BANK22  BANK23  BANK24  BANK25
  6993 ;;      Params:         0       0       0       0       0       0       0       0       0       0       0       0       
      +0       0       0       0       0       0       0       0       0       0       0       0       0       0       0
  6994 ;;      Locals:         0      51       0       0       0       0       0       0       0       0       0       0       
      +0       0       0       0       0       0       0       0       0       0       0       0       0       0       0
  6995 ;;      Temps:          0       2       0       0       0       0       0       0       0       0       0       0       
      +0       0       0       0       0       0       0       0       0       0       0       0       0       0       0
  6996 ;;      Totals:         0      53       0       0       0       0       0       0       0       0       0       0       
      +0       0       0       0       0       0       0       0       0       0       0       0       0       0       0
  6997 ;;Total ram usage:       53 bytes
  6998 ;; Hardware stack levels used: 1
  6999 ;; Hardware stack levels required when called: 6
  7000 ;; This function calls:
  7001 ;;		_push_string_buffer
  7002 ;; This function is called by:
  7003 ;;		_main
  7004 ;; This function uses a non-reentrant model
  7005 ;;
  7006                           
  7007     0AEC                     _relay_to_off_step1_msg:	
  7008                           ;psect for function _relay_to_off_step1_msg
  7009                           
  7010                           
  7011                           ;incstack = 0
  7012                           ; Regs used in _relay_to_off_step1_msg: [wreg-fsr1h+status,2+status,0+pclath+cstack]
  7013                           ;relay_to_off_step1_msg@phase stored from wreg
  7014     0AEC  0140               	movlb	0	; select bank0
  7015     0AED  00DA               	movwf	relay_to_off_step1_msg@phase
  7016     0AEE                     l5662:
  7017                           
  7018                           ;main.c: 893: void relay_to_off_step1_msg(uint8_t phase);main.c: 894: {;main.c: 895:    
      +                           char buffer[50]={0};
  7019     0AEE  3028               	movlw	low relay_to_off_step1_msg@buffer
  7020     0AEF  0086               	movwf	6
  7021     0AF0  3000               	movlw	high relay_to_off_step1_msg@buffer
  7022     0AF1  0087               	movwf	7
  7023     0AF2  3032               	movlw	50
  7024     0AF3  00A6               	movwf	??_relay_to_off_step1_msg
  7025     0AF4  3000               	movlw	0
  7026     0AF5                     u5470:
  7027     0AF5  001E               	movwi fsr1++
  7028     0AF6  0BA6               	decfsz	??_relay_to_off_step1_msg,f
  7029     0AF7  2AF5               	goto	u5470
  7030                           
  7031                           ;main.c: 896:     switch(phase)
  7032     0AF8  2B57               	goto	l5684
  7033     0AF9                     l5664:
  7034                           
  7035                           ;main.c: 899:             if(flag_RC && (!flagL1OnR))
  7036     0AF9  0142               	movlb	2	; select bank2
  7037     0AFA  086F               	movf	_flag_RC^(0+256),w	;volatile
  7038     0AFB  1903               	btfsc	3,2
  7039     0AFC  2AFE               	goto	u5481
  7040     0AFD  2AFF               	goto	u5480
  7041     0AFE                     u5481:
  7042     0AFE  2B6D               	goto	l5686
  7043     0AFF                     u5480:
  7044     0AFF                     l5666:
  7045     0AFF  0143               	movlb	3	; select bank3
  7046     0B00  0865               	movf	_flagL1OnR^(0+384),w	;volatile
  7047     0B01  1D03               	btfss	3,2
  7048     0B02  2B04               	goto	u5491
  7049     0B03  2B05               	goto	u5490
  7050     0B04                     u5491:
  7051     0B04  2B6D               	goto	l5686
  7052     0B05                     u5490:
  7053     0B05                     l5668:
  7054                           
  7055                           ;main.c: 900:             {;main.c: 901:                     buffer[0]='R';
  7056     0B05  3052               	movlw	82
  7057     0B06  0140               	movlb	0	; select bank0
  7058     0B07  00A8               	movwf	relay_to_off_step1_msg@buffer
  7059                           
  7060                           ;main.c: 902:                     buffer[1]='C';
  7061     0B08  3043               	movlw	67
  7062     0B09  00A9               	movwf	relay_to_off_step1_msg@buffer+1
  7063                           
  7064                           ;main.c: 903:                     buffer[2]= ' ';
  7065     0B0A  3020               	movlw	32
  7066     0B0B  00AA               	movwf	relay_to_off_step1_msg@buffer+2
  7067                           
  7068                           ;main.c: 904:                     buffer[3]= 'O';
  7069     0B0C  304F               	movlw	79
  7070     0B0D  00AB               	movwf	relay_to_off_step1_msg@buffer+3
  7071                           
  7072                           ;main.c: 905:                     buffer[4]= 'f';
  7073     0B0E  3066               	movlw	102
  7074     0B0F  00AC               	movwf	relay_to_off_step1_msg@buffer+4
  7075                           
  7076                           ;main.c: 906:                     buffer[5]= '\n';
  7077     0B10  300A               	movlw	10
  7078     0B11  00AD               	movwf	relay_to_off_step1_msg@buffer+5
  7079                           
  7080                           ;main.c: 907:                     buffer[6]= '\r';
  7081     0B12  300D               	movlw	13
  7082     0B13  00AE               	movwf	relay_to_off_step1_msg@buffer+6
  7083     0B14  2B6D               	goto	l5686
  7084     0B15                     l5670:
  7085                           
  7086                           ;main.c: 911:             if(flag_WC)
  7087     0B15  0142               	movlb	2	; select bank2
  7088     0B16  086E               	movf	_flag_WC^(0+256),w	;volatile
  7089     0B17  1903               	btfsc	3,2
  7090     0B18  2B1A               	goto	u5501
  7091     0B19  2B1B               	goto	u5500
  7092     0B1A                     u5501:
  7093     0B1A  2B6D               	goto	l5686
  7094     0B1B                     u5500:
  7095     0B1B                     l5672:
  7096                           
  7097                           ;main.c: 912:             {;main.c: 913:                     buffer[0]='W';
  7098     0B1B  3057               	movlw	87
  7099     0B1C  0140               	movlb	0	; select bank0
  7100     0B1D  00A8               	movwf	relay_to_off_step1_msg@buffer
  7101                           
  7102                           ;main.c: 914:                     buffer[1]='C';
  7103     0B1E  3043               	movlw	67
  7104     0B1F  00A9               	movwf	relay_to_off_step1_msg@buffer+1
  7105                           
  7106                           ;main.c: 915:                     buffer[2]= ' ';
  7107     0B20  3020               	movlw	32
  7108     0B21  00AA               	movwf	relay_to_off_step1_msg@buffer+2
  7109                           
  7110                           ;main.c: 916:                     buffer[3]= 'O';
  7111     0B22  304F               	movlw	79
  7112     0B23  00AB               	movwf	relay_to_off_step1_msg@buffer+3
  7113                           
  7114                           ;main.c: 917:                     buffer[4]= 'f';
  7115     0B24  3066               	movlw	102
  7116     0B25  00AC               	movwf	relay_to_off_step1_msg@buffer+4
  7117                           
  7118                           ;main.c: 918:                     buffer[5]= '\n';
  7119     0B26  300A               	movlw	10
  7120     0B27  00AD               	movwf	relay_to_off_step1_msg@buffer+5
  7121                           
  7122                           ;main.c: 919:                     buffer[6]= '\r';
  7123     0B28  300D               	movlw	13
  7124     0B29  00AE               	movwf	relay_to_off_step1_msg@buffer+6
  7125     0B2A  2B6D               	goto	l5686
  7126     0B2B                     l5674:
  7127                           
  7128                           ;main.c: 923:             if(flag_UC)
  7129     0B2B  0142               	movlb	2	; select bank2
  7130     0B2C  086D               	movf	_flag_UC^(0+256),w	;volatile
  7131     0B2D  1903               	btfsc	3,2
  7132     0B2E  2B30               	goto	u5511
  7133     0B2F  2B31               	goto	u5510
  7134     0B30                     u5511:
  7135     0B30  2B6D               	goto	l5686
  7136     0B31                     u5510:
  7137     0B31                     l5676:
  7138                           
  7139                           ;main.c: 924:             {;main.c: 925:                     buffer[0]='U';
  7140     0B31  3055               	movlw	85
  7141     0B32  0140               	movlb	0	; select bank0
  7142     0B33  00A8               	movwf	relay_to_off_step1_msg@buffer
  7143                           
  7144                           ;main.c: 926:                     buffer[1]='C';
  7145     0B34  3043               	movlw	67
  7146     0B35  00A9               	movwf	relay_to_off_step1_msg@buffer+1
  7147                           
  7148                           ;main.c: 927:                     buffer[2]= ' ';
  7149     0B36  3020               	movlw	32
  7150     0B37  00AA               	movwf	relay_to_off_step1_msg@buffer+2
  7151                           
  7152                           ;main.c: 928:                     buffer[3]= 'O';
  7153     0B38  304F               	movlw	79
  7154     0B39  00AB               	movwf	relay_to_off_step1_msg@buffer+3
  7155                           
  7156                           ;main.c: 929:                     buffer[4]= 'f';
  7157     0B3A  3066               	movlw	102
  7158     0B3B  00AC               	movwf	relay_to_off_step1_msg@buffer+4
  7159                           
  7160                           ;main.c: 930:                     buffer[5]= '\n';
  7161     0B3C  300A               	movlw	10
  7162     0B3D  00AD               	movwf	relay_to_off_step1_msg@buffer+5
  7163                           
  7164                           ;main.c: 931:                     buffer[6]= '\r';
  7165     0B3E  300D               	movlw	13
  7166     0B3F  00AE               	movwf	relay_to_off_step1_msg@buffer+6
  7167     0B40  2B6D               	goto	l5686
  7168     0B41                     l5678:
  7169                           
  7170                           ;main.c: 935:             if(flag_VC)
  7171     0B41  0143               	movlb	3	; select bank3
  7172     0B42  0866               	movf	_flag_VC^(0+384),w	;volatile
  7173     0B43  1903               	btfsc	3,2
  7174     0B44  2B46               	goto	u5521
  7175     0B45  2B47               	goto	u5520
  7176     0B46                     u5521:
  7177     0B46  2B6D               	goto	l5686
  7178     0B47                     u5520:
  7179     0B47                     l5680:
  7180                           
  7181                           ;main.c: 936:             {;main.c: 937:                     buffer[0]='V';
  7182     0B47  3056               	movlw	86
  7183     0B48  0140               	movlb	0	; select bank0
  7184     0B49  00A8               	movwf	relay_to_off_step1_msg@buffer
  7185                           
  7186                           ;main.c: 938:                     buffer[1]='C';
  7187     0B4A  3043               	movlw	67
  7188     0B4B  00A9               	movwf	relay_to_off_step1_msg@buffer+1
  7189                           
  7190                           ;main.c: 939:                     buffer[2]= ' ';
  7191     0B4C  3020               	movlw	32
  7192     0B4D  00AA               	movwf	relay_to_off_step1_msg@buffer+2
  7193                           
  7194                           ;main.c: 940:                     buffer[3]= 'O';
  7195     0B4E  304F               	movlw	79
  7196     0B4F  00AB               	movwf	relay_to_off_step1_msg@buffer+3
  7197                           
  7198                           ;main.c: 941:                     buffer[4]= 'f';
  7199     0B50  3066               	movlw	102
  7200     0B51  00AC               	movwf	relay_to_off_step1_msg@buffer+4
  7201                           
  7202                           ;main.c: 942:                     buffer[5]= '\n';
  7203     0B52  300A               	movlw	10
  7204     0B53  00AD               	movwf	relay_to_off_step1_msg@buffer+5
  7205                           
  7206                           ;main.c: 943:                     buffer[6]= '\r';
  7207     0B54  300D               	movlw	13
  7208     0B55  00AE               	movwf	relay_to_off_step1_msg@buffer+6
  7209     0B56  2B6D               	goto	l5686
  7210     0B57                     l5684:
  7211     0B57  085A               	movf	relay_to_off_step1_msg@phase,w
  7212     0B58  00A6               	movwf	??_relay_to_off_step1_msg
  7213     0B59  01A7               	clrf	??_relay_to_off_step1_msg+1
  7214                           
  7215                           ; Switch on 2 bytes has been partitioned into a top level switch of size 1, and 1 sub-sw
      +                          itches
  7216                           ; Switch size 1, requested type "simple"
  7217                           ; Number of cases is 1, Range of values is 0 to 0
  7218                           ; switch strategies available:
  7219                           ; Name         Instructions Cycles
  7220                           ; simple_byte            4     3 (average)
  7221                           ; direct_byte            8     6 (fixed)
  7222                           ; jumptable            260     6 (fixed)
  7223                           ;	Chosen strategy is simple_byte
  7224     0B5A  0827               	movf	??_relay_to_off_step1_msg+1,w
  7225     0B5B  3A00               	xorlw	0	; case 0
  7226     0B5C  1903               	skipnz
  7227     0B5D  2B5F               	goto	l6456
  7228     0B5E  2B6D               	goto	l5686
  7229     0B5F                     l6456:
  7230                           
  7231                           ; Switch size 1, requested type "simple"
  7232                           ; Number of cases is 4, Range of values is 0 to 5
  7233                           ; switch strategies available:
  7234                           ; Name         Instructions Cycles
  7235                           ; simple_byte           13     7 (average)
  7236                           ; direct_byte           18     6 (fixed)
  7237                           ; jumptable            260     6 (fixed)
  7238                           ;	Chosen strategy is simple_byte
  7239     0B5F  0826               	movf	??_relay_to_off_step1_msg,w
  7240     0B60  3A00               	xorlw	0	; case 0
  7241     0B61  1903               	skipnz
  7242     0B62  2AF9               	goto	l5664
  7243     0B63  3A03               	xorlw	3	; case 3
  7244     0B64  1903               	skipnz
  7245     0B65  2B2B               	goto	l5674
  7246     0B66  3A07               	xorlw	7	; case 4
  7247     0B67  1903               	skipnz
  7248     0B68  2B41               	goto	l5678
  7249     0B69  3A01               	xorlw	1	; case 5
  7250     0B6A  1903               	skipnz
  7251     0B6B  2B15               	goto	l5670
  7252     0B6C  2B6D               	goto	l5686
  7253     0B6D                     l5686:
  7254                           
  7255                           ;main.c: 949:     push_string_buffer(buffer,7);
  7256     0B6D  3007               	movlw	7
  7257     0B6E  0140               	movlb	0	; select bank0
  7258     0B6F  00A0               	movwf	push_string_buffer@len
  7259     0B70  3000               	movlw	0
  7260     0B71  00A1               	movwf	push_string_buffer@len+1
  7261     0B72  3028               	movlw	(low (relay_to_off_step1_msg@buffer| 0))& (0+255)
  7262     0B73  3197  27AC  318A   	fcall	_push_string_buffer
  7263     0B76                     l696:
  7264     0B76  0008               	return
  7265     0B77                     __end_of_relay_to_off_step1_msg:
  7266                           
  7267                           	psect	text6
  7268     09C9                     __ptext6:	
  7269 ;; *************** function _relay_to_off_step1 *****************
  7270 ;; Defined at:
  7271 ;;		line 579 in file "main.c"
  7272 ;; Parameters:    Size  Location     Type
  7273 ;;  phase           1    wreg     unsigned char 
  7274 ;;  OnOf            1    2[COMMON] _Bool 
  7275 ;; Auto vars:     Size  Location     Type
  7276 ;;  phase           1    5[COMMON] unsigned char 
  7277 ;; Return value:  Size  Location     Type
  7278 ;;                  1    wreg      void 
  7279 ;; Registers used:
  7280 ;;		wreg, fsr0l, fsr0h, status,2, status,0
  7281 ;; Tracked objects:
  7282 ;;		On entry : 0/0
  7283 ;;		On exit  : 0/0
  7284 ;;		Unchanged: 0/0
  7285 ;; Data sizes:     COMMON   BANK0   BANK1   BANK2   BANK3   BANK4   BANK5   BANK6   BANK7   BANK8   BANK9  BANK10  BANK1
      +1  BANK12  BANK13  BANK14  BANK15  BANK16  BANK17  BANK18  BANK19  BANK20  BANK21  BANK22  BANK23  BANK24  BANK25
  7286 ;;      Params:         1       0       0       0       0       0       0       0       0       0       0       0       
      +0       0       0       0       0       0       0       0       0       0       0       0       0       0       0
  7287 ;;      Locals:         1       0       0       0       0       0       0       0       0       0       0       0       
      +0       0       0       0       0       0       0       0       0       0       0       0       0       0       0
  7288 ;;      Temps:          2       0       0       0       0       0       0       0       0       0       0       0       
      +0       0       0       0       0       0       0       0       0       0       0       0       0       0       0
  7289 ;;      Totals:         4       0       0       0       0       0       0       0       0       0       0       0       
      +0       0       0       0       0       0       0       0       0       0       0       0       0       0       0
  7290 ;;Total ram usage:        4 bytes
  7291 ;; Hardware stack levels used: 1
  7292 ;; Hardware stack levels required when called: 4
  7293 ;; This function calls:
  7294 ;;		Nothing
  7295 ;; This function is called by:
  7296 ;;		_main
  7297 ;; This function uses a non-reentrant model
  7298 ;;
  7299                           
  7300     09C9                     _relay_to_off_step1:	
  7301                           ;psect for function _relay_to_off_step1
  7302                           
  7303                           
  7304                           ;incstack = 0
  7305                           ; Regs used in _relay_to_off_step1: [wreg-fsr0h+status,2+status,0]
  7306                           ;relay_to_off_step1@phase stored from wreg
  7307     09C9  00F5               	movwf	relay_to_off_step1@phase
  7308     09CA                     l5634:
  7309                           
  7310                           ;main.c: 579: void relay_to_off_step1(uint8_t phase,_Bool OnOf);main.c: 580: {;main.c: 5
      +                          82:     switch(phase)
  7311     09CA  2A05               	goto	l5656
  7312     09CB                     l5636:
  7313                           
  7314                           ;main.c: 585:             if(flag_RC && (!flagL1OnR))
  7315     09CB  0142               	movlb	2	; select bank2
  7316     09CC  086F               	movf	_flag_RC^(0+256),w	;volatile
  7317     09CD  1903               	btfsc	3,2
  7318     09CE  29D0               	goto	u5421
  7319     09CF  29D1               	goto	u5420
  7320     09D0                     u5421:
  7321     09D0  2A1B               	goto	l564
  7322     09D1                     u5420:
  7323     09D1                     l5638:
  7324     09D1  0143               	movlb	3	; select bank3
  7325     09D2  0865               	movf	_flagL1OnR^(0+384),w	;volatile
  7326     09D3  1D03               	btfss	3,2
  7327     09D4  29D6               	goto	u5431
  7328     09D5  29D7               	goto	u5430
  7329     09D6                     u5431:
  7330     09D6  2A1B               	goto	l564
  7331     09D7                     u5430:
  7332     09D7                     l5640:
  7333                           
  7334                           ;main.c: 586:                 LATCbits.LATC5 = OnOf;
  7335     09D7  0C72               	rrf	relay_to_off_step1@OnOf,w
  7336     09D8  0140               	movlb	0	; select bank0
  7337     09D9  1C03               	skipc
  7338     09DA  129A               	bcf	26,5	;volatile
  7339     09DB  1803               	skipnc
  7340     09DC  169A               	bsf	26,5	;volatile
  7341     09DD  2A1B               	goto	l564
  7342     09DE                     l5642:
  7343                           
  7344                           ;main.c: 589:             if(flag_WC)
  7345     09DE  0142               	movlb	2	; select bank2
  7346     09DF  086E               	movf	_flag_WC^(0+256),w	;volatile
  7347     09E0  1903               	btfsc	3,2
  7348     09E1  29E3               	goto	u5441
  7349     09E2  29E4               	goto	u5440
  7350     09E3                     u5441:
  7351     09E3  2A1B               	goto	l564
  7352     09E4                     u5440:
  7353     09E4                     l5644:
  7354                           
  7355                           ;main.c: 590:                 LATDbits.LATD7 = OnOf;
  7356     09E4  0C72               	rrf	relay_to_off_step1@OnOf,w
  7357     09E5  0140               	movlb	0	; select bank0
  7358     09E6  1C03               	skipc
  7359     09E7  139B               	bcf	27,7	;volatile
  7360     09E8  1803               	skipnc
  7361     09E9  179B               	bsf	27,7	;volatile
  7362     09EA  2A1B               	goto	l564
  7363     09EB                     l5646:
  7364                           
  7365                           ;main.c: 593:             if(flag_UC)
  7366     09EB  0142               	movlb	2	; select bank2
  7367     09EC  086D               	movf	_flag_UC^(0+256),w	;volatile
  7368     09ED  1903               	btfsc	3,2
  7369     09EE  29F0               	goto	u5451
  7370     09EF  29F1               	goto	u5450
  7371     09F0                     u5451:
  7372     09F0  2A1B               	goto	l564
  7373     09F1                     u5450:
  7374     09F1                     l5648:
  7375                           
  7376                           ;main.c: 594:                 LATAbits.LATA7 = OnOf;
  7377     09F1  0C72               	rrf	relay_to_off_step1@OnOf,w
  7378     09F2  0140               	movlb	0	; select bank0
  7379     09F3  1C03               	skipc
  7380     09F4  1398               	bcf	24,7	;volatile
  7381     09F5  1803               	skipnc
  7382     09F6  1798               	bsf	24,7	;volatile
  7383     09F7  2A1B               	goto	l564
  7384     09F8                     l5650:
  7385                           
  7386                           ;main.c: 597:             if(flag_VC)
  7387     09F8  0143               	movlb	3	; select bank3
  7388     09F9  0866               	movf	_flag_VC^(0+384),w	;volatile
  7389     09FA  1903               	btfsc	3,2
  7390     09FB  29FD               	goto	u5461
  7391     09FC  29FE               	goto	u5460
  7392     09FD                     u5461:
  7393     09FD  2A1B               	goto	l564
  7394     09FE                     u5460:
  7395     09FE                     l5652:
  7396                           
  7397                           ;main.c: 598:                 LATDbits.LATD1 = OnOf;
  7398     09FE  0C72               	rrf	relay_to_off_step1@OnOf,w
  7399     09FF  0140               	movlb	0	; select bank0
  7400     0A00  1C03               	skipc
  7401     0A01  109B               	bcf	27,1	;volatile
  7402     0A02  1803               	skipnc
  7403     0A03  149B               	bsf	27,1	;volatile
  7404     0A04  2A1B               	goto	l564
  7405     0A05                     l5656:
  7406     0A05  0875               	movf	relay_to_off_step1@phase,w
  7407     0A06  00F3               	movwf	??_relay_to_off_step1
  7408     0A07  01F4               	clrf	??_relay_to_off_step1+1
  7409                           
  7410                           ; Switch on 2 bytes has been partitioned into a top level switch of size 1, and 1 sub-sw
      +                          itches
  7411                           ; Switch size 1, requested type "simple"
  7412                           ; Number of cases is 1, Range of values is 0 to 0
  7413                           ; switch strategies available:
  7414                           ; Name         Instructions Cycles
  7415                           ; simple_byte            4     3 (average)
  7416                           ; direct_byte            8     6 (fixed)
  7417                           ; jumptable            260     6 (fixed)
  7418                           ;	Chosen strategy is simple_byte
  7419     0A08  0874               	movf	??_relay_to_off_step1+1,w
  7420     0A09  3A00               	xorlw	0	; case 0
  7421     0A0A  1903               	skipnz
  7422     0A0B  2A0D               	goto	l6458
  7423     0A0C  2A1B               	goto	l564
  7424     0A0D                     l6458:
  7425                           
  7426                           ; Switch size 1, requested type "simple"
  7427                           ; Number of cases is 4, Range of values is 0 to 5
  7428                           ; switch strategies available:
  7429                           ; Name         Instructions Cycles
  7430                           ; simple_byte           13     7 (average)
  7431                           ; direct_byte           18     6 (fixed)
  7432                           ; jumptable            260     6 (fixed)
  7433                           ;	Chosen strategy is simple_byte
  7434     0A0D  0873               	movf	??_relay_to_off_step1,w
  7435     0A0E  3A00               	xorlw	0	; case 0
  7436     0A0F  1903               	skipnz
  7437     0A10  29CB               	goto	l5636
  7438     0A11  3A03               	xorlw	3	; case 3
  7439     0A12  1903               	skipnz
  7440     0A13  29EB               	goto	l5646
  7441     0A14  3A07               	xorlw	7	; case 4
  7442     0A15  1903               	skipnz
  7443     0A16  29F8               	goto	l5650
  7444     0A17  3A01               	xorlw	1	; case 5
  7445     0A18  1903               	skipnz
  7446     0A19  29DE               	goto	l5642
  7447     0A1A  2A1B               	goto	l564
  7448     0A1B                     l564:
  7449     0A1B  0008               	return
  7450     0A1C                     __end_of_relay_to_off_step1:
  7451                           
  7452                           	psect	text7
  7453     0649                     __ptext7:	
  7454 ;; *************** function _relay_to_off_msg *****************
  7455 ;; Defined at:
  7456 ;;		line 771 in file "main.c"
  7457 ;; Parameters:    Size  Location     Type
  7458 ;;  phase           1    wreg     unsigned char 
  7459 ;;  L               1    6[BANK0 ] unsigned char 
  7460 ;; Auto vars:     Size  Location     Type
  7461 ;;  phase           1    9[BANK0 ] unsigned char 
  7462 ;;  buffer         50   10[BANK0 ] unsigned char [50]
  7463 ;; Return value:  Size  Location     Type
  7464 ;;                  1    wreg      void 
  7465 ;; Registers used:
  7466 ;;		wreg, fsr0l, fsr0h, fsr1l, fsr1h, status,2, status,0, pclath, cstack
  7467 ;; Tracked objects:
  7468 ;;		On entry : 0/0
  7469 ;;		On exit  : 0/0
  7470 ;;		Unchanged: 0/0
  7471 ;; Data sizes:     COMMON   BANK0   BANK1   BANK2   BANK3   BANK4   BANK5   BANK6   BANK7   BANK8   BANK9  BANK10  BANK1
      +1  BANK12  BANK13  BANK14  BANK15  BANK16  BANK17  BANK18  BANK19  BANK20  BANK21  BANK22  BANK23  BANK24  BANK25
  7472 ;;      Params:         0       1       0       0       0       0       0       0       0       0       0       0       
      +0       0       0       0       0       0       0       0       0       0       0       0       0       0       0
  7473 ;;      Locals:         0      51       0       0       0       0       0       0       0       0       0       0       
      +0       0       0       0       0       0       0       0       0       0       0       0       0       0       0
  7474 ;;      Temps:          0       2       0       0       0       0       0       0       0       0       0       0       
      +0       0       0       0       0       0       0       0       0       0       0       0       0       0       0
  7475 ;;      Totals:         0      54       0       0       0       0       0       0       0       0       0       0       
      +0       0       0       0       0       0       0       0       0       0       0       0       0       0       0
  7476 ;;Total ram usage:       54 bytes
  7477 ;; Hardware stack levels used: 1
  7478 ;; Hardware stack levels required when called: 6
  7479 ;; This function calls:
  7480 ;;		_push_string_buffer
  7481 ;; This function is called by:
  7482 ;;		_main
  7483 ;; This function uses a non-reentrant model
  7484 ;;
  7485                           
  7486     0649                     _relay_to_off_msg:	
  7487                           ;psect for function _relay_to_off_msg
  7488                           
  7489                           
  7490                           ;incstack = 0
  7491                           ; Regs used in _relay_to_off_msg: [wreg-fsr1h+status,2+status,0+pclath+cstack]
  7492                           ;relay_to_off_msg@phase stored from wreg
  7493     0649  0140               	movlb	0	; select bank0
  7494     064A  00A9               	movwf	relay_to_off_msg@phase
  7495     064B                     l5546:
  7496                           
  7497                           ;main.c: 771: void relay_to_off_msg(uint8_t phase,uint8_t L);main.c: 772: {;main.c: 773:
      +                               char buffer[50]={0};
  7498     064B  302A               	movlw	low relay_to_off_msg@buffer
  7499     064C  0086               	movwf	6
  7500     064D  3000               	movlw	high relay_to_off_msg@buffer
  7501     064E  0087               	movwf	7
  7502     064F  3032               	movlw	50
  7503     0650  00A7               	movwf	??_relay_to_off_msg
  7504     0651  3000               	movlw	0
  7505     0652                     u5230:
  7506     0652  001E               	movwi fsr1++
  7507     0653  0BA7               	decfsz	??_relay_to_off_msg,f
  7508     0654  2E52               	goto	u5230
  7509                           
  7510                           ;main.c: 774:     switch(phase)
  7511     0655  2F28               	goto	l5592
  7512     0656                     l662:	
  7513                           ;main.c: 778:         case 5:
  7514                           
  7515     0656                     l5548:
  7516                           
  7517                           ;main.c: 780:             if(L == 0)
  7518     0656  0826               	movf	relay_to_off_msg@L,w
  7519     0657  1D03               	btfss	3,2
  7520     0658  2E5A               	goto	u5241
  7521     0659  2E5B               	goto	u5240
  7522     065A                     u5241:
  7523     065A  2E70               	goto	l5554
  7524     065B                     u5240:
  7525     065B                     l5550:
  7526                           
  7527                           ;main.c: 781:                 if(flag_CL1)
  7528     065B  086E               	movf	_flag_CL1,w	;volatile
  7529     065C  1903               	btfsc	3,2
  7530     065D  2E5F               	goto	u5251
  7531     065E  2E60               	goto	u5250
  7532     065F                     u5251:
  7533     065F  2E70               	goto	l5554
  7534     0660                     u5250:
  7535     0660                     l5552:
  7536                           
  7537                           ;main.c: 782:                 {;main.c: 783:                     buffer[0]='C';
  7538     0660  3043               	movlw	67
  7539     0661  00AA               	movwf	relay_to_off_msg@buffer
  7540                           
  7541                           ;main.c: 784:                     buffer[1]='L';
  7542     0662  304C               	movlw	76
  7543     0663  00AB               	movwf	relay_to_off_msg@buffer+1
  7544                           
  7545                           ;main.c: 785:                     buffer[2]='1';
  7546     0664  3031               	movlw	49
  7547     0665  00AC               	movwf	relay_to_off_msg@buffer+2
  7548                           
  7549                           ;main.c: 786:                     buffer[3]= ' ';
  7550     0666  3020               	movlw	32
  7551     0667  00AD               	movwf	relay_to_off_msg@buffer+3
  7552                           
  7553                           ;main.c: 787:                     buffer[4]= 'O';
  7554     0668  304F               	movlw	79
  7555     0669  00AE               	movwf	relay_to_off_msg@buffer+4
  7556                           
  7557                           ;main.c: 788:                     buffer[5]= 'f';
  7558     066A  3066               	movlw	102
  7559     066B  00AF               	movwf	relay_to_off_msg@buffer+5
  7560                           
  7561                           ;main.c: 789:                     buffer[6]= '\n';
  7562     066C  300A               	movlw	10
  7563     066D  00B0               	movwf	relay_to_off_msg@buffer+6
  7564                           
  7565                           ;main.c: 790:                     buffer[7]= '\r';
  7566     066E  300D               	movlw	13
  7567     066F  00B1               	movwf	relay_to_off_msg@buffer+7
  7568     0670                     l5554:
  7569                           
  7570                           ;main.c: 792:             if(L == 1)
  7571     0670  0326               	decf	relay_to_off_msg@L,w
  7572     0671  1D03               	btfss	3,2
  7573     0672  2E74               	goto	u5261
  7574     0673  2E75               	goto	u5260
  7575     0674                     u5261:
  7576     0674  2E8A               	goto	l5560
  7577     0675                     u5260:
  7578     0675                     l5556:
  7579                           
  7580                           ;main.c: 793:                 if(flag_CL2)
  7581     0675  087A               	movf	_flag_CL2,w	;volatile
  7582     0676  1903               	btfsc	3,2
  7583     0677  2E79               	goto	u5271
  7584     0678  2E7A               	goto	u5270
  7585     0679                     u5271:
  7586     0679  2E8A               	goto	l5560
  7587     067A                     u5270:
  7588     067A                     l5558:
  7589                           
  7590                           ;main.c: 794:                 {;main.c: 795:                     buffer[0]='C';
  7591     067A  3043               	movlw	67
  7592     067B  00AA               	movwf	relay_to_off_msg@buffer
  7593                           
  7594                           ;main.c: 796:                     buffer[1]='L';
  7595     067C  304C               	movlw	76
  7596     067D  00AB               	movwf	relay_to_off_msg@buffer+1
  7597                           
  7598                           ;main.c: 797:                     buffer[2]='2';
  7599     067E  3032               	movlw	50
  7600     067F  00AC               	movwf	relay_to_off_msg@buffer+2
  7601                           
  7602                           ;main.c: 798:                     buffer[3]= ' ';
  7603     0680  3020               	movlw	32
  7604     0681  00AD               	movwf	relay_to_off_msg@buffer+3
  7605                           
  7606                           ;main.c: 799:                     buffer[4]= 'O';
  7607     0682  304F               	movlw	79
  7608     0683  00AE               	movwf	relay_to_off_msg@buffer+4
  7609                           
  7610                           ;main.c: 800:                     buffer[5]= 'f';
  7611     0684  3066               	movlw	102
  7612     0685  00AF               	movwf	relay_to_off_msg@buffer+5
  7613                           
  7614                           ;main.c: 801:                     buffer[6]= '\n';
  7615     0686  300A               	movlw	10
  7616     0687  00B0               	movwf	relay_to_off_msg@buffer+6
  7617                           
  7618                           ;main.c: 802:                     buffer[7]= '\r';
  7619     0688  300D               	movlw	13
  7620     0689  00B1               	movwf	relay_to_off_msg@buffer+7
  7621     068A                     l5560:
  7622                           
  7623                           ;main.c: 804:             if(L == 2)
  7624     068A  3002               	movlw	2
  7625     068B  0626               	xorwf	relay_to_off_msg@L,w
  7626     068C  1D03               	btfss	3,2
  7627     068D  2E8F               	goto	u5281
  7628     068E  2E90               	goto	u5280
  7629     068F                     u5281:
  7630     068F  2F44               	goto	l5594
  7631     0690                     u5280:
  7632     0690                     l5562:
  7633                           
  7634                           ;main.c: 805:                 if(flag_CL3)
  7635     0690  087B               	movf	_flag_CL3,w	;volatile
  7636     0691  1903               	btfsc	3,2
  7637     0692  2E94               	goto	u5291
  7638     0693  2E95               	goto	u5290
  7639     0694                     u5291:
  7640     0694  2F44               	goto	l5594
  7641     0695                     u5290:
  7642     0695                     l5564:
  7643                           
  7644                           ;main.c: 806:                 {;main.c: 807:                     buffer[0]='C';
  7645     0695  3043               	movlw	67
  7646     0696  00AA               	movwf	relay_to_off_msg@buffer
  7647                           
  7648                           ;main.c: 808:                     buffer[1]='L';
  7649     0697  304C               	movlw	76
  7650     0698  00AB               	movwf	relay_to_off_msg@buffer+1
  7651                           
  7652                           ;main.c: 809:                     buffer[2]='3';
  7653     0699  3033               	movlw	51
  7654     069A  00AC               	movwf	relay_to_off_msg@buffer+2
  7655                           
  7656                           ;main.c: 810:                     buffer[3]= ' ';
  7657     069B  3020               	movlw	32
  7658     069C  00AD               	movwf	relay_to_off_msg@buffer+3
  7659                           
  7660                           ;main.c: 811:                     buffer[4]= 'O';
  7661     069D  304F               	movlw	79
  7662     069E  00AE               	movwf	relay_to_off_msg@buffer+4
  7663                           
  7664                           ;main.c: 812:                     buffer[5]= 'f';
  7665     069F  3066               	movlw	102
  7666     06A0  00AF               	movwf	relay_to_off_msg@buffer+5
  7667                           
  7668                           ;main.c: 813:                     buffer[6]= '\n';
  7669     06A1  300A               	movlw	10
  7670     06A2  00B0               	movwf	relay_to_off_msg@buffer+6
  7671                           
  7672                           ;main.c: 814:                     buffer[7]= '\r';
  7673     06A3  300D               	movlw	13
  7674     06A4  00B1               	movwf	relay_to_off_msg@buffer+7
  7675     06A5  2F44               	goto	l5594
  7676     06A6                     l5566:
  7677                           
  7678                           ;main.c: 818:             if(L == 0)
  7679     06A6  0826               	movf	relay_to_off_msg@L,w
  7680     06A7  1D03               	btfss	3,2
  7681     06A8  2EAA               	goto	u5301
  7682     06A9  2EAB               	goto	u5300
  7683     06AA                     u5301:
  7684     06AA  2EBB               	goto	l5570
  7685     06AB                     u5300:
  7686     06AB                     l5568:
  7687                           
  7688                           ;main.c: 819:                 {;main.c: 820:                     buffer[0]='S';
  7689     06AB  3053               	movlw	83
  7690     06AC  00AA               	movwf	relay_to_off_msg@buffer
  7691                           
  7692                           ;main.c: 821:                     buffer[1]='L';
  7693     06AD  304C               	movlw	76
  7694     06AE  00AB               	movwf	relay_to_off_msg@buffer+1
  7695                           
  7696                           ;main.c: 822:                     buffer[2]='1';
  7697     06AF  3031               	movlw	49
  7698     06B0  00AC               	movwf	relay_to_off_msg@buffer+2
  7699                           
  7700                           ;main.c: 823:                     buffer[3]= ' ';
  7701     06B1  3020               	movlw	32
  7702     06B2  00AD               	movwf	relay_to_off_msg@buffer+3
  7703                           
  7704                           ;main.c: 824:                     buffer[4]= 'O';
  7705     06B3  304F               	movlw	79
  7706     06B4  00AE               	movwf	relay_to_off_msg@buffer+4
  7707                           
  7708                           ;main.c: 825:                     buffer[5]= 'f';
  7709     06B5  3066               	movlw	102
  7710     06B6  00AF               	movwf	relay_to_off_msg@buffer+5
  7711                           
  7712                           ;main.c: 826:                     buffer[6]= '\n';
  7713     06B7  300A               	movlw	10
  7714     06B8  00B0               	movwf	relay_to_off_msg@buffer+6
  7715                           
  7716                           ;main.c: 827:                     buffer[7]= '\r';
  7717     06B9  300D               	movlw	13
  7718     06BA  00B1               	movwf	relay_to_off_msg@buffer+7
  7719     06BB                     l5570:
  7720                           
  7721                           ;main.c: 829:             if(L == 1)
  7722     06BB  0326               	decf	relay_to_off_msg@L,w
  7723     06BC  1D03               	btfss	3,2
  7724     06BD  2EBF               	goto	u5311
  7725     06BE  2EC0               	goto	u5310
  7726     06BF                     u5311:
  7727     06BF  2ED0               	goto	l5574
  7728     06C0                     u5310:
  7729     06C0                     l5572:
  7730                           
  7731                           ;main.c: 830:                 {;main.c: 831:                     buffer[0]='S';
  7732     06C0  3053               	movlw	83
  7733     06C1  00AA               	movwf	relay_to_off_msg@buffer
  7734                           
  7735                           ;main.c: 832:                     buffer[1]='L';
  7736     06C2  304C               	movlw	76
  7737     06C3  00AB               	movwf	relay_to_off_msg@buffer+1
  7738                           
  7739                           ;main.c: 833:                     buffer[2]='2';
  7740     06C4  3032               	movlw	50
  7741     06C5  00AC               	movwf	relay_to_off_msg@buffer+2
  7742                           
  7743                           ;main.c: 834:                     buffer[3]= ' ';
  7744     06C6  3020               	movlw	32
  7745     06C7  00AD               	movwf	relay_to_off_msg@buffer+3
  7746                           
  7747                           ;main.c: 835:                     buffer[4]= 'O';
  7748     06C8  304F               	movlw	79
  7749     06C9  00AE               	movwf	relay_to_off_msg@buffer+4
  7750                           
  7751                           ;main.c: 836:                     buffer[5]= 'f';
  7752     06CA  3066               	movlw	102
  7753     06CB  00AF               	movwf	relay_to_off_msg@buffer+5
  7754                           
  7755                           ;main.c: 837:                     buffer[6]= '\n';
  7756     06CC  300A               	movlw	10
  7757     06CD  00B0               	movwf	relay_to_off_msg@buffer+6
  7758                           
  7759                           ;main.c: 838:                     buffer[7]= '\r';
  7760     06CE  300D               	movlw	13
  7761     06CF  00B1               	movwf	relay_to_off_msg@buffer+7
  7762     06D0                     l5574:
  7763                           
  7764                           ;main.c: 840:             if(L == 2)
  7765     06D0  3002               	movlw	2
  7766     06D1  0626               	xorwf	relay_to_off_msg@L,w
  7767     06D2  1D03               	btfss	3,2
  7768     06D3  2ED5               	goto	u5321
  7769     06D4  2ED6               	goto	u5320
  7770     06D5                     u5321:
  7771     06D5  2F44               	goto	l5594
  7772     06D6                     u5320:
  7773     06D6                     l5576:
  7774                           
  7775                           ;main.c: 841:                 {;main.c: 842:                     buffer[0]='S';
  7776     06D6  3053               	movlw	83
  7777     06D7  00AA               	movwf	relay_to_off_msg@buffer
  7778                           
  7779                           ;main.c: 843:                     buffer[1]='L';
  7780     06D8  304C               	movlw	76
  7781     06D9  00AB               	movwf	relay_to_off_msg@buffer+1
  7782                           
  7783                           ;main.c: 844:                     buffer[2]='3';
  7784     06DA  3033               	movlw	51
  7785     06DB  00AC               	movwf	relay_to_off_msg@buffer+2
  7786                           
  7787                           ;main.c: 845:                     buffer[3]= ' ';
  7788     06DC  3020               	movlw	32
  7789     06DD  00AD               	movwf	relay_to_off_msg@buffer+3
  7790                           
  7791                           ;main.c: 846:                     buffer[4]= 'O';
  7792     06DE  304F               	movlw	79
  7793     06DF  00AE               	movwf	relay_to_off_msg@buffer+4
  7794                           
  7795                           ;main.c: 847:                     buffer[5]= 'f';
  7796     06E0  3066               	movlw	102
  7797     06E1  00AF               	movwf	relay_to_off_msg@buffer+5
  7798                           
  7799                           ;main.c: 848:                     buffer[6]= '\n';
  7800     06E2  300A               	movlw	10
  7801     06E3  00B0               	movwf	relay_to_off_msg@buffer+6
  7802                           
  7803                           ;main.c: 849:                     buffer[7]= '\r';
  7804     06E4  300D               	movlw	13
  7805     06E5  00B1               	movwf	relay_to_off_msg@buffer+7
  7806     06E6  2F44               	goto	l5594
  7807     06E7                     l5578:
  7808                           
  7809                           ;main.c: 853:             if(L == 0)
  7810     06E7  0826               	movf	relay_to_off_msg@L,w
  7811     06E8  1D03               	btfss	3,2
  7812     06E9  2EEB               	goto	u5331
  7813     06EA  2EEC               	goto	u5330
  7814     06EB                     u5331:
  7815     06EB  2EFC               	goto	l5582
  7816     06EC                     u5330:
  7817     06EC                     l5580:
  7818                           
  7819                           ;main.c: 854:                 {;main.c: 855:                     buffer[0]='T';
  7820     06EC  3054               	movlw	84
  7821     06ED  00AA               	movwf	relay_to_off_msg@buffer
  7822                           
  7823                           ;main.c: 856:                     buffer[1]='L';
  7824     06EE  304C               	movlw	76
  7825     06EF  00AB               	movwf	relay_to_off_msg@buffer+1
  7826                           
  7827                           ;main.c: 857:                     buffer[2]='1';
  7828     06F0  3031               	movlw	49
  7829     06F1  00AC               	movwf	relay_to_off_msg@buffer+2
  7830                           
  7831                           ;main.c: 858:                     buffer[3]= ' ';
  7832     06F2  3020               	movlw	32
  7833     06F3  00AD               	movwf	relay_to_off_msg@buffer+3
  7834                           
  7835                           ;main.c: 859:                     buffer[4]= 'O';
  7836     06F4  304F               	movlw	79
  7837     06F5  00AE               	movwf	relay_to_off_msg@buffer+4
  7838                           
  7839                           ;main.c: 860:                     buffer[5]= 'f';
  7840     06F6  3066               	movlw	102
  7841     06F7  00AF               	movwf	relay_to_off_msg@buffer+5
  7842                           
  7843                           ;main.c: 861:                     buffer[6]= '\n';
  7844     06F8  300A               	movlw	10
  7845     06F9  00B0               	movwf	relay_to_off_msg@buffer+6
  7846                           
  7847                           ;main.c: 862:                     buffer[7]= '\r';
  7848     06FA  300D               	movlw	13
  7849     06FB  00B1               	movwf	relay_to_off_msg@buffer+7
  7850     06FC                     l5582:
  7851                           
  7852                           ;main.c: 864:             if(L == 1)
  7853     06FC  0326               	decf	relay_to_off_msg@L,w
  7854     06FD  1D03               	btfss	3,2
  7855     06FE  2F00               	goto	u5341
  7856     06FF  2F01               	goto	u5340
  7857     0700                     u5341:
  7858     0700  2F11               	goto	l5586
  7859     0701                     u5340:
  7860     0701                     l5584:
  7861                           
  7862                           ;main.c: 865:                 {;main.c: 866:                     buffer[0]='T';
  7863     0701  3054               	movlw	84
  7864     0702  00AA               	movwf	relay_to_off_msg@buffer
  7865                           
  7866                           ;main.c: 867:                     buffer[1]='L';
  7867     0703  304C               	movlw	76
  7868     0704  00AB               	movwf	relay_to_off_msg@buffer+1
  7869                           
  7870                           ;main.c: 868:                     buffer[2]='2';
  7871     0705  3032               	movlw	50
  7872     0706  00AC               	movwf	relay_to_off_msg@buffer+2
  7873                           
  7874                           ;main.c: 869:                     buffer[3]= ' ';
  7875     0707  3020               	movlw	32
  7876     0708  00AD               	movwf	relay_to_off_msg@buffer+3
  7877                           
  7878                           ;main.c: 870:                     buffer[4]= 'O';
  7879     0709  304F               	movlw	79
  7880     070A  00AE               	movwf	relay_to_off_msg@buffer+4
  7881                           
  7882                           ;main.c: 871:                     buffer[5]= 'f';
  7883     070B  3066               	movlw	102
  7884     070C  00AF               	movwf	relay_to_off_msg@buffer+5
  7885                           
  7886                           ;main.c: 872:                     buffer[6]= '\n';
  7887     070D  300A               	movlw	10
  7888     070E  00B0               	movwf	relay_to_off_msg@buffer+6
  7889                           
  7890                           ;main.c: 873:                     buffer[7]= '\r';
  7891     070F  300D               	movlw	13
  7892     0710  00B1               	movwf	relay_to_off_msg@buffer+7
  7893     0711                     l5586:
  7894                           
  7895                           ;main.c: 875:             if(L == 2)
  7896     0711  3002               	movlw	2
  7897     0712  0626               	xorwf	relay_to_off_msg@L,w
  7898     0713  1D03               	btfss	3,2
  7899     0714  2F16               	goto	u5351
  7900     0715  2F17               	goto	u5350
  7901     0716                     u5351:
  7902     0716  2F44               	goto	l5594
  7903     0717                     u5350:
  7904     0717                     l5588:
  7905                           
  7906                           ;main.c: 876:                 {;main.c: 877:                     buffer[0]='T';
  7907     0717  3054               	movlw	84
  7908     0718  00AA               	movwf	relay_to_off_msg@buffer
  7909                           
  7910                           ;main.c: 878:                     buffer[1]='L';
  7911     0719  304C               	movlw	76
  7912     071A  00AB               	movwf	relay_to_off_msg@buffer+1
  7913                           
  7914                           ;main.c: 879:                     buffer[2]='3';
  7915     071B  3033               	movlw	51
  7916     071C  00AC               	movwf	relay_to_off_msg@buffer+2
  7917                           
  7918                           ;main.c: 880:                     buffer[3]= ' ';
  7919     071D  3020               	movlw	32
  7920     071E  00AD               	movwf	relay_to_off_msg@buffer+3
  7921                           
  7922                           ;main.c: 881:                     buffer[4]= 'O';
  7923     071F  304F               	movlw	79
  7924     0720  00AE               	movwf	relay_to_off_msg@buffer+4
  7925                           
  7926                           ;main.c: 882:                     buffer[5]= 'f';
  7927     0721  3066               	movlw	102
  7928     0722  00AF               	movwf	relay_to_off_msg@buffer+5
  7929                           
  7930                           ;main.c: 883:                     buffer[6]= '\n';
  7931     0723  300A               	movlw	10
  7932     0724  00B0               	movwf	relay_to_off_msg@buffer+6
  7933                           
  7934                           ;main.c: 884:                     buffer[7]= '\r';
  7935     0725  300D               	movlw	13
  7936     0726  00B1               	movwf	relay_to_off_msg@buffer+7
  7937     0727  2F44               	goto	l5594
  7938     0728                     l5592:
  7939     0728  0829               	movf	relay_to_off_msg@phase,w
  7940     0729  00A7               	movwf	??_relay_to_off_msg
  7941     072A  01A8               	clrf	??_relay_to_off_msg+1
  7942                           
  7943                           ; Switch on 2 bytes has been partitioned into a top level switch of size 1, and 1 sub-sw
      +                          itches
  7944                           ; Switch size 1, requested type "simple"
  7945                           ; Number of cases is 1, Range of values is 0 to 0
  7946                           ; switch strategies available:
  7947                           ; Name         Instructions Cycles
  7948                           ; simple_byte            4     3 (average)
  7949                           ; direct_byte            8     6 (fixed)
  7950                           ; jumptable            260     6 (fixed)
  7951                           ;	Chosen strategy is simple_byte
  7952     072B  0828               	movf	??_relay_to_off_msg+1,w
  7953     072C  3A00               	xorlw	0	; case 0
  7954     072D  1903               	skipnz
  7955     072E  2F30               	goto	l6460
  7956     072F  2F44               	goto	l5594
  7957     0730                     l6460:
  7958                           
  7959                           ; Switch size 1, requested type "simple"
  7960                           ; Number of cases is 6, Range of values is 0 to 5
  7961                           ; switch strategies available:
  7962                           ; Name         Instructions Cycles
  7963                           ; direct_byte           18     6 (fixed)
  7964                           ; simple_byte           19    10 (average)
  7965                           ; jumptable            260     6 (fixed)
  7966                           ;	Chosen strategy is simple_byte
  7967     0730  0827               	movf	??_relay_to_off_msg,w
  7968     0731  3A00               	xorlw	0	; case 0
  7969     0732  1903               	skipnz
  7970     0733  2E56               	goto	l5548
  7971     0734  3A01               	xorlw	1	; case 1
  7972     0735  1903               	skipnz
  7973     0736  2EA6               	goto	l5566
  7974     0737  3A03               	xorlw	3	; case 2
  7975     0738  1903               	skipnz
  7976     0739  2EE7               	goto	l5578
  7977     073A  3A01               	xorlw	1	; case 3
  7978     073B  1903               	skipnz
  7979     073C  2E56               	goto	l662
  7980     073D  3A07               	xorlw	7	; case 4
  7981     073E  1903               	skipnz
  7982     073F  2E56               	goto	l5548
  7983     0740  3A01               	xorlw	1	; case 5
  7984     0741  1903               	skipnz
  7985     0742  2E56               	goto	l5548
  7986     0743  2F44               	goto	l5594
  7987     0744                     l5594:
  7988                           
  7989                           ;main.c: 890:     push_string_buffer(buffer,8);
  7990     0744  3008               	movlw	8
  7991     0745  00A0               	movwf	push_string_buffer@len
  7992     0746  3000               	movlw	0
  7993     0747  00A1               	movwf	push_string_buffer@len+1
  7994     0748  302A               	movlw	(low (relay_to_off_msg@buffer| 0))& (0+255)
  7995     0749  3197  27AC  3186   	fcall	_push_string_buffer
  7996     074C                     l680:
  7997     074C  0008               	return
  7998     074D                     __end_of_relay_to_off_msg:
  7999                           
  8000                           	psect	text8
  8001     17AC                     __ptext8:	
  8002 ;; *************** function _push_string_buffer *****************
  8003 ;; Defined at:
  8004 ;;		line 83 in file "main.c"
  8005 ;; Parameters:    Size  Location     Type
  8006 ;;  data            1    wreg     PTR unsigned char 
  8007 ;;		 -> relay_to_on_step1_msg@buffer(50), relay_to_on_msg@buffer(50), relay_to_off_step1_msg@buffer(50), relay_to_off_ms
      +g@buffer(50), 
  8008 ;;		 -> main@buffer(50), 
  8009 ;;  len             2    0[BANK0 ] unsigned int 
  8010 ;; Auto vars:     Size  Location     Type
  8011 ;;  data            1    5[BANK0 ] PTR unsigned char 
  8012 ;;		 -> relay_to_on_step1_msg@buffer(50), relay_to_on_msg@buffer(50), relay_to_off_step1_msg@buffer(50), relay_to_off_ms
      +g@buffer(50), 
  8013 ;;		 -> main@buffer(50), 
  8014 ;;  i               2    3[BANK0 ] int 
  8015 ;; Return value:  Size  Location     Type
  8016 ;;                  1    wreg      void 
  8017 ;; Registers used:
  8018 ;;		wreg, fsr0l, fsr0h, fsr1l, fsr1h, status,2, status,0, pclath, cstack
  8019 ;; Tracked objects:
  8020 ;;		On entry : 0/0
  8021 ;;		On exit  : 0/0
  8022 ;;		Unchanged: 0/0
  8023 ;; Data sizes:     COMMON   BANK0   BANK1   BANK2   BANK3   BANK4   BANK5   BANK6   BANK7   BANK8   BANK9  BANK10  BANK1
      +1  BANK12  BANK13  BANK14  BANK15  BANK16  BANK17  BANK18  BANK19  BANK20  BANK21  BANK22  BANK23  BANK24  BANK25
  8024 ;;      Params:         0       2       0       0       0       0       0       0       0       0       0       0       
      +0       0       0       0       0       0       0       0       0       0       0       0       0       0       0
  8025 ;;      Locals:         0       3       0       0       0       0       0       0       0       0       0       0       
      +0       0       0       0       0       0       0       0       0       0       0       0       0       0       0
  8026 ;;      Temps:          0       1       0       0       0       0       0       0       0       0       0       0       
      +0       0       0       0       0       0       0       0       0       0       0       0       0       0       0
  8027 ;;      Totals:         0       6       0       0       0       0       0       0       0       0       0       0       
      +0       0       0       0       0       0       0       0       0       0       0       0       0       0       0
  8028 ;;Total ram usage:        6 bytes
  8029 ;; Hardware stack levels used: 1
  8030 ;; Hardware stack levels required when called: 5
  8031 ;; This function calls:
  8032 ;;		_circ_bbuf_push
  8033 ;; This function is called by:
  8034 ;;		_main
  8035 ;;		_relay_to_off_msg
  8036 ;;		_relay_to_off_step1_msg
  8037 ;;		_relay_to_on_msg
  8038 ;;		_relay_to_on_step1_msg
  8039 ;; This function uses a non-reentrant model
  8040 ;;
  8041                           
  8042     17AC                     _push_string_buffer:	
  8043                           ;psect for function _push_string_buffer
  8044                           
  8045                           
  8046                           ;incstack = 0
  8047                           ; Regs used in _push_string_buffer: [wreg-fsr1h+status,2+status,0+pclath+cstack]
  8048                           ;push_string_buffer@data stored from wreg
  8049     17AC  0140               	movlb	0	; select bank0
  8050     17AD  00A5               	movwf	push_string_buffer@data
  8051     17AE                     l4994:
  8052                           
  8053                           ;main.c: 83: void push_string_buffer(char*data,size_t len);main.c: 84: {;main.c: 85:    
      +                           for (int i = 0; i < (int)(len);i++)
  8054     17AE  01A3               	clrf	push_string_buffer@i
  8055     17AF  01A4               	clrf	push_string_buffer@i+1
  8056     17B0  2FC6               	goto	l5000
  8057     17B1                     l4996:
  8058                           
  8059                           ;main.c: 86:         circ_bbuf_push(&my_circ_buf,*(data+i));
  8060     17B1  3051               	movlw	low _my_circ_buf
  8061     17B2  00F2               	movwf	circ_bbuf_push@c
  8062     17B3  3002               	movlw	high _my_circ_buf
  8063     17B4  00F3               	movwf	circ_bbuf_push@c+1
  8064     17B5  0140               	movlb	0	; select bank0
  8065     17B6  0823               	movf	push_string_buffer@i,w
  8066     17B7  0725               	addwf	push_string_buffer@data,w
  8067     17B8  00A2               	movwf	??_push_string_buffer
  8068     17B9  0822               	movf	??_push_string_buffer,w
  8069     17BA  0086               	movwf	6
  8070     17BB  0187               	clrf	7
  8071     17BC  0801               	movf	1,w
  8072     17BD  00F4               	movwf	circ_bbuf_push@data
  8073     17BE  318A  221C  3197   	fcall	_circ_bbuf_push
  8074     17C1                     l4998:
  8075     17C1  3001               	movlw	1
  8076     17C2  0140               	movlb	0	; select bank0
  8077     17C3  07A3               	addwf	push_string_buffer@i,f
  8078     17C4  3000               	movlw	0
  8079     17C5  3DA4               	addwfc	push_string_buffer@i+1,f
  8080     17C6                     l5000:
  8081     17C6  0824               	movf	push_string_buffer@i+1,w
  8082     17C7  3A80               	xorlw	128
  8083     17C8  00A2               	movwf	??_push_string_buffer
  8084     17C9  0821               	movf	push_string_buffer@len+1,w
  8085     17CA  3A80               	xorlw	128
  8086     17CB  0222               	subwf	??_push_string_buffer,w
  8087     17CC  1D03               	skipz
  8088     17CD  2FD0               	goto	u4555
  8089     17CE  0820               	movf	push_string_buffer@len,w
  8090     17CF  0223               	subwf	push_string_buffer@i,w
  8091     17D0                     u4555:
  8092     17D0  1C03               	skipc
  8093     17D1  2FD3               	goto	u4551
  8094     17D2  2FD4               	goto	u4550
  8095     17D3                     u4551:
  8096     17D3  2FB1               	goto	l4996
  8097     17D4                     u4550:
  8098     17D4                     l351:
  8099     17D4  0008               	return
  8100     17D5                     __end_of_push_string_buffer:
  8101                           
  8102                           	psect	text9
  8103     0A1C                     __ptext9:	
  8104 ;; *************** function _circ_bbuf_push *****************
  8105 ;; Defined at:
  8106 ;;		line 104 in file "Software_UART.c"
  8107 ;; Parameters:    Size  Location     Type
  8108 ;;  c               2    2[COMMON] PTR struct .
  8109 ;;		 -> my_circ_buf(8), 
  8110 ;;  data            1    4[COMMON] unsigned char 
  8111 ;; Auto vars:     Size  Location     Type
  8112 ;;  next            2    8[COMMON] int 
  8113 ;; Return value:  Size  Location     Type
  8114 ;;                  2    2[COMMON] int 
  8115 ;; Registers used:
  8116 ;;		wreg, fsr0l, fsr0h, fsr1l, fsr1h, status,2, status,0
  8117 ;; Tracked objects:
  8118 ;;		On entry : 0/0
  8119 ;;		On exit  : 0/0
  8120 ;;		Unchanged: 0/0
  8121 ;; Data sizes:     COMMON   BANK0   BANK1   BANK2   BANK3   BANK4   BANK5   BANK6   BANK7   BANK8   BANK9  BANK10  BANK1
      +1  BANK12  BANK13  BANK14  BANK15  BANK16  BANK17  BANK18  BANK19  BANK20  BANK21  BANK22  BANK23  BANK24  BANK25
  8122 ;;      Params:         3       0       0       0       0       0       0       0       0       0       0       0       
      +0       0       0       0       0       0       0       0       0       0       0       0       0       0       0
  8123 ;;      Locals:         2       0       0       0       0       0       0       0       0       0       0       0       
      +0       0       0       0       0       0       0       0       0       0       0       0       0       0       0
  8124 ;;      Temps:          3       0       0       0       0       0       0       0       0       0       0       0       
      +0       0       0       0       0       0       0       0       0       0       0       0       0       0       0
  8125 ;;      Totals:         8       0       0       0       0       0       0       0       0       0       0       0       
      +0       0       0       0       0       0       0       0       0       0       0       0       0       0       0
  8126 ;;Total ram usage:        8 bytes
  8127 ;; Hardware stack levels used: 1
  8128 ;; Hardware stack levels required when called: 4
  8129 ;; This function calls:
  8130 ;;		Nothing
  8131 ;; This function is called by:
  8132 ;;		_push_string_buffer
  8133 ;; This function uses a non-reentrant model
  8134 ;;
  8135                           
  8136     0A1C                     _circ_bbuf_push:	
  8137                           ;psect for function _circ_bbuf_push
  8138                           
  8139     0A1C                     l4892:	
  8140                           ;incstack = 0
  8141                           ; Regs used in _circ_bbuf_push: [wreg-fsr1h+status,2+status,0]
  8142                           
  8143                           
  8144                           ;Software_UART.c: 104: int circ_bbuf_push(circ_bbuf_t *c, uint8_t data);Software_UART.c:
      +                           105: {;Software_UART.c: 106:     int next;;Software_UART.c: 108:     next = c->head + 1
      +                          ;
  8145     0A1C  0872               	movf	circ_bbuf_push@c,w
  8146     0A1D  0086               	movwf	6
  8147     0A1E  0873               	movf	circ_bbuf_push@c+1,w
  8148     0A1F  0087               	movwf	7
  8149     0A20  3142               	addfsr 1,2
  8150     0A21  3F40               	moviw [0]fsr1
  8151     0A22  00F5               	movwf	??_circ_bbuf_push
  8152     0A23  3F41               	moviw [1]fsr1
  8153     0A24  00F6               	movwf	??_circ_bbuf_push+1
  8154     0A25  0875               	movf	??_circ_bbuf_push,w
  8155     0A26  3E01               	addlw	1
  8156     0A27  00F8               	movwf	circ_bbuf_push@next
  8157     0A28  3000               	movlw	0
  8158     0A29  3D76               	addwfc	??_circ_bbuf_push+1,w
  8159     0A2A  00F9               	movwf	circ_bbuf_push@next+1
  8160     0A2B                     l4894:
  8161                           
  8162                           ;Software_UART.c: 109:     if (next >= c->maxlen)
  8163     0A2B  0872               	movf	circ_bbuf_push@c,w
  8164     0A2C  0086               	movwf	6
  8165     0A2D  0873               	movf	circ_bbuf_push@c+1,w
  8166     0A2E  0087               	movwf	7
  8167     0A2F  3146               	addfsr 1,6
  8168     0A30  3F40               	moviw [0]fsr1
  8169     0A31  00F5               	movwf	??_circ_bbuf_push
  8170     0A32  3F41               	moviw [1]fsr1
  8171     0A33  00F6               	movwf	??_circ_bbuf_push+1
  8172     0A34  0879               	movf	circ_bbuf_push@next+1,w
  8173     0A35  3A80               	xorlw	128
  8174     0A36  00F7               	movwf	??_circ_bbuf_push+2
  8175     0A37  0876               	movf	??_circ_bbuf_push+1,w
  8176     0A38  3A80               	xorlw	128
  8177     0A39  0277               	subwf	??_circ_bbuf_push+2,w
  8178     0A3A  1D03               	skipz
  8179     0A3B  2A3E               	goto	u4535
  8180     0A3C  0875               	movf	??_circ_bbuf_push,w
  8181     0A3D  0278               	subwf	circ_bbuf_push@next,w
  8182     0A3E                     u4535:
  8183     0A3E  1C03               	skipc
  8184     0A3F  2A41               	goto	u4531
  8185     0A40  2A42               	goto	u4530
  8186     0A41                     u4531:
  8187     0A41  2A44               	goto	l4898
  8188     0A42                     u4530:
  8189     0A42                     l4896:
  8190                           
  8191                           ;Software_UART.c: 110:         next = 0;
  8192     0A42  01F8               	clrf	circ_bbuf_push@next
  8193     0A43  01F9               	clrf	circ_bbuf_push@next+1
  8194     0A44                     l4898:
  8195                           
  8196                           ;Software_UART.c: 112:     if (next == c->tail)
  8197     0A44  0872               	movf	circ_bbuf_push@c,w
  8198     0A45  0086               	movwf	6
  8199     0A46  0873               	movf	circ_bbuf_push@c+1,w
  8200     0A47  0087               	movwf	7
  8201     0A48  3144               	addfsr 1,4
  8202     0A49  3F40               	moviw [0]fsr1
  8203     0A4A  00F5               	movwf	??_circ_bbuf_push
  8204     0A4B  3F41               	moviw [1]fsr1
  8205     0A4C  00F6               	movwf	??_circ_bbuf_push+1
  8206     0A4D  0879               	movf	circ_bbuf_push@next+1,w
  8207     0A4E  0676               	xorwf	??_circ_bbuf_push+1,w
  8208     0A4F  1D03               	skipz
  8209     0A50  2A53               	goto	u4545
  8210     0A51  0878               	movf	circ_bbuf_push@next,w
  8211     0A52  0675               	xorwf	??_circ_bbuf_push,w
  8212     0A53                     u4545:
  8213     0A53  1D03               	skipz
  8214     0A54  2A56               	goto	u4541
  8215     0A55  2A57               	goto	u4540
  8216     0A56                     u4541:
  8217     0A56  2A58               	goto	l4902
  8218     0A57                     u4540:
  8219     0A57  2A77               	goto	l796
  8220     0A58                     l4902:
  8221                           
  8222                           ;Software_UART.c: 115:     c->buffer[c->head] = data;
  8223     0A58  0872               	movf	circ_bbuf_push@c,w
  8224     0A59  0086               	movwf	6
  8225     0A5A  0873               	movf	circ_bbuf_push@c+1,w
  8226     0A5B  0087               	movwf	7
  8227     0A5C  3142               	addfsr 1,2
  8228     0A5D  0872               	movf	circ_bbuf_push@c,w
  8229     0A5E  0084               	movwf	4
  8230     0A5F  0873               	movf	circ_bbuf_push@c+1,w
  8231     0A60  0085               	movwf	5
  8232     0A61  3F40               	moviw [0]fsr1
  8233     0A62  0700               	addwf	0,w
  8234     0A63  00F5               	movwf	??_circ_bbuf_push
  8235     0A64  3101               	addfsr 0,1
  8236     0A65  3F41               	moviw [1]fsr1
  8237     0A66  3D00               	addwfc	0,w
  8238     0A67  00F6               	movwf	??_circ_bbuf_push+1
  8239     0A68  0875               	movf	??_circ_bbuf_push,w
  8240     0A69  0086               	movwf	6
  8241     0A6A  0876               	movf	??_circ_bbuf_push+1,w
  8242     0A6B  0087               	movwf	7
  8243     0A6C  0874               	movf	circ_bbuf_push@data,w
  8244     0A6D  0081               	movwf	1
  8245     0A6E                     l4904:
  8246                           
  8247                           ;Software_UART.c: 116:     c->head = next;
  8248     0A6E  0872               	movf	circ_bbuf_push@c,w
  8249     0A6F  0086               	movwf	6
  8250     0A70  0873               	movf	circ_bbuf_push@c+1,w
  8251     0A71  0087               	movwf	7
  8252     0A72  3142               	addfsr 1,2
  8253     0A73  0878               	movf	circ_bbuf_push@next,w
  8254     0A74  3FC0               	movwi [0]fsr1
  8255     0A75  0879               	movf	circ_bbuf_push@next+1,w
  8256     0A76  3FC1               	movwi [1]fsr1
  8257     0A77                     l796:
  8258     0A77  0008               	return
  8259     0A78                     __end_of_circ_bbuf_push:
  8260                           
  8261                           	psect	text10
  8262     0C0B                     __ptext10:	
  8263 ;; *************** function _relay_to_off *****************
  8264 ;; Defined at:
  8265 ;;		line 542 in file "main.c"
  8266 ;; Parameters:    Size  Location     Type
  8267 ;;  phase           1    wreg     unsigned char 
  8268 ;;  L               1    2[COMMON] unsigned char 
  8269 ;;  OnOf            1    3[COMMON] _Bool 
  8270 ;; Auto vars:     Size  Location     Type
  8271 ;;  phase           1    6[COMMON] unsigned char 
  8272 ;; Return value:  Size  Location     Type
  8273 ;;                  1    wreg      void 
  8274 ;; Registers used:
  8275 ;;		wreg, fsr0l, fsr0h, status,2, status,0
  8276 ;; Tracked objects:
  8277 ;;		On entry : 0/0
  8278 ;;		On exit  : 0/0
  8279 ;;		Unchanged: 0/0
  8280 ;; Data sizes:     COMMON   BANK0   BANK1   BANK2   BANK3   BANK4   BANK5   BANK6   BANK7   BANK8   BANK9  BANK10  BANK1
      +1  BANK12  BANK13  BANK14  BANK15  BANK16  BANK17  BANK18  BANK19  BANK20  BANK21  BANK22  BANK23  BANK24  BANK25
  8281 ;;      Params:         2       0       0       0       0       0       0       0       0       0       0       0       
      +0       0       0       0       0       0       0       0       0       0       0       0       0       0       0
  8282 ;;      Locals:         1       0       0       0       0       0       0       0       0       0       0       0       
      +0       0       0       0       0       0       0       0       0       0       0       0       0       0       0
  8283 ;;      Temps:          2       0       0       0       0       0       0       0       0       0       0       0       
      +0       0       0       0       0       0       0       0       0       0       0       0       0       0       0
  8284 ;;      Totals:         5       0       0       0       0       0       0       0       0       0       0       0       
      +0       0       0       0       0       0       0       0       0       0       0       0       0       0       0
  8285 ;;Total ram usage:        5 bytes
  8286 ;; Hardware stack levels used: 1
  8287 ;; Hardware stack levels required when called: 4
  8288 ;; This function calls:
  8289 ;;		Nothing
  8290 ;; This function is called by:
  8291 ;;		_main
  8292 ;; This function uses a non-reentrant model
  8293 ;;
  8294                           
  8295     0C0B                     _relay_to_off:	
  8296                           ;psect for function _relay_to_off
  8297                           
  8298                           
  8299                           ;incstack = 0
  8300                           ; Regs used in _relay_to_off: [wreg-fsr0h+status,2+status,0]
  8301                           ;relay_to_off@phase stored from wreg
  8302     0C0B  00F6               	movwf	relay_to_off@phase
  8303     0C0C                     l5494:
  8304                           
  8305                           ;main.c: 543:     switch(phase)
  8306     0C0C  2C85               	goto	l5540
  8307     0C0D                     l532:	
  8308                           ;main.c: 547:         case 5:
  8309                           
  8310     0C0D                     l5496:
  8311                           
  8312                           ;main.c: 549:             if(L == 0)
  8313     0C0D  0872               	movf	relay_to_off@L,w
  8314     0C0E  1D03               	btfss	3,2
  8315     0C0F  2C11               	goto	u5111
  8316     0C10  2C12               	goto	u5110
  8317     0C11                     u5111:
  8318     0C11  2C1D               	goto	l5502
  8319     0C12                     u5110:
  8320     0C12                     l5498:
  8321                           
  8322                           ;main.c: 550:                 if(flag_CL1)
  8323     0C12  0140               	movlb	0	; select bank0
  8324     0C13  086E               	movf	_flag_CL1,w	;volatile
  8325     0C14  1903               	btfsc	3,2
  8326     0C15  2C17               	goto	u5121
  8327     0C16  2C18               	goto	u5120
  8328     0C17                     u5121:
  8329     0C17  2C1D               	goto	l5502
  8330     0C18                     u5120:
  8331     0C18                     l5500:
  8332                           
  8333                           ;main.c: 551:                     LATDbits.LATD3 = OnOf;
  8334     0C18  0C73               	rrf	relay_to_off@OnOf,w
  8335     0C19  1C03               	skipc
  8336     0C1A  119B               	bcf	27,3	;volatile
  8337     0C1B  1803               	skipnc
  8338     0C1C  159B               	bsf	27,3	;volatile
  8339     0C1D                     l5502:
  8340                           
  8341                           ;main.c: 552:             if(L == 1)
  8342     0C1D  0372               	decf	relay_to_off@L,w
  8343     0C1E  1D03               	btfss	3,2
  8344     0C1F  2C21               	goto	u5131
  8345     0C20  2C22               	goto	u5130
  8346     0C21                     u5131:
  8347     0C21  2C2D               	goto	l5508
  8348     0C22                     u5130:
  8349     0C22                     l5504:
  8350                           
  8351                           ;main.c: 553:                 if(flag_CL2)
  8352     0C22  087A               	movf	_flag_CL2,w	;volatile
  8353     0C23  1903               	btfsc	3,2
  8354     0C24  2C26               	goto	u5141
  8355     0C25  2C27               	goto	u5140
  8356     0C26                     u5141:
  8357     0C26  2C2D               	goto	l5508
  8358     0C27                     u5140:
  8359     0C27                     l5506:
  8360                           
  8361                           ;main.c: 554:                     LATCbits.LATC3 = OnOf;
  8362     0C27  0C73               	rrf	relay_to_off@OnOf,w
  8363     0C28  0140               	movlb	0	; select bank0
  8364     0C29  1C03               	skipc
  8365     0C2A  119A               	bcf	26,3	;volatile
  8366     0C2B  1803               	skipnc
  8367     0C2C  159A               	bsf	26,3	;volatile
  8368     0C2D                     l5508:
  8369                           
  8370                           ;main.c: 555:             if(L == 2)
  8371     0C2D  3002               	movlw	2
  8372     0C2E  0672               	xorwf	relay_to_off@L,w
  8373     0C2F  1D03               	btfss	3,2
  8374     0C30  2C32               	goto	u5151
  8375     0C31  2C33               	goto	u5150
  8376     0C32                     u5151:
  8377     0C32  2CA1               	goto	l550
  8378     0C33                     u5150:
  8379     0C33                     l5510:
  8380                           
  8381                           ;main.c: 556:                 if(flag_CL3)
  8382     0C33  087B               	movf	_flag_CL3,w	;volatile
  8383     0C34  1903               	btfsc	3,2
  8384     0C35  2C37               	goto	u5161
  8385     0C36  2C38               	goto	u5160
  8386     0C37                     u5161:
  8387     0C37  2CA1               	goto	l550
  8388     0C38                     u5160:
  8389     0C38                     l5512:
  8390                           
  8391                           ;main.c: 557:                     LATCbits.LATC1 = OnOf;
  8392     0C38  0C73               	rrf	relay_to_off@OnOf,w
  8393     0C39  0140               	movlb	0	; select bank0
  8394     0C3A  1C03               	skipc
  8395     0C3B  109A               	bcf	26,1	;volatile
  8396     0C3C  1803               	skipnc
  8397     0C3D  149A               	bsf	26,1	;volatile
  8398     0C3E  2CA1               	goto	l550
  8399     0C3F                     l5514:
  8400                           
  8401                           ;main.c: 560:             if(L == 0)
  8402     0C3F  0872               	movf	relay_to_off@L,w
  8403     0C40  1D03               	btfss	3,2
  8404     0C41  2C43               	goto	u5171
  8405     0C42  2C44               	goto	u5170
  8406     0C43                     u5171:
  8407     0C43  2C4A               	goto	l5518
  8408     0C44                     u5170:
  8409     0C44                     l5516:
  8410                           
  8411                           ;main.c: 561:                 LATFbits.LATF1 = OnOf;
  8412     0C44  0C73               	rrf	relay_to_off@OnOf,w
  8413     0C45  0140               	movlb	0	; select bank0
  8414     0C46  1C03               	skipc
  8415     0C47  109D               	bcf	29,1	;volatile
  8416     0C48  1803               	skipnc
  8417     0C49  149D               	bsf	29,1	;volatile
  8418     0C4A                     l5518:
  8419                           
  8420                           ;main.c: 562:             if(L == 1)
  8421     0C4A  0372               	decf	relay_to_off@L,w
  8422     0C4B  1D03               	btfss	3,2
  8423     0C4C  2C4E               	goto	u5181
  8424     0C4D  2C4F               	goto	u5180
  8425     0C4E                     u5181:
  8426     0C4E  2C55               	goto	l5522
  8427     0C4F                     u5180:
  8428     0C4F                     l5520:
  8429                           
  8430                           ;main.c: 563:                 LATCbits.LATC7 = OnOf;
  8431     0C4F  0C73               	rrf	relay_to_off@OnOf,w
  8432     0C50  0140               	movlb	0	; select bank0
  8433     0C51  1C03               	skipc
  8434     0C52  139A               	bcf	26,7	;volatile
  8435     0C53  1803               	skipnc
  8436     0C54  179A               	bsf	26,7	;volatile
  8437     0C55                     l5522:
  8438                           
  8439                           ;main.c: 564:             if(L == 2)
  8440     0C55  3002               	movlw	2
  8441     0C56  0672               	xorwf	relay_to_off@L,w
  8442     0C57  1D03               	btfss	3,2
  8443     0C58  2C5A               	goto	u5191
  8444     0C59  2C5B               	goto	u5190
  8445     0C5A                     u5191:
  8446     0C5A  2CA1               	goto	l550
  8447     0C5B                     u5190:
  8448     0C5B                     l5524:
  8449                           
  8450                           ;main.c: 565:                 LATBbits.LATB1 = OnOf;
  8451     0C5B  0C73               	rrf	relay_to_off@OnOf,w
  8452     0C5C  0140               	movlb	0	; select bank0
  8453     0C5D  1C03               	skipc
  8454     0C5E  1099               	bcf	25,1	;volatile
  8455     0C5F  1803               	skipnc
  8456     0C60  1499               	bsf	25,1	;volatile
  8457     0C61  2CA1               	goto	l550
  8458     0C62                     l5526:
  8459                           
  8460                           ;main.c: 568:             if(L == 0)
  8461     0C62  0872               	movf	relay_to_off@L,w
  8462     0C63  1D03               	btfss	3,2
  8463     0C64  2C66               	goto	u5201
  8464     0C65  2C67               	goto	u5200
  8465     0C66                     u5201:
  8466     0C66  2C6D               	goto	l5530
  8467     0C67                     u5200:
  8468     0C67                     l5528:
  8469                           
  8470                           ;main.c: 569:                 LATFbits.LATF3 = OnOf;
  8471     0C67  0C73               	rrf	relay_to_off@OnOf,w
  8472     0C68  0140               	movlb	0	; select bank0
  8473     0C69  1C03               	skipc
  8474     0C6A  119D               	bcf	29,3	;volatile
  8475     0C6B  1803               	skipnc
  8476     0C6C  159D               	bsf	29,3	;volatile
  8477     0C6D                     l5530:
  8478                           
  8479                           ;main.c: 570:             if(L == 1)
  8480     0C6D  0372               	decf	relay_to_off@L,w
  8481     0C6E  1D03               	btfss	3,2
  8482     0C6F  2C71               	goto	u5211
  8483     0C70  2C72               	goto	u5210
  8484     0C71                     u5211:
  8485     0C71  2C78               	goto	l5534
  8486     0C72                     u5210:
  8487     0C72                     l5532:
  8488                           
  8489                           ;main.c: 571:                 LATDbits.LATD5 = OnOf;
  8490     0C72  0C73               	rrf	relay_to_off@OnOf,w
  8491     0C73  0140               	movlb	0	; select bank0
  8492     0C74  1C03               	skipc
  8493     0C75  129B               	bcf	27,5	;volatile
  8494     0C76  1803               	skipnc
  8495     0C77  169B               	bsf	27,5	;volatile
  8496     0C78                     l5534:
  8497                           
  8498                           ;main.c: 572:             if(L == 2)
  8499     0C78  3002               	movlw	2
  8500     0C79  0672               	xorwf	relay_to_off@L,w
  8501     0C7A  1D03               	btfss	3,2
  8502     0C7B  2C7D               	goto	u5221
  8503     0C7C  2C7E               	goto	u5220
  8504     0C7D                     u5221:
  8505     0C7D  2CA1               	goto	l550
  8506     0C7E                     u5220:
  8507     0C7E                     l5536:
  8508                           
  8509                           ;main.c: 573:                 LATBbits.LATB3 = OnOf;
  8510     0C7E  0C73               	rrf	relay_to_off@OnOf,w
  8511     0C7F  0140               	movlb	0	; select bank0
  8512     0C80  1C03               	skipc
  8513     0C81  1199               	bcf	25,3	;volatile
  8514     0C82  1803               	skipnc
  8515     0C83  1599               	bsf	25,3	;volatile
  8516     0C84  2CA1               	goto	l550
  8517     0C85                     l5540:
  8518     0C85  0876               	movf	relay_to_off@phase,w
  8519     0C86  00F4               	movwf	??_relay_to_off
  8520     0C87  01F5               	clrf	??_relay_to_off+1
  8521                           
  8522                           ; Switch on 2 bytes has been partitioned into a top level switch of size 1, and 1 sub-sw
      +                          itches
  8523                           ; Switch size 1, requested type "simple"
  8524                           ; Number of cases is 1, Range of values is 0 to 0
  8525                           ; switch strategies available:
  8526                           ; Name         Instructions Cycles
  8527                           ; simple_byte            4     3 (average)
  8528                           ; direct_byte            8     6 (fixed)
  8529                           ; jumptable            260     6 (fixed)
  8530                           ;	Chosen strategy is simple_byte
  8531     0C88  0875               	movf	??_relay_to_off+1,w
  8532     0C89  3A00               	xorlw	0	; case 0
  8533     0C8A  1903               	skipnz
  8534     0C8B  2C8D               	goto	l6462
  8535     0C8C  2CA1               	goto	l550
  8536     0C8D                     l6462:
  8537                           
  8538                           ; Switch size 1, requested type "simple"
  8539                           ; Number of cases is 6, Range of values is 0 to 5
  8540                           ; switch strategies available:
  8541                           ; Name         Instructions Cycles
  8542                           ; direct_byte           18     6 (fixed)
  8543                           ; simple_byte           19    10 (average)
  8544                           ; jumptable            260     6 (fixed)
  8545                           ;	Chosen strategy is simple_byte
  8546     0C8D  0874               	movf	??_relay_to_off,w
  8547     0C8E  3A00               	xorlw	0	; case 0
  8548     0C8F  1903               	skipnz
  8549     0C90  2C0D               	goto	l5496
  8550     0C91  3A01               	xorlw	1	; case 1
  8551     0C92  1903               	skipnz
  8552     0C93  2C3F               	goto	l5514
  8553     0C94  3A03               	xorlw	3	; case 2
  8554     0C95  1903               	skipnz
  8555     0C96  2C62               	goto	l5526
  8556     0C97  3A01               	xorlw	1	; case 3
  8557     0C98  1903               	skipnz
  8558     0C99  2C0D               	goto	l532
  8559     0C9A  3A07               	xorlw	7	; case 4
  8560     0C9B  1903               	skipnz
  8561     0C9C  2C0D               	goto	l5496
  8562     0C9D  3A01               	xorlw	1	; case 5
  8563     0C9E  1903               	skipnz
  8564     0C9F  2C0D               	goto	l5496
  8565     0CA0  2CA1               	goto	l550
  8566     0CA1                     l550:
  8567     0CA1  0008               	return
  8568     0CA2                     __end_of_relay_to_off:
  8569                           
  8570                           	psect	text11
  8571     175B                     __ptext11:	
  8572 ;; *************** function _millis *****************
  8573 ;; Defined at:
  8574 ;;		line 75 in file "main.c"
  8575 ;; Parameters:    Size  Location     Type
  8576 ;;		None
  8577 ;; Auto vars:     Size  Location     Type
  8578 ;;  out             4    8[BANK0 ] unsigned long 
  8579 ;; Return value:  Size  Location     Type
  8580 ;;                  4    4[BANK0 ] unsigned long 
  8581 ;; Registers used:
  8582 ;;		wreg, status,2, status,0, pclath, cstack
  8583 ;; Tracked objects:
  8584 ;;		On entry : 0/0
  8585 ;;		On exit  : 0/0
  8586 ;;		Unchanged: 0/0
  8587 ;; Data sizes:     COMMON   BANK0   BANK1   BANK2   BANK3   BANK4   BANK5   BANK6   BANK7   BANK8   BANK9  BANK10  BANK1
      +1  BANK12  BANK13  BANK14  BANK15  BANK16  BANK17  BANK18  BANK19  BANK20  BANK21  BANK22  BANK23  BANK24  BANK25
  8588 ;;      Params:         0       4       0       0       0       0       0       0       0       0       0       0       
      +0       0       0       0       0       0       0       0       0       0       0       0       0       0       0
  8589 ;;      Locals:         0       4       0       0       0       0       0       0       0       0       0       0       
      +0       0       0       0       0       0       0       0       0       0       0       0       0       0       0
  8590 ;;      Temps:          0       0       0       0       0       0       0       0       0       0       0       0       
      +0       0       0       0       0       0       0       0       0       0       0       0       0       0       0
  8591 ;;      Totals:         0       8       0       0       0       0       0       0       0       0       0       0       
      +0       0       0       0       0       0       0       0       0       0       0       0       0       0       0
  8592 ;;Total ram usage:        8 bytes
  8593 ;; Hardware stack levels used: 1
  8594 ;; Hardware stack levels required when called: 5
  8595 ;; This function calls:
  8596 ;;		___lmul
  8597 ;; This function is called by:
  8598 ;;		_main
  8599 ;; This function uses a non-reentrant model
  8600 ;;
  8601                           
  8602     175B                     _millis:	
  8603                           ;psect for function _millis
  8604                           
  8605     175B                     l5038:	
  8606                           ;incstack = 0
  8607                           ; Regs used in _millis: [wreg+status,2+status,0+pclath+cstack]
  8608                           
  8609                           
  8610                           ;main.c: 77:     uint32_t out;;main.c: 78:     (INTCONbits.PEIE = 0);
  8611     175B  130B               	bcf	11,6	;volatile
  8612     175C                     l5040:
  8613                           
  8614                           ;main.c: 79:     out = tick*20;
  8615     175C  0143               	movlb	3	; select bank3
  8616     175D  0853               	movf	(_tick+3)^(0+384),w	;volatile
  8617     175E  00F5               	movwf	___lmul@multiplier+3
  8618     175F  0852               	movf	(_tick+2)^(0+384),w	;volatile
  8619     1760  00F4               	movwf	___lmul@multiplier+2
  8620     1761  0851               	movf	(_tick+1)^(0+384),w	;volatile
  8621     1762  00F3               	movwf	___lmul@multiplier+1
  8622     1763  0850               	movf	_tick^(0+384),w	;volatile
  8623     1764  00F2               	movwf	___lmul@multiplier
  8624     1765  3000               	movlw	0
  8625     1766  00F9               	movwf	___lmul@multiplicand+3
  8626     1767  3000               	movlw	0
  8627     1768  00F8               	movwf	___lmul@multiplicand+2
  8628     1769  3000               	movlw	0
  8629     176A  00F7               	movwf	___lmul@multiplicand+1
  8630     176B  3014               	movlw	20
  8631     176C  00F6               	movwf	___lmul@multiplicand
  8632     176D  3188  2048  3197   	fcall	___lmul
  8633     1770  0875               	movf	?___lmul+3,w
  8634     1771  0140               	movlb	0	; select bank0
  8635     1772  00AB               	movwf	millis@out+3
  8636     1773  0874               	movf	?___lmul+2,w
  8637     1774  00AA               	movwf	millis@out+2
  8638     1775  0873               	movf	?___lmul+1,w
  8639     1776  00A9               	movwf	millis@out+1
  8640     1777  0872               	movf	?___lmul,w
  8641     1778  00A8               	movwf	millis@out
  8642     1779                     l5042:
  8643                           
  8644                           ;main.c: 80:     (INTCONbits.PEIE = 1);
  8645     1779  170B               	bsf	11,6	;volatile
  8646     177A                     l5044:
  8647                           
  8648                           ;main.c: 81:     return out;
  8649     177A  082B               	movf	millis@out+3,w
  8650     177B  00A7               	movwf	?_millis+3
  8651     177C  082A               	movf	millis@out+2,w
  8652     177D  00A6               	movwf	?_millis+2
  8653     177E  0829               	movf	millis@out+1,w
  8654     177F  00A5               	movwf	?_millis+1
  8655     1780  0828               	movf	millis@out,w
  8656     1781  00A4               	movwf	?_millis
  8657     1782                     l345:
  8658     1782  0008               	return
  8659     1783                     __end_of_millis:
  8660                           
  8661                           	psect	text12
  8662     0848                     __ptext12:	
  8663 ;; *************** function ___lmul *****************
  8664 ;; Defined at:
  8665 ;;		line 15 in file "C:\Program Files\Microchip\xc8\v2.40\pic\sources\c99\common\Umul32.c"
  8666 ;; Parameters:    Size  Location     Type
  8667 ;;  multiplier      4    2[COMMON] unsigned long 
  8668 ;;  multiplicand    4    6[COMMON] unsigned long 
  8669 ;; Auto vars:     Size  Location     Type
  8670 ;;  product         4    0[BANK0 ] unsigned long 
  8671 ;; Return value:  Size  Location     Type
  8672 ;;                  4    2[COMMON] unsigned long 
  8673 ;; Registers used:
  8674 ;;		wreg, status,2, status,0
  8675 ;; Tracked objects:
  8676 ;;		On entry : 0/0
  8677 ;;		On exit  : 0/0
  8678 ;;		Unchanged: 0/0
  8679 ;; Data sizes:     COMMON   BANK0   BANK1   BANK2   BANK3   BANK4   BANK5   BANK6   BANK7   BANK8   BANK9  BANK10  BANK1
      +1  BANK12  BANK13  BANK14  BANK15  BANK16  BANK17  BANK18  BANK19  BANK20  BANK21  BANK22  BANK23  BANK24  BANK25
  8680 ;;      Params:         8       0       0       0       0       0       0       0       0       0       0       0       
      +0       0       0       0       0       0       0       0       0       0       0       0       0       0       0
  8681 ;;      Locals:         0       4       0       0       0       0       0       0       0       0       0       0       
      +0       0       0       0       0       0       0       0       0       0       0       0       0       0       0
  8682 ;;      Temps:          0       0       0       0       0       0       0       0       0       0       0       0       
      +0       0       0       0       0       0       0       0       0       0       0       0       0       0       0
  8683 ;;      Totals:         8       4       0       0       0       0       0       0       0       0       0       0       
      +0       0       0       0       0       0       0       0       0       0       0       0       0       0       0
  8684 ;;Total ram usage:       12 bytes
  8685 ;; Hardware stack levels used: 1
  8686 ;; Hardware stack levels required when called: 4
  8687 ;; This function calls:
  8688 ;;		Nothing
  8689 ;; This function is called by:
  8690 ;;		_millis
  8691 ;; This function uses a non-reentrant model
  8692 ;;
  8693                           
  8694     0848                     ___lmul:	
  8695                           ;psect for function ___lmul
  8696                           
  8697     0848                     l5002:	
  8698                           ;incstack = 0
  8699                           ; Regs used in ___lmul: [wreg+status,2+status,0]
  8700                           
  8701     0848  3000               	movlw	0
  8702     0849  0140               	movlb	0	; select bank0
  8703     084A  00A3               	movwf	___lmul@product+3
  8704     084B  3000               	movlw	0
  8705     084C  00A2               	movwf	___lmul@product+2
  8706     084D  3000               	movlw	0
  8707     084E  00A1               	movwf	___lmul@product+1
  8708     084F  3000               	movlw	0
  8709     0850  00A0               	movwf	___lmul@product
  8710     0851                     l5004:
  8711     0851  1C72               	btfss	___lmul@multiplier,0
  8712     0852  2854               	goto	u4561
  8713     0853  2855               	goto	u4560
  8714     0854                     u4561:
  8715     0854  285E               	goto	l5008
  8716     0855                     u4560:
  8717     0855                     l5006:
  8718     0855  0876               	movf	___lmul@multiplicand,w
  8719     0856  0140               	movlb	0	; select bank0
  8720     0857  07A0               	addwf	___lmul@product,f
  8721     0858  0877               	movf	___lmul@multiplicand+1,w
  8722     0859  3DA1               	addwfc	___lmul@product+1,f
  8723     085A  0878               	movf	___lmul@multiplicand+2,w
  8724     085B  3DA2               	addwfc	___lmul@product+2,f
  8725     085C  0879               	movf	___lmul@multiplicand+3,w
  8726     085D  3DA3               	addwfc	___lmul@product+3,f
  8727     085E                     l5008:
  8728     085E  3001               	movlw	1
  8729     085F                     u4575:
  8730     085F  35F6               	lslf	___lmul@multiplicand,f
  8731     0860  0DF7               	rlf	___lmul@multiplicand+1,f
  8732     0861  0DF8               	rlf	___lmul@multiplicand+2,f
  8733     0862  0DF9               	rlf	___lmul@multiplicand+3,f
  8734     0863  0B89               	decfsz	9,f
  8735     0864  285F               	goto	u4575
  8736     0865                     l5010:
  8737     0865  3001               	movlw	1
  8738     0866                     u4585:
  8739     0866  36F5               	lsrf	___lmul@multiplier+3,f
  8740     0867  0CF4               	rrf	___lmul@multiplier+2,f
  8741     0868  0CF3               	rrf	___lmul@multiplier+1,f
  8742     0869  0CF2               	rrf	___lmul@multiplier,f
  8743     086A  0B89               	decfsz	9,f
  8744     086B  2866               	goto	u4585
  8745     086C  0875               	movf	___lmul@multiplier+3,w
  8746     086D  0474               	iorwf	___lmul@multiplier+2,w
  8747     086E  0473               	iorwf	___lmul@multiplier+1,w
  8748     086F  0472               	iorwf	___lmul@multiplier,w
  8749     0870  1D03               	skipz
  8750     0871  2873               	goto	u4591
  8751     0872  2874               	goto	u4590
  8752     0873                     u4591:
  8753     0873  2851               	goto	l5004
  8754     0874                     u4590:
  8755     0874                     l5012:
  8756     0874  0140               	movlb	0	; select bank0
  8757     0875  0823               	movf	___lmul@product+3,w
  8758     0876  00F5               	movwf	?___lmul+3
  8759     0877  0822               	movf	___lmul@product+2,w
  8760     0878  00F4               	movwf	?___lmul+2
  8761     0879  0821               	movf	___lmul@product+1,w
  8762     087A  00F3               	movwf	?___lmul+1
  8763     087B  0820               	movf	___lmul@product,w
  8764     087C  00F2               	movwf	?___lmul
  8765     087D                     l878:
  8766     087D  0008               	return
  8767     087E                     __end_of___lmul:
  8768                           
  8769                           	psect	text13
  8770     0F14                     __ptext13:	
  8771 ;; *************** function _initialize *****************
  8772 ;; Defined at:
  8773 ;;		line 88 in file "main.c"
  8774 ;; Parameters:    Size  Location     Type
  8775 ;;		None
  8776 ;; Auto vars:     Size  Location     Type
  8777 ;;		None
  8778 ;; Return value:  Size  Location     Type
  8779 ;;                  1    wreg      void 
  8780 ;; Registers used:
  8781 ;;		wreg
  8782 ;; Tracked objects:
  8783 ;;		On entry : 0/0
  8784 ;;		On exit  : 0/0
  8785 ;;		Unchanged: 0/0
  8786 ;; Data sizes:     COMMON   BANK0   BANK1   BANK2   BANK3   BANK4   BANK5   BANK6   BANK7   BANK8   BANK9  BANK10  BANK1
      +1  BANK12  BANK13  BANK14  BANK15  BANK16  BANK17  BANK18  BANK19  BANK20  BANK21  BANK22  BANK23  BANK24  BANK25
  8787 ;;      Params:         0       0       0       0       0       0       0       0       0       0       0       0       
      +0       0       0       0       0       0       0       0       0       0       0       0       0       0       0
  8788 ;;      Locals:         0       0       0       0       0       0       0       0       0       0       0       0       
      +0       0       0       0       0       0       0       0       0       0       0       0       0       0       0
  8789 ;;      Temps:          2       0       0       0       0       0       0       0       0       0       0       0       
      +0       0       0       0       0       0       0       0       0       0       0       0       0       0       0
  8790 ;;      Totals:         2       0       0       0       0       0       0       0       0       0       0       0       
      +0       0       0       0       0       0       0       0       0       0       0       0       0       0       0
  8791 ;;Total ram usage:        2 bytes
  8792 ;; Hardware stack levels used: 1
  8793 ;; Hardware stack levels required when called: 4
  8794 ;; This function calls:
  8795 ;;		Nothing
  8796 ;; This function is called by:
  8797 ;;		_main
  8798 ;; This function uses a non-reentrant model
  8799 ;;
  8800                           
  8801     0F14                     _initialize:	
  8802                           ;psect for function _initialize
  8803                           
  8804     0F14                     l5048:	
  8805                           ;incstack = 0
  8806                           ; Regs used in _initialize: [wreg]
  8807                           
  8808                           
  8809                           ;main.c: 91:     LATCbits.LATC4 = 0;
  8810     0F14  0140               	movlb	0	; select bank0
  8811     0F15  121A               	bcf	26,4	;volatile
  8812                           
  8813                           ;main.c: 92:     LATCbits.LATC5 = 0;
  8814     0F16  129A               	bcf	26,5	;volatile
  8815                           
  8816                           ;main.c: 93:     LATAbits.LATA6 = 0;
  8817     0F17  1318               	bcf	24,6	;volatile
  8818                           
  8819                           ;main.c: 94:     LATAbits.LATA7 = 0;
  8820     0F18  1398               	bcf	24,7	;volatile
  8821                           
  8822                           ;main.c: 95:     LATDbits.LATD0 = 0;
  8823     0F19  101B               	bcf	27,0	;volatile
  8824                           
  8825                           ;main.c: 96:     LATDbits.LATD1 = 0;
  8826     0F1A  109B               	bcf	27,1	;volatile
  8827                           
  8828                           ;main.c: 97:     LATDbits.LATD6 = 0;
  8829     0F1B  131B               	bcf	27,6	;volatile
  8830                           
  8831                           ;main.c: 98:     LATDbits.LATD7 = 0;
  8832     0F1C  139B               	bcf	27,7	;volatile
  8833                           
  8834                           ;main.c: 99:     LATFbits.LATF0 = 0;
  8835     0F1D  101D               	bcf	29,0	;volatile
  8836                           
  8837                           ;main.c: 100:     LATFbits.LATF1 = 0;
  8838     0F1E  109D               	bcf	29,1	;volatile
  8839                           
  8840                           ;main.c: 101:     LATCbits.LATC6 = 0;
  8841     0F1F  131A               	bcf	26,6	;volatile
  8842                           
  8843                           ;main.c: 102:     LATCbits.LATC7 = 0;
  8844     0F20  139A               	bcf	26,7	;volatile
  8845                           
  8846                           ;main.c: 103:     LATBbits.LATB0 = 0;
  8847     0F21  1019               	bcf	25,0	;volatile
  8848                           
  8849                           ;main.c: 104:     LATBbits.LATB1 = 0;
  8850     0F22  1099               	bcf	25,1	;volatile
  8851                           
  8852                           ;main.c: 105:     LATFbits.LATF2 = 0;
  8853     0F23  111D               	bcf	29,2	;volatile
  8854                           
  8855                           ;main.c: 106:     LATFbits.LATF3 = 0;
  8856     0F24  119D               	bcf	29,3	;volatile
  8857                           
  8858                           ;main.c: 107:     LATDbits.LATD4 = 0;
  8859     0F25  121B               	bcf	27,4	;volatile
  8860                           
  8861                           ;main.c: 108:     LATDbits.LATD5 = 0;
  8862     0F26  129B               	bcf	27,5	;volatile
  8863                           
  8864                           ;main.c: 109:     LATBbits.LATB2 = 0;
  8865     0F27  1119               	bcf	25,2	;volatile
  8866                           
  8867                           ;main.c: 110:     LATBbits.LATB3 = 0;
  8868     0F28  1199               	bcf	25,3	;volatile
  8869                           
  8870                           ;main.c: 111:     LATDbits.LATD2 = 0;
  8871     0F29  111B               	bcf	27,2	;volatile
  8872                           
  8873                           ;main.c: 112:     LATDbits.LATD3 = 0;
  8874     0F2A  119B               	bcf	27,3	;volatile
  8875                           
  8876                           ;main.c: 113:     LATCbits.LATC2 = 0;
  8877     0F2B  111A               	bcf	26,2	;volatile
  8878                           
  8879                           ;main.c: 114:     LATCbits.LATC3 = 0;
  8880     0F2C  119A               	bcf	26,3	;volatile
  8881                           
  8882                           ;main.c: 115:     LATCbits.LATC0 = 0;
  8883     0F2D  101A               	bcf	26,0	;volatile
  8884                           
  8885                           ;main.c: 116:     LATCbits.LATC1 = 0;
  8886     0F2E  109A               	bcf	26,1	;volatile
  8887                           
  8888                           ;main.c: 118:     LATCbits.LATC5 = 1;
  8889     0F2F  169A               	bsf	26,5	;volatile
  8890     0F30                     l5050:
  8891                           
  8892                           ;main.c: 119:     _delay((unsigned long)((100)*(16000000/4000.0)));
  8893     0F30  3003               	movlw	3
  8894     0F31  00F3               	movwf	??_initialize+1
  8895     0F32  3008               	movlw	8
  8896     0F33  00F2               	movwf	??_initialize
  8897     0F34  3077               	movlw	119
  8898     0F35                     u6557:
  8899     0F35  0B89               	decfsz	9,f
  8900     0F36  2F35               	goto	u6557
  8901     0F37  0BF2               	decfsz	??_initialize,f
  8902     0F38  2F35               	goto	u6557
  8903     0F39  0BF3               	decfsz	??_initialize+1,f
  8904     0F3A  2F35               	goto	u6557
  8905     0F3B  0000               	nop
  8906     0F3C                     l5052:
  8907                           
  8908                           ;main.c: 120:     LATCbits.LATC5 = 0;
  8909     0F3C  0140               	movlb	0	; select bank0
  8910     0F3D  129A               	bcf	26,5	;volatile
  8911     0F3E                     l5054:
  8912                           
  8913                           ;main.c: 122:     LATDbits.LATD7 = 1;
  8914     0F3E  179B               	bsf	27,7	;volatile
  8915                           
  8916                           ;main.c: 123:     _delay((unsigned long)((100)*(16000000/4000.0)));
  8917     0F3F  3003               	movlw	3
  8918     0F40  00F3               	movwf	??_initialize+1
  8919     0F41  3008               	movlw	8
  8920     0F42  00F2               	movwf	??_initialize
  8921     0F43  3077               	movlw	119
  8922     0F44                     u6567:
  8923     0F44  0B89               	decfsz	9,f
  8924     0F45  2F44               	goto	u6567
  8925     0F46  0BF2               	decfsz	??_initialize,f
  8926     0F47  2F44               	goto	u6567
  8927     0F48  0BF3               	decfsz	??_initialize+1,f
  8928     0F49  2F44               	goto	u6567
  8929     0F4A  0000               	nop
  8930     0F4B                     l5056:
  8931                           
  8932                           ;main.c: 124:     LATDbits.LATD7 = 0;
  8933     0F4B  0140               	movlb	0	; select bank0
  8934     0F4C  139B               	bcf	27,7	;volatile
  8935     0F4D                     l5058:
  8936                           
  8937                           ;main.c: 127:     LATDbits.LATD1 = 1;
  8938     0F4D  149B               	bsf	27,1	;volatile
  8939                           
  8940                           ;main.c: 128:     _delay((unsigned long)((100)*(16000000/4000.0)));
  8941     0F4E  3003               	movlw	3
  8942     0F4F  00F3               	movwf	??_initialize+1
  8943     0F50  3008               	movlw	8
  8944     0F51  00F2               	movwf	??_initialize
  8945     0F52  3077               	movlw	119
  8946     0F53                     u6577:
  8947     0F53  0B89               	decfsz	9,f
  8948     0F54  2F53               	goto	u6577
  8949     0F55  0BF2               	decfsz	??_initialize,f
  8950     0F56  2F53               	goto	u6577
  8951     0F57  0BF3               	decfsz	??_initialize+1,f
  8952     0F58  2F53               	goto	u6577
  8953     0F59  0000               	nop
  8954     0F5A                     l5060:
  8955                           
  8956                           ;main.c: 129:     LATDbits.LATD1 = 0;
  8957     0F5A  0140               	movlb	0	; select bank0
  8958     0F5B  109B               	bcf	27,1	;volatile
  8959     0F5C                     l5062:
  8960                           
  8961                           ;main.c: 131:     LATAbits.LATA7 = 1;
  8962     0F5C  1798               	bsf	24,7	;volatile
  8963                           
  8964                           ;main.c: 132:     _delay((unsigned long)((100)*(16000000/4000.0)));
  8965     0F5D  3003               	movlw	3
  8966     0F5E  00F3               	movwf	??_initialize+1
  8967     0F5F  3008               	movlw	8
  8968     0F60  00F2               	movwf	??_initialize
  8969     0F61  3077               	movlw	119
  8970     0F62                     u6587:
  8971     0F62  0B89               	decfsz	9,f
  8972     0F63  2F62               	goto	u6587
  8973     0F64  0BF2               	decfsz	??_initialize,f
  8974     0F65  2F62               	goto	u6587
  8975     0F66  0BF3               	decfsz	??_initialize+1,f
  8976     0F67  2F62               	goto	u6587
  8977     0F68  0000               	nop
  8978     0F69                     l5064:
  8979                           
  8980                           ;main.c: 133:     LATAbits.LATA7 = 0;
  8981     0F69  0140               	movlb	0	; select bank0
  8982     0F6A  1398               	bcf	24,7	;volatile
  8983     0F6B                     l5066:
  8984                           
  8985                           ;main.c: 135:     LATDbits.LATD3 = 1;
  8986     0F6B  159B               	bsf	27,3	;volatile
  8987                           
  8988                           ;main.c: 136:     _delay((unsigned long)((100)*(16000000/4000.0)));
  8989     0F6C  3003               	movlw	3
  8990     0F6D  00F3               	movwf	??_initialize+1
  8991     0F6E  3008               	movlw	8
  8992     0F6F  00F2               	movwf	??_initialize
  8993     0F70  3077               	movlw	119
  8994     0F71                     u6597:
  8995     0F71  0B89               	decfsz	9,f
  8996     0F72  2F71               	goto	u6597
  8997     0F73  0BF2               	decfsz	??_initialize,f
  8998     0F74  2F71               	goto	u6597
  8999     0F75  0BF3               	decfsz	??_initialize+1,f
  9000     0F76  2F71               	goto	u6597
  9001     0F77  0000               	nop
  9002     0F78                     l5068:
  9003                           
  9004                           ;main.c: 137:     LATDbits.LATD3 = 0;
  9005     0F78  0140               	movlb	0	; select bank0
  9006     0F79  119B               	bcf	27,3	;volatile
  9007     0F7A                     l5070:
  9008                           
  9009                           ;main.c: 139:     LATCbits.LATC3 = 1;
  9010     0F7A  159A               	bsf	26,3	;volatile
  9011                           
  9012                           ;main.c: 140:     _delay((unsigned long)((100)*(16000000/4000.0)));
  9013     0F7B  3003               	movlw	3
  9014     0F7C  00F3               	movwf	??_initialize+1
  9015     0F7D  3008               	movlw	8
  9016     0F7E  00F2               	movwf	??_initialize
  9017     0F7F  3077               	movlw	119
  9018     0F80                     u6607:
  9019     0F80  0B89               	decfsz	9,f
  9020     0F81  2F80               	goto	u6607
  9021     0F82  0BF2               	decfsz	??_initialize,f
  9022     0F83  2F80               	goto	u6607
  9023     0F84  0BF3               	decfsz	??_initialize+1,f
  9024     0F85  2F80               	goto	u6607
  9025     0F86  0000               	nop
  9026     0F87                     l5072:
  9027                           
  9028                           ;main.c: 141:     LATCbits.LATC3 = 0;
  9029     0F87  0140               	movlb	0	; select bank0
  9030     0F88  119A               	bcf	26,3	;volatile
  9031     0F89                     l5074:
  9032                           
  9033                           ;main.c: 142:     LATCbits.LATC1 = 1;
  9034     0F89  149A               	bsf	26,1	;volatile
  9035                           
  9036                           ;main.c: 143:     _delay((unsigned long)((100)*(16000000/4000.0)));
  9037     0F8A  3003               	movlw	3
  9038     0F8B  00F3               	movwf	??_initialize+1
  9039     0F8C  3008               	movlw	8
  9040     0F8D  00F2               	movwf	??_initialize
  9041     0F8E  3077               	movlw	119
  9042     0F8F                     u6617:
  9043     0F8F  0B89               	decfsz	9,f
  9044     0F90  2F8F               	goto	u6617
  9045     0F91  0BF2               	decfsz	??_initialize,f
  9046     0F92  2F8F               	goto	u6617
  9047     0F93  0BF3               	decfsz	??_initialize+1,f
  9048     0F94  2F8F               	goto	u6617
  9049     0F95  0000               	nop
  9050     0F96                     l5076:
  9051                           
  9052                           ;main.c: 144:     LATCbits.LATC1 = 0;
  9053     0F96  0140               	movlb	0	; select bank0
  9054     0F97  109A               	bcf	26,1	;volatile
  9055     0F98                     l5078:
  9056                           
  9057                           ;main.c: 146:     LATFbits.LATF1 = 1;
  9058     0F98  149D               	bsf	29,1	;volatile
  9059                           
  9060                           ;main.c: 147:     _delay((unsigned long)((100)*(16000000/4000.0)));
  9061     0F99  3003               	movlw	3
  9062     0F9A  00F3               	movwf	??_initialize+1
  9063     0F9B  3008               	movlw	8
  9064     0F9C  00F2               	movwf	??_initialize
  9065     0F9D  3077               	movlw	119
  9066     0F9E                     u6627:
  9067     0F9E  0B89               	decfsz	9,f
  9068     0F9F  2F9E               	goto	u6627
  9069     0FA0  0BF2               	decfsz	??_initialize,f
  9070     0FA1  2F9E               	goto	u6627
  9071     0FA2  0BF3               	decfsz	??_initialize+1,f
  9072     0FA3  2F9E               	goto	u6627
  9073     0FA4  0000               	nop
  9074     0FA5                     l5080:
  9075                           
  9076                           ;main.c: 148:     LATFbits.LATF1 = 0;
  9077     0FA5  0140               	movlb	0	; select bank0
  9078     0FA6  109D               	bcf	29,1	;volatile
  9079     0FA7                     l5082:
  9080                           
  9081                           ;main.c: 150:     LATCbits.LATC7 = 1;
  9082     0FA7  179A               	bsf	26,7	;volatile
  9083                           
  9084                           ;main.c: 151:     _delay((unsigned long)((100)*(16000000/4000.0)));
  9085     0FA8  3003               	movlw	3
  9086     0FA9  00F3               	movwf	??_initialize+1
  9087     0FAA  3008               	movlw	8
  9088     0FAB  00F2               	movwf	??_initialize
  9089     0FAC  3077               	movlw	119
  9090     0FAD                     u6637:
  9091     0FAD  0B89               	decfsz	9,f
  9092     0FAE  2FAD               	goto	u6637
  9093     0FAF  0BF2               	decfsz	??_initialize,f
  9094     0FB0  2FAD               	goto	u6637
  9095     0FB1  0BF3               	decfsz	??_initialize+1,f
  9096     0FB2  2FAD               	goto	u6637
  9097     0FB3  0000               	nop
  9098     0FB4                     l5084:
  9099                           
  9100                           ;main.c: 152:     LATCbits.LATC7 = 0;
  9101     0FB4  0140               	movlb	0	; select bank0
  9102     0FB5  139A               	bcf	26,7	;volatile
  9103     0FB6                     l5086:
  9104                           
  9105                           ;main.c: 154:     LATBbits.LATB1 = 1;
  9106     0FB6  1499               	bsf	25,1	;volatile
  9107                           
  9108                           ;main.c: 155:     _delay((unsigned long)((100)*(16000000/4000.0)));
  9109     0FB7  3003               	movlw	3
  9110     0FB8  00F3               	movwf	??_initialize+1
  9111     0FB9  3008               	movlw	8
  9112     0FBA  00F2               	movwf	??_initialize
  9113     0FBB  3077               	movlw	119
  9114     0FBC                     u6647:
  9115     0FBC  0B89               	decfsz	9,f
  9116     0FBD  2FBC               	goto	u6647
  9117     0FBE  0BF2               	decfsz	??_initialize,f
  9118     0FBF  2FBC               	goto	u6647
  9119     0FC0  0BF3               	decfsz	??_initialize+1,f
  9120     0FC1  2FBC               	goto	u6647
  9121     0FC2  0000               	nop
  9122     0FC3                     l5088:
  9123                           
  9124                           ;main.c: 156:     LATBbits.LATB1 = 0;
  9125     0FC3  0140               	movlb	0	; select bank0
  9126     0FC4  1099               	bcf	25,1	;volatile
  9127     0FC5                     l5090:
  9128                           
  9129                           ;main.c: 159:     LATFbits.LATF3 = 1;
  9130     0FC5  159D               	bsf	29,3	;volatile
  9131                           
  9132                           ;main.c: 160:     _delay((unsigned long)((100)*(16000000/4000.0)));
  9133     0FC6  3003               	movlw	3
  9134     0FC7  00F3               	movwf	??_initialize+1
  9135     0FC8  3008               	movlw	8
  9136     0FC9  00F2               	movwf	??_initialize
  9137     0FCA  3077               	movlw	119
  9138     0FCB                     u6657:
  9139     0FCB  0B89               	decfsz	9,f
  9140     0FCC  2FCB               	goto	u6657
  9141     0FCD  0BF2               	decfsz	??_initialize,f
  9142     0FCE  2FCB               	goto	u6657
  9143     0FCF  0BF3               	decfsz	??_initialize+1,f
  9144     0FD0  2FCB               	goto	u6657
  9145     0FD1  0000               	nop
  9146     0FD2                     l5092:
  9147                           
  9148                           ;main.c: 161:     LATFbits.LATF3 = 0;
  9149     0FD2  0140               	movlb	0	; select bank0
  9150     0FD3  119D               	bcf	29,3	;volatile
  9151     0FD4                     l5094:
  9152                           
  9153                           ;main.c: 163:     LATDbits.LATD5 = 1;
  9154     0FD4  169B               	bsf	27,5	;volatile
  9155                           
  9156                           ;main.c: 164:     _delay((unsigned long)((100)*(16000000/4000.0)));
  9157     0FD5  3003               	movlw	3
  9158     0FD6  00F3               	movwf	??_initialize+1
  9159     0FD7  3008               	movlw	8
  9160     0FD8  00F2               	movwf	??_initialize
  9161     0FD9  3077               	movlw	119
  9162     0FDA                     u6667:
  9163     0FDA  0B89               	decfsz	9,f
  9164     0FDB  2FDA               	goto	u6667
  9165     0FDC  0BF2               	decfsz	??_initialize,f
  9166     0FDD  2FDA               	goto	u6667
  9167     0FDE  0BF3               	decfsz	??_initialize+1,f
  9168     0FDF  2FDA               	goto	u6667
  9169     0FE0  0000               	nop
  9170     0FE1                     l5096:
  9171                           
  9172                           ;main.c: 165:     LATDbits.LATD5 = 0;
  9173     0FE1  0140               	movlb	0	; select bank0
  9174     0FE2  129B               	bcf	27,5	;volatile
  9175     0FE3                     l5098:
  9176                           
  9177                           ;main.c: 167:     LATBbits.LATB3 = 1;
  9178     0FE3  1599               	bsf	25,3	;volatile
  9179                           
  9180                           ;main.c: 168:     _delay((unsigned long)((100)*(16000000/4000.0)));
  9181     0FE4  3003               	movlw	3
  9182     0FE5  00F3               	movwf	??_initialize+1
  9183     0FE6  3008               	movlw	8
  9184     0FE7  00F2               	movwf	??_initialize
  9185     0FE8  3077               	movlw	119
  9186     0FE9                     u6677:
  9187     0FE9  0B89               	decfsz	9,f
  9188     0FEA  2FE9               	goto	u6677
  9189     0FEB  0BF2               	decfsz	??_initialize,f
  9190     0FEC  2FE9               	goto	u6677
  9191     0FED  0BF3               	decfsz	??_initialize+1,f
  9192     0FEE  2FE9               	goto	u6677
  9193     0FEF  0000               	nop
  9194     0FF0                     l5100:
  9195                           
  9196                           ;main.c: 169:     LATBbits.LATB3 = 0;
  9197     0FF0  0140               	movlb	0	; select bank0
  9198     0FF1  1199               	bcf	25,3	;volatile
  9199                           
  9200                           ;main.c: 171:     temp_L[0] = 6;
  9201     0FF2  3006               	movlw	6
  9202     0FF3  0143               	movlb	3	; select bank3
  9203     0FF4  00DA               	movwf	_temp_L^(0+384)	;volatile
  9204                           
  9205                           ;main.c: 172:     temp_L[1] = 6;
  9206     0FF5  3006               	movlw	6
  9207     0FF6  00DB               	movwf	(_temp_L^(0+384)+1)	;volatile
  9208                           
  9209                           ;main.c: 173:     temp_L[2] = 6;
  9210     0FF7  3006               	movlw	6
  9211     0FF8  00DC               	movwf	(_temp_L^(0+384)+2)	;volatile
  9212                           
  9213                           ;main.c: 174:     current_L[0] = 6;
  9214     0FF9  3006               	movlw	6
  9215     0FFA  00DD               	movwf	_current_L^(0+384)	;volatile
  9216                           
  9217                           ;main.c: 175:     current_L[1] = 6;
  9218     0FFB  3006               	movlw	6
  9219     0FFC  00DE               	movwf	(_current_L^(0+384)+1)	;volatile
  9220                           
  9221                           ;main.c: 176:     current_L[2] = 6;
  9222     0FFD  3006               	movlw	6
  9223     0FFE  00DF               	movwf	(_current_L^(0+384)+2)	;volatile
  9224     0FFF                     l354:
  9225     0FFF  0008               	return
  9226     1000                     __end_of_initialize:
  9227                           
  9228                           	psect	text14
  9229     074D                     __ptext14:	
  9230 ;; *************** function _getOutputLevel *****************
  9231 ;; Defined at:
  9232 ;;		line 516 in file "main.c"
  9233 ;; Parameters:    Size  Location     Type
  9234 ;;  inputLevel      2    2[COMMON] unsigned short 
  9235 ;;  index           1    4[COMMON] unsigned char 
  9236 ;; Auto vars:     Size  Location     Type
  9237 ;;  i               2    4[BANK0 ] unsigned short 
  9238 ;;  currentOutpu    2    6[BANK0 ] unsigned short 
  9239 ;;  ub              2    2[BANK0 ] unsigned short 
  9240 ;;  lb              2    0[BANK0 ] unsigned short 
  9241 ;; Return value:  Size  Location     Type
  9242 ;;                  1    wreg      unsigned char 
  9243 ;; Registers used:
  9244 ;;		wreg, fsr1l, fsr1h, status,2, status,0
  9245 ;; Tracked objects:
  9246 ;;		On entry : 0/0
  9247 ;;		On exit  : 0/0
  9248 ;;		Unchanged: 0/0
  9249 ;; Data sizes:     COMMON   BANK0   BANK1   BANK2   BANK3   BANK4   BANK5   BANK6   BANK7   BANK8   BANK9  BANK10  BANK1
      +1  BANK12  BANK13  BANK14  BANK15  BANK16  BANK17  BANK18  BANK19  BANK20  BANK21  BANK22  BANK23  BANK24  BANK25
  9250 ;;      Params:         3       0       0       0       0       0       0       0       0       0       0       0       
      +0       0       0       0       0       0       0       0       0       0       0       0       0       0       0
  9251 ;;      Locals:         0       8       0       0       0       0       0       0       0       0       0       0       
      +0       0       0       0       0       0       0       0       0       0       0       0       0       0       0
  9252 ;;      Temps:          2       0       0       0       0       0       0       0       0       0       0       0       
      +0       0       0       0       0       0       0       0       0       0       0       0       0       0       0
  9253 ;;      Totals:         5       8       0       0       0       0       0       0       0       0       0       0       
      +0       0       0       0       0       0       0       0       0       0       0       0       0       0       0
  9254 ;;Total ram usage:       13 bytes
  9255 ;; Hardware stack levels used: 1
  9256 ;; Hardware stack levels required when called: 4
  9257 ;; This function calls:
  9258 ;;		Nothing
  9259 ;; This function is called by:
  9260 ;;		_main
  9261 ;; This function uses a non-reentrant model
  9262 ;;
  9263                           
  9264     074D                     _getOutputLevel:	
  9265                           ;psect for function _getOutputLevel
  9266                           
  9267     074D                     l5146:	
  9268                           ;incstack = 0
  9269                           ; Regs used in _getOutputLevel: [wreg+fsr1l+fsr1h+status,2+status,0]
  9270                           
  9271     074D                     l5148:
  9272                           
  9273                           ;main.c: 522:   currentOutputLevel = currentOutputLevels[index];
  9274     074D  3574               	lslf	getOutputLevel@index,w
  9275     074E  3E59               	addlw	(low (_currentOutputLevels| (0+512)))& (0+255)
  9276     074F  0086               	movwf	6
  9277     0750  3002               	movlw	2	; select bank4/5
  9278     0751  0087               	movwf	7
  9279     0752  3F40               	moviw [0]fsr1
  9280     0753  0140               	movlb	0	; select bank0
  9281     0754  00A6               	movwf	getOutputLevel@currentOutputLevel
  9282     0755  3F41               	moviw [1]fsr1
  9283     0756  00A7               	movwf	getOutputLevel@currentOutputLevel+1
  9284     0757                     l5150:
  9285                           
  9286                           ;main.c: 523:   uint16_t lb = volt_level[ currentOutputLevel ] ;
  9287     0757  3526               	lslf	getOutputLevel@currentOutputLevel,w
  9288     0758  3E20               	addlw	(low (_volt_level| (0+512)))& (0+255)
  9289     0759  0086               	movwf	6
  9290     075A  3002               	movlw	2	; select bank4/5
  9291     075B  0087               	movwf	7
  9292     075C  3F40               	moviw [0]fsr1
  9293     075D  00A0               	movwf	getOutputLevel@lb
  9294     075E  3F41               	moviw [1]fsr1
  9295     075F  00A1               	movwf	getOutputLevel@lb+1
  9296     0760                     l5152:
  9297                           
  9298                           ;main.c: 524:   if ( currentOutputLevel > 0 ) lb -= margin ;
  9299     0760  0826               	movf	getOutputLevel@currentOutputLevel,w
  9300     0761  0427               	iorwf	getOutputLevel@currentOutputLevel+1,w
  9301     0762  1903               	btfsc	3,2
  9302     0763  2F65               	goto	u4661
  9303     0764  2F66               	goto	u4660
  9304     0765                     u4661:
  9305     0765  2F6A               	goto	l5156
  9306     0766                     u4660:
  9307     0766                     l5154:
  9308     0766  300C               	movlw	12
  9309     0767  02A0               	subwf	getOutputLevel@lb,f
  9310     0768  3000               	movlw	0
  9311     0769  3BA1               	subwfb	getOutputLevel@lb+1,f
  9312     076A                     l5156:
  9313                           
  9314                           ;main.c: 525:   uint16_t ub = volt_level[ currentOutputLevel + 1 ] ;
  9315     076A  3526               	lslf	getOutputLevel@currentOutputLevel,w
  9316     076B  3E22               	addlw	(low ((_volt_level| (0+512)+2)))& (0+255)
  9317     076C  0086               	movwf	6
  9318     076D  3002               	movlw	2	; select bank4/5
  9319     076E  0087               	movwf	7
  9320     076F  3F40               	moviw [0]fsr1
  9321     0770  00A2               	movwf	getOutputLevel@ub
  9322     0771  3F41               	moviw [1]fsr1
  9323     0772  00A3               	movwf	getOutputLevel@ub+1
  9324     0773                     l5158:
  9325                           
  9326                           ;main.c: 526:   if ( currentOutputLevel < numberOfLevelsOutput ) ub += margin ;
  9327     0773  3000               	movlw	0
  9328     0774  0227               	subwf	getOutputLevel@currentOutputLevel+1,w
  9329     0775  3005               	movlw	5
  9330     0776  1903               	skipnz
  9331     0777  0226               	subwf	getOutputLevel@currentOutputLevel,w
  9332     0778  1803               	skipnc
  9333     0779  2F7B               	goto	u4671
  9334     077A  2F7C               	goto	u4670
  9335     077B                     u4671:
  9336     077B  2F80               	goto	l518
  9337     077C                     u4670:
  9338     077C                     l5160:
  9339     077C  300C               	movlw	12
  9340     077D  07A2               	addwf	getOutputLevel@ub,f
  9341     077E  3000               	movlw	0
  9342     077F  3DA3               	addwfc	getOutputLevel@ub+1,f
  9343     0780                     l518:
  9344                           
  9345                           ;main.c: 527:   if ( inputLevel < lb || inputLevel > ub ) {
  9346     0780  0821               	movf	getOutputLevel@lb+1,w
  9347     0781  0273               	subwf	getOutputLevel@inputLevel+1,w
  9348     0782  1D03               	skipz
  9349     0783  2F86               	goto	u4685
  9350     0784  0820               	movf	getOutputLevel@lb,w
  9351     0785  0272               	subwf	getOutputLevel@inputLevel,w
  9352     0786                     u4685:
  9353     0786  1C03               	skipc
  9354     0787  2F89               	goto	u4681
  9355     0788  2F8A               	goto	u4680
  9356     0789                     u4681:
  9357     0789  2F94               	goto	l5164
  9358     078A                     u4680:
  9359     078A                     l5162:
  9360     078A  0873               	movf	getOutputLevel@inputLevel+1,w
  9361     078B  0223               	subwf	getOutputLevel@ub+1,w
  9362     078C  1D03               	skipz
  9363     078D  2F90               	goto	u4695
  9364     078E  0872               	movf	getOutputLevel@inputLevel,w
  9365     078F  0222               	subwf	getOutputLevel@ub,w
  9366     0790                     u4695:
  9367     0790  1803               	skipnc
  9368     0791  2F93               	goto	u4691
  9369     0792  2F94               	goto	u4690
  9370     0793                     u4691:
  9371     0793  2FD7               	goto	l5182
  9372     0794                     u4690:
  9373     0794                     l5164:
  9374                           
  9375                           ;main.c: 528:     uint16_t i;;main.c: 529:     for ( i = 0 ; i < numberOfLevelsOutput ; 
      +                          i++ ) {
  9376     0794  01A4               	clrf	getOutputLevel@i
  9377     0795  01A5               	clrf	getOutputLevel@i+1
  9378     0796                     l5170:
  9379                           
  9380                           ;main.c: 530:       if ( inputLevel >= volt_level[ i ] && inputLevel <= volt_level[ i + 
      +                          1 ] ) break ;
  9381     0796  3524               	lslf	getOutputLevel@i,w
  9382     0797  3E20               	addlw	(low (_volt_level| (0+512)))& (0+255)
  9383     0798  0086               	movwf	6
  9384     0799  3002               	movlw	2	; select bank4/5
  9385     079A  0087               	movwf	7
  9386     079B  3F40               	moviw [0]fsr1
  9387     079C  00F5               	movwf	??_getOutputLevel
  9388     079D  3F41               	moviw [1]fsr1
  9389     079E  00F6               	movwf	??_getOutputLevel+1
  9390     079F  0876               	movf	??_getOutputLevel+1,w
  9391     07A0  0273               	subwf	getOutputLevel@inputLevel+1,w
  9392     07A1  1D03               	skipz
  9393     07A2  2FA5               	goto	u4705
  9394     07A3  0875               	movf	??_getOutputLevel,w
  9395     07A4  0272               	subwf	getOutputLevel@inputLevel,w
  9396     07A5                     u4705:
  9397     07A5  1C03               	skipc
  9398     07A6  2FA8               	goto	u4701
  9399     07A7  2FA9               	goto	u4700
  9400     07A8                     u4701:
  9401     07A8  2FBD               	goto	l5176
  9402     07A9                     u4700:
  9403     07A9                     l5172:
  9404     07A9  3524               	lslf	getOutputLevel@i,w
  9405     07AA  3E22               	addlw	(low ((_volt_level| (0+512)+2)))& (0+255)
  9406     07AB  0086               	movwf	6
  9407     07AC  3002               	movlw	2	; select bank4/5
  9408     07AD  0087               	movwf	7
  9409     07AE  3F40               	moviw [0]fsr1
  9410     07AF  00F5               	movwf	??_getOutputLevel
  9411     07B0  3F41               	moviw [1]fsr1
  9412     07B1  00F6               	movwf	??_getOutputLevel+1
  9413     07B2  0873               	movf	getOutputLevel@inputLevel+1,w
  9414     07B3  0276               	subwf	??_getOutputLevel+1,w
  9415     07B4  1D03               	skipz
  9416     07B5  2FB8               	goto	u4715
  9417     07B6  0872               	movf	getOutputLevel@inputLevel,w
  9418     07B7  0275               	subwf	??_getOutputLevel,w
  9419     07B8                     u4715:
  9420     07B8  1C03               	skipc
  9421     07B9  2FBB               	goto	u4711
  9422     07BA  2FBC               	goto	u4710
  9423     07BB                     u4711:
  9424     07BB  2FBD               	goto	l5176
  9425     07BC                     u4710:
  9426     07BC  2FCA               	goto	l5178
  9427     07BD                     l5176:
  9428                           
  9429                           ;main.c: 531:     }
  9430     07BD  3001               	movlw	1
  9431     07BE  07A4               	addwf	getOutputLevel@i,f
  9432     07BF  3000               	movlw	0
  9433     07C0  3DA5               	addwfc	getOutputLevel@i+1,f
  9434     07C1  3000               	movlw	0
  9435     07C2  0225               	subwf	getOutputLevel@i+1,w
  9436     07C3  3005               	movlw	5
  9437     07C4  1903               	skipnz
  9438     07C5  0224               	subwf	getOutputLevel@i,w
  9439     07C6  1C03               	skipc
  9440     07C7  2FC9               	goto	u4721
  9441     07C8  2FCA               	goto	u4720
  9442     07C9                     u4721:
  9443     07C9  2F96               	goto	l5170
  9444     07CA                     u4720:
  9445     07CA                     l5178:
  9446                           
  9447                           ;main.c: 532:     currentOutputLevel = i ;
  9448     07CA  0825               	movf	getOutputLevel@i+1,w
  9449     07CB  00A7               	movwf	getOutputLevel@currentOutputLevel+1
  9450     07CC  0824               	movf	getOutputLevel@i,w
  9451     07CD  00A6               	movwf	getOutputLevel@currentOutputLevel
  9452     07CE                     l5180:
  9453                           
  9454                           ;main.c: 533:     currentOutputLevels[index] = currentOutputLevel;
  9455     07CE  3574               	lslf	getOutputLevel@index,w
  9456     07CF  3E59               	addlw	(low (_currentOutputLevels| (0+512)))& (0+255)
  9457     07D0  0086               	movwf	6
  9458     07D1  3002               	movlw	2	; select bank4/5
  9459     07D2  0087               	movwf	7
  9460     07D3  0826               	movf	getOutputLevel@currentOutputLevel,w
  9461     07D4  3FC0               	movwi [0]fsr1
  9462     07D5  0827               	movf	getOutputLevel@currentOutputLevel+1,w
  9463     07D6  3FC1               	movwi [1]fsr1
  9464     07D7                     l5182:
  9465                           
  9466                           ;main.c: 535:   if((index >= 3) && (currentOutputLevel!=0))
  9467     07D7  3003               	movlw	3
  9468     07D8  0274               	subwf	getOutputLevel@index,w
  9469     07D9  1C03               	skipc
  9470     07DA  2FDC               	goto	u4731
  9471     07DB  2FDD               	goto	u4730
  9472     07DC                     u4731:
  9473     07DC  2FF4               	goto	l5190
  9474     07DD                     u4730:
  9475     07DD                     l5184:
  9476     07DD  0826               	movf	getOutputLevel@currentOutputLevel,w
  9477     07DE  0427               	iorwf	getOutputLevel@currentOutputLevel+1,w
  9478     07DF  1903               	btfsc	3,2
  9479     07E0  2FE2               	goto	u4741
  9480     07E1  2FE3               	goto	u4740
  9481     07E2                     u4741:
  9482     07E2  2FF4               	goto	l5190
  9483     07E3                     u4740:
  9484     07E3                     l5186:
  9485                           
  9486                           ;main.c: 536:     {;main.c: 537:       currentOutputLevels[index] = 1;
  9487     07E3  3001               	movlw	1
  9488     07E4  00F5               	movwf	??_getOutputLevel
  9489     07E5  3000               	movlw	0
  9490     07E6  00F6               	movwf	??_getOutputLevel+1
  9491     07E7  3574               	lslf	getOutputLevel@index,w
  9492     07E8  3E59               	addlw	(low (_currentOutputLevels| (0+512)))& (0+255)
  9493     07E9  0086               	movwf	6
  9494     07EA  3002               	movlw	2	; select bank4/5
  9495     07EB  0087               	movwf	7
  9496     07EC  0875               	movf	??_getOutputLevel,w
  9497     07ED  3FC0               	movwi [0]fsr1
  9498     07EE  0876               	movf	??_getOutputLevel+1,w
  9499     07EF  3FC1               	movwi [1]fsr1
  9500     07F0                     l5188:
  9501                           
  9502                           ;main.c: 538:       currentOutputLevel = 1;
  9503     07F0  3001               	movlw	1
  9504     07F1  00A6               	movwf	getOutputLevel@currentOutputLevel
  9505     07F2  3000               	movlw	0
  9506     07F3  00A7               	movwf	getOutputLevel@currentOutputLevel+1
  9507     07F4                     l5190:
  9508                           
  9509                           ;main.c: 540:   return (uint8_t)(currentOutputLevel) ;
  9510     07F4  0826               	movf	getOutputLevel@currentOutputLevel,w
  9511     07F5                     l526:
  9512     07F5  0008               	return
  9513     07F6                     __end_of_getOutputLevel:
  9514                           
  9515                           	psect	text15
  9516     1783                     __ptext15:	
  9517 ;; *************** function _flag_on_step1 *****************
  9518 ;; Defined at:
  9519 ;;		line 726 in file "main.c"
  9520 ;; Parameters:    Size  Location     Type
  9521 ;;  phase           1    wreg     unsigned char 
  9522 ;; Auto vars:     Size  Location     Type
  9523 ;;  phase           1    4[COMMON] unsigned char 
  9524 ;; Return value:  Size  Location     Type
  9525 ;;                  1    wreg      void 
  9526 ;; Registers used:
  9527 ;;		wreg, fsr0l, fsr0h, status,2, status,0
  9528 ;; Tracked objects:
  9529 ;;		On entry : 0/0
  9530 ;;		On exit  : 0/0
  9531 ;;		Unchanged: 0/0
  9532 ;; Data sizes:     COMMON   BANK0   BANK1   BANK2   BANK3   BANK4   BANK5   BANK6   BANK7   BANK8   BANK9  BANK10  BANK1
      +1  BANK12  BANK13  BANK14  BANK15  BANK16  BANK17  BANK18  BANK19  BANK20  BANK21  BANK22  BANK23  BANK24  BANK25
  9533 ;;      Params:         0       0       0       0       0       0       0       0       0       0       0       0       
      +0       0       0       0       0       0       0       0       0       0       0       0       0       0       0
  9534 ;;      Locals:         1       0       0       0       0       0       0       0       0       0       0       0       
      +0       0       0       0       0       0       0       0       0       0       0       0       0       0       0
  9535 ;;      Temps:          2       0       0       0       0       0       0       0       0       0       0       0       
      +0       0       0       0       0       0       0       0       0       0       0       0       0       0       0
  9536 ;;      Totals:         3       0       0       0       0       0       0       0       0       0       0       0       
      +0       0       0       0       0       0       0       0       0       0       0       0       0       0       0
  9537 ;;Total ram usage:        3 bytes
  9538 ;; Hardware stack levels used: 1
  9539 ;; Hardware stack levels required when called: 4
  9540 ;; This function calls:
  9541 ;;		Nothing
  9542 ;; This function is called by:
  9543 ;;		_main
  9544 ;; This function uses a non-reentrant model
  9545 ;;
  9546                           
  9547     1783                     _flag_on_step1:	
  9548                           ;psect for function _flag_on_step1
  9549                           
  9550                           
  9551                           ;incstack = 0
  9552                           ; Regs used in _flag_on_step1: [wreg-fsr0h+status,2+status,0]
  9553                           ;flag_on_step1@phase stored from wreg
  9554     1783  00F4               	movwf	flag_on_step1@phase
  9555     1784                     l5898:
  9556                           
  9557                           ;main.c: 726: void flag_on_step1(uint8_t phase);main.c: 727: {;main.c: 728:     switch(p
      +                          hase)
  9558     1784  2F95               	goto	l5910
  9559     1785                     l5900:
  9560                           
  9561                           ;main.c: 731:             flag_RC = 1;
  9562     1785  3001               	movlw	1
  9563     1786  0142               	movlb	2	; select bank2
  9564     1787  00EF               	movwf	_flag_RC^(0+256)	;volatile
  9565                           
  9566                           ;main.c: 732:             break;
  9567     1788  2FAB               	goto	l643
  9568     1789                     l5902:
  9569                           
  9570                           ;main.c: 734:             flag_WC = 1;
  9571     1789  3001               	movlw	1
  9572     178A  0142               	movlb	2	; select bank2
  9573     178B  00EE               	movwf	_flag_WC^(0+256)	;volatile
  9574                           
  9575                           ;main.c: 735:             break;
  9576     178C  2FAB               	goto	l643
  9577     178D                     l5904:
  9578                           
  9579                           ;main.c: 737:             flag_UC = 1;
  9580     178D  3001               	movlw	1
  9581     178E  0142               	movlb	2	; select bank2
  9582     178F  00ED               	movwf	_flag_UC^(0+256)	;volatile
  9583                           
  9584                           ;main.c: 738:             break;
  9585     1790  2FAB               	goto	l643
  9586     1791                     l5906:
  9587                           
  9588                           ;main.c: 740:             flag_VC = 1;
  9589     1791  3001               	movlw	1
  9590     1792  0143               	movlb	3	; select bank3
  9591     1793  00E6               	movwf	_flag_VC^(0+384)	;volatile
  9592                           
  9593                           ;main.c: 741:             break;
  9594     1794  2FAB               	goto	l643
  9595     1795                     l5910:
  9596     1795  0874               	movf	flag_on_step1@phase,w
  9597     1796  00F2               	movwf	??_flag_on_step1
  9598     1797  01F3               	clrf	??_flag_on_step1+1
  9599                           
  9600                           ; Switch on 2 bytes has been partitioned into a top level switch of size 1, and 1 sub-sw
      +                          itches
  9601                           ; Switch size 1, requested type "simple"
  9602                           ; Number of cases is 1, Range of values is 0 to 0
  9603                           ; switch strategies available:
  9604                           ; Name         Instructions Cycles
  9605                           ; simple_byte            4     3 (average)
  9606                           ; direct_byte            8     6 (fixed)
  9607                           ; jumptable            260     6 (fixed)
  9608                           ;	Chosen strategy is simple_byte
  9609     1798  0873               	movf	??_flag_on_step1+1,w
  9610     1799  3A00               	xorlw	0	; case 0
  9611     179A  1903               	skipnz
  9612     179B  2F9D               	goto	l6464
  9613     179C  2FAB               	goto	l643
  9614     179D                     l6464:
  9615                           
  9616                           ; Switch size 1, requested type "simple"
  9617                           ; Number of cases is 4, Range of values is 0 to 5
  9618                           ; switch strategies available:
  9619                           ; Name         Instructions Cycles
  9620                           ; simple_byte           13     7 (average)
  9621                           ; direct_byte           18     6 (fixed)
  9622                           ; jumptable            260     6 (fixed)
  9623                           ;	Chosen strategy is simple_byte
  9624     179D  0872               	movf	??_flag_on_step1,w
  9625     179E  3A00               	xorlw	0	; case 0
  9626     179F  1903               	skipnz
  9627     17A0  2F85               	goto	l5900
  9628     17A1  3A03               	xorlw	3	; case 3
  9629     17A2  1903               	skipnz
  9630     17A3  2F8D               	goto	l5904
  9631     17A4  3A07               	xorlw	7	; case 4
  9632     17A5  1903               	skipnz
  9633     17A6  2F91               	goto	l5906
  9634     17A7  3A01               	xorlw	1	; case 5
  9635     17A8  1903               	skipnz
  9636     17A9  2F89               	goto	l5902
  9637     17AA  2FAB               	goto	l643
  9638     17AB                     l643:
  9639     17AB  0008               	return
  9640     17AC                     __end_of_flag_on_step1:
  9641                           
  9642                           	psect	text16
  9643     087E                     __ptext16:	
  9644 ;; *************** function _flag_on *****************
  9645 ;; Defined at:
  9646 ;;		line 669 in file "main.c"
  9647 ;; Parameters:    Size  Location     Type
  9648 ;;  phase           1    wreg     unsigned char 
  9649 ;;  L               1    2[COMMON] unsigned char 
  9650 ;; Auto vars:     Size  Location     Type
  9651 ;;  phase           1    5[COMMON] unsigned char 
  9652 ;; Return value:  Size  Location     Type
  9653 ;;                  1    wreg      void 
  9654 ;; Registers used:
  9655 ;;		wreg, fsr0l, fsr0h, status,2, status,0
  9656 ;; Tracked objects:
  9657 ;;		On entry : 0/0
  9658 ;;		On exit  : 0/0
  9659 ;;		Unchanged: 0/0
  9660 ;; Data sizes:     COMMON   BANK0   BANK1   BANK2   BANK3   BANK4   BANK5   BANK6   BANK7   BANK8   BANK9  BANK10  BANK1
      +1  BANK12  BANK13  BANK14  BANK15  BANK16  BANK17  BANK18  BANK19  BANK20  BANK21  BANK22  BANK23  BANK24  BANK25
  9661 ;;      Params:         1       0       0       0       0       0       0       0       0       0       0       0       
      +0       0       0       0       0       0       0       0       0       0       0       0       0       0       0
  9662 ;;      Locals:         1       0       0       0       0       0       0       0       0       0       0       0       
      +0       0       0       0       0       0       0       0       0       0       0       0       0       0       0
  9663 ;;      Temps:          2       0       0       0       0       0       0       0       0       0       0       0       
      +0       0       0       0       0       0       0       0       0       0       0       0       0       0       0
  9664 ;;      Totals:         4       0       0       0       0       0       0       0       0       0       0       0       
      +0       0       0       0       0       0       0       0       0       0       0       0       0       0       0
  9665 ;;Total ram usage:        4 bytes
  9666 ;; Hardware stack levels used: 1
  9667 ;; Hardware stack levels required when called: 4
  9668 ;; This function calls:
  9669 ;;		Nothing
  9670 ;; This function is called by:
  9671 ;;		_main
  9672 ;; This function uses a non-reentrant model
  9673 ;;
  9674                           
  9675     087E                     _flag_on:	
  9676                           ;psect for function _flag_on
  9677                           
  9678                           
  9679                           ;incstack = 0
  9680                           ; Regs used in _flag_on: [wreg-fsr0h+status,2+status,0]
  9681                           ;flag_on@phase stored from wreg
  9682     087E  00F5               	movwf	flag_on@phase
  9683     087F                     l5820:
  9684                           
  9685                           ;main.c: 669: void flag_on(uint8_t phase,uint8_t L);main.c: 670: {;main.c: 671:     swit
      +                          ch(phase)
  9686     087F  2898               	goto	l5836
  9687     0880                     l608:	
  9688                           ;main.c: 675:         case 5:
  9689                           
  9690     0880                     l5822:
  9691                           
  9692                           ;main.c: 677:             if(L == 0)
  9693     0880  0872               	movf	flag_on@L,w
  9694     0881  1D03               	btfss	3,2
  9695     0882  2884               	goto	u5791
  9696     0883  2885               	goto	u5790
  9697     0884                     u5791:
  9698     0884  2888               	goto	l5826
  9699     0885                     u5790:
  9700     0885                     l5824:
  9701                           
  9702                           ;main.c: 678:                 flag_CL1 = 1;
  9703     0885  3001               	movlw	1
  9704     0886  0140               	movlb	0	; select bank0
  9705     0887  00EE               	movwf	_flag_CL1	;volatile
  9706     0888                     l5826:
  9707                           
  9708                           ;main.c: 679:             if(L == 1)
  9709     0888  0372               	decf	flag_on@L,w
  9710     0889  1D03               	btfss	3,2
  9711     088A  288C               	goto	u5801
  9712     088B  288D               	goto	u5800
  9713     088C                     u5801:
  9714     088C  288F               	goto	l5830
  9715     088D                     u5800:
  9716     088D                     l5828:
  9717                           
  9718                           ;main.c: 680:                 flag_CL2 = 1;
  9719     088D  3001               	movlw	1
  9720     088E  00FA               	movwf	_flag_CL2	;volatile
  9721     088F                     l5830:
  9722                           
  9723                           ;main.c: 681:             if(L == 2)
  9724     088F  3002               	movlw	2
  9725     0890  0672               	xorwf	flag_on@L,w
  9726     0891  1D03               	btfss	3,2
  9727     0892  2894               	goto	u5811
  9728     0893  2895               	goto	u5810
  9729     0894                     u5811:
  9730     0894  28B4               	goto	l617
  9731     0895                     u5810:
  9732     0895                     l5832:
  9733                           
  9734                           ;main.c: 682:                 flag_CL3 = 1;
  9735     0895  3001               	movlw	1
  9736     0896  00FB               	movwf	_flag_CL3	;volatile
  9737     0897  28B4               	goto	l617
  9738     0898                     l5836:
  9739     0898  0875               	movf	flag_on@phase,w
  9740     0899  00F3               	movwf	??_flag_on
  9741     089A  01F4               	clrf	??_flag_on+1
  9742                           
  9743                           ; Switch on 2 bytes has been partitioned into a top level switch of size 1, and 1 sub-sw
      +                          itches
  9744                           ; Switch size 1, requested type "simple"
  9745                           ; Number of cases is 1, Range of values is 0 to 0
  9746                           ; switch strategies available:
  9747                           ; Name         Instructions Cycles
  9748                           ; simple_byte            4     3 (average)
  9749                           ; direct_byte            8     6 (fixed)
  9750                           ; jumptable            260     6 (fixed)
  9751                           ;	Chosen strategy is simple_byte
  9752     089B  0874               	movf	??_flag_on+1,w
  9753     089C  3A00               	xorlw	0	; case 0
  9754     089D  1903               	skipnz
  9755     089E  28A0               	goto	l6466
  9756     089F  28B4               	goto	l617
  9757     08A0                     l6466:
  9758                           
  9759                           ; Switch size 1, requested type "simple"
  9760                           ; Number of cases is 6, Range of values is 0 to 5
  9761                           ; switch strategies available:
  9762                           ; Name         Instructions Cycles
  9763                           ; direct_byte           18     6 (fixed)
  9764                           ; simple_byte           19    10 (average)
  9765                           ; jumptable            260     6 (fixed)
  9766                           ;	Chosen strategy is simple_byte
  9767     08A0  0873               	movf	??_flag_on,w
  9768     08A1  3A00               	xorlw	0	; case 0
  9769     08A2  1903               	skipnz
  9770     08A3  2880               	goto	l5822
  9771     08A4  3A01               	xorlw	1	; case 1
  9772     08A5  1903               	skipnz
  9773     08A6  28B4               	goto	l617
  9774     08A7  3A03               	xorlw	3	; case 2
  9775     08A8  1903               	skipnz
  9776     08A9  28B4               	goto	l617
  9777     08AA  3A01               	xorlw	1	; case 3
  9778     08AB  1903               	skipnz
  9779     08AC  2880               	goto	l608
  9780     08AD  3A07               	xorlw	7	; case 4
  9781     08AE  1903               	skipnz
  9782     08AF  2880               	goto	l5822
  9783     08B0  3A01               	xorlw	1	; case 5
  9784     08B1  1903               	skipnz
  9785     08B2  2880               	goto	l5822
  9786     08B3  28B4               	goto	l617
  9787     08B4                     l617:
  9788     08B4  0008               	return
  9789     08B5                     __end_of_flag_on:
  9790                           
  9791                           	psect	text17
  9792     17D5                     __ptext17:	
  9793 ;; *************** function _flag_off_step1 *****************
  9794 ;; Defined at:
  9795 ;;		line 746 in file "main.c"
  9796 ;; Parameters:    Size  Location     Type
  9797 ;;  phase           1    wreg     unsigned char 
  9798 ;; Auto vars:     Size  Location     Type
  9799 ;;  phase           1    4[COMMON] unsigned char 
  9800 ;; Return value:  Size  Location     Type
  9801 ;;                  1    wreg      void 
  9802 ;; Registers used:
  9803 ;;		wreg, fsr0l, fsr0h, status,2, status,0
  9804 ;; Tracked objects:
  9805 ;;		On entry : 0/0
  9806 ;;		On exit  : 0/0
  9807 ;;		Unchanged: 0/0
  9808 ;; Data sizes:     COMMON   BANK0   BANK1   BANK2   BANK3   BANK4   BANK5   BANK6   BANK7   BANK8   BANK9  BANK10  BANK1
      +1  BANK12  BANK13  BANK14  BANK15  BANK16  BANK17  BANK18  BANK19  BANK20  BANK21  BANK22  BANK23  BANK24  BANK25
  9809 ;;      Params:         0       0       0       0       0       0       0       0       0       0       0       0       
      +0       0       0       0       0       0       0       0       0       0       0       0       0       0       0
  9810 ;;      Locals:         1       0       0       0       0       0       0       0       0       0       0       0       
      +0       0       0       0       0       0       0       0       0       0       0       0       0       0       0
  9811 ;;      Temps:          2       0       0       0       0       0       0       0       0       0       0       0       
      +0       0       0       0       0       0       0       0       0       0       0       0       0       0       0
  9812 ;;      Totals:         3       0       0       0       0       0       0       0       0       0       0       0       
      +0       0       0       0       0       0       0       0       0       0       0       0       0       0       0
  9813 ;;Total ram usage:        3 bytes
  9814 ;; Hardware stack levels used: 1
  9815 ;; Hardware stack levels required when called: 4
  9816 ;; This function calls:
  9817 ;;		Nothing
  9818 ;; This function is called by:
  9819 ;;		_main
  9820 ;; This function uses a non-reentrant model
  9821 ;;
  9822                           
  9823     17D5                     _flag_off_step1:	
  9824                           ;psect for function _flag_off_step1
  9825                           
  9826                           
  9827                           ;incstack = 0
  9828                           ; Regs used in _flag_off_step1: [wreg-fsr0h+status,2+status,0]
  9829                           ;flag_off_step1@phase stored from wreg
  9830     17D5  00F4               	movwf	flag_off_step1@phase
  9831     17D6                     l5692:
  9832                           
  9833                           ;main.c: 746: void flag_off_step1(uint8_t phase);main.c: 747: {;main.c: 748:     switch(
      +                          phase)
  9834     17D6  2FE9               	goto	l5706
  9835     17D7                     l5694:
  9836                           
  9837                           ;main.c: 751:             if(!flagL1OnR)
  9838     17D7  0143               	movlb	3	; select bank3
  9839     17D8  0865               	movf	_flagL1OnR^(0+384),w	;volatile
  9840     17D9  1D03               	btfss	3,2
  9841     17DA  2FDC               	goto	u5531
  9842     17DB  2FDD               	goto	u5530
  9843     17DC                     u5531:
  9844     17DC  2FFF               	goto	l654
  9845     17DD                     u5530:
  9846     17DD                     l5696:
  9847                           
  9848                           ;main.c: 752:                 flag_RC = 0;
  9849     17DD  0142               	movlb	2	; select bank2
  9850     17DE  01EF               	clrf	_flag_RC^(0+256)	;volatile
  9851     17DF  2FFF               	goto	l654
  9852     17E0                     l5698:
  9853                           
  9854                           ;main.c: 755:             flag_WC = 0;
  9855     17E0  0142               	movlb	2	; select bank2
  9856     17E1  01EE               	clrf	_flag_WC^(0+256)	;volatile
  9857                           
  9858                           ;main.c: 756:             break;
  9859     17E2  2FFF               	goto	l654
  9860     17E3                     l5700:
  9861                           
  9862                           ;main.c: 758:             flag_UC = 0;
  9863     17E3  0142               	movlb	2	; select bank2
  9864     17E4  01ED               	clrf	_flag_UC^(0+256)	;volatile
  9865                           
  9866                           ;main.c: 759:             break;
  9867     17E5  2FFF               	goto	l654
  9868     17E6                     l5702:
  9869                           
  9870                           ;main.c: 761:             flag_VC = 0;
  9871     17E6  0143               	movlb	3	; select bank3
  9872     17E7  01E6               	clrf	_flag_VC^(0+384)	;volatile
  9873                           
  9874                           ;main.c: 762:             break;
  9875     17E8  2FFF               	goto	l654
  9876     17E9                     l5706:
  9877     17E9  0874               	movf	flag_off_step1@phase,w
  9878     17EA  00F2               	movwf	??_flag_off_step1
  9879     17EB  01F3               	clrf	??_flag_off_step1+1
  9880                           
  9881                           ; Switch on 2 bytes has been partitioned into a top level switch of size 1, and 1 sub-sw
      +                          itches
  9882                           ; Switch size 1, requested type "simple"
  9883                           ; Number of cases is 1, Range of values is 0 to 0
  9884                           ; switch strategies available:
  9885                           ; Name         Instructions Cycles
  9886                           ; simple_byte            4     3 (average)
  9887                           ; direct_byte            8     6 (fixed)
  9888                           ; jumptable            260     6 (fixed)
  9889                           ;	Chosen strategy is simple_byte
  9890     17EC  0873               	movf	??_flag_off_step1+1,w
  9891     17ED  3A00               	xorlw	0	; case 0
  9892     17EE  1903               	skipnz
  9893     17EF  2FF1               	goto	l6468
  9894     17F0  2FFF               	goto	l654
  9895     17F1                     l6468:
  9896                           
  9897                           ; Switch size 1, requested type "simple"
  9898                           ; Number of cases is 4, Range of values is 0 to 5
  9899                           ; switch strategies available:
  9900                           ; Name         Instructions Cycles
  9901                           ; simple_byte           13     7 (average)
  9902                           ; direct_byte           18     6 (fixed)
  9903                           ; jumptable            260     6 (fixed)
  9904                           ;	Chosen strategy is simple_byte
  9905     17F1  0872               	movf	??_flag_off_step1,w
  9906     17F2  3A00               	xorlw	0	; case 0
  9907     17F3  1903               	skipnz
  9908     17F4  2FD7               	goto	l5694
  9909     17F5  3A03               	xorlw	3	; case 3
  9910     17F6  1903               	skipnz
  9911     17F7  2FE3               	goto	l5700
  9912     17F8  3A07               	xorlw	7	; case 4
  9913     17F9  1903               	skipnz
  9914     17FA  2FE6               	goto	l5702
  9915     17FB  3A01               	xorlw	1	; case 5
  9916     17FC  1903               	skipnz
  9917     17FD  2FE0               	goto	l5698
  9918     17FE  2FFF               	goto	l654
  9919     17FF                     l654:
  9920     17FF  0008               	return
  9921     1800                     __end_of_flag_off_step1:
  9922                           
  9923                           	psect	text18
  9924     08EE                     __ptext18:	
  9925 ;; *************** function _flag_off *****************
  9926 ;; Defined at:
  9927 ;;		line 695 in file "main.c"
  9928 ;; Parameters:    Size  Location     Type
  9929 ;;  phase           1    wreg     unsigned char 
  9930 ;;  L               1    2[COMMON] unsigned char 
  9931 ;; Auto vars:     Size  Location     Type
  9932 ;;  phase           1    5[COMMON] unsigned char 
  9933 ;; Return value:  Size  Location     Type
  9934 ;;                  1    wreg      void 
  9935 ;; Registers used:
  9936 ;;		wreg, fsr0l, fsr0h, status,2, status,0
  9937 ;; Tracked objects:
  9938 ;;		On entry : 0/0
  9939 ;;		On exit  : 0/0
  9940 ;;		Unchanged: 0/0
  9941 ;; Data sizes:     COMMON   BANK0   BANK1   BANK2   BANK3   BANK4   BANK5   BANK6   BANK7   BANK8   BANK9  BANK10  BANK1
      +1  BANK12  BANK13  BANK14  BANK15  BANK16  BANK17  BANK18  BANK19  BANK20  BANK21  BANK22  BANK23  BANK24  BANK25
  9942 ;;      Params:         1       0       0       0       0       0       0       0       0       0       0       0       
      +0       0       0       0       0       0       0       0       0       0       0       0       0       0       0
  9943 ;;      Locals:         1       0       0       0       0       0       0       0       0       0       0       0       
      +0       0       0       0       0       0       0       0       0       0       0       0       0       0       0
  9944 ;;      Temps:          2       0       0       0       0       0       0       0       0       0       0       0       
      +0       0       0       0       0       0       0       0       0       0       0       0       0       0       0
  9945 ;;      Totals:         4       0       0       0       0       0       0       0       0       0       0       0       
      +0       0       0       0       0       0       0       0       0       0       0       0       0       0       0
  9946 ;;Total ram usage:        4 bytes
  9947 ;; Hardware stack levels used: 1
  9948 ;; Hardware stack levels required when called: 4
  9949 ;; This function calls:
  9950 ;;		Nothing
  9951 ;; This function is called by:
  9952 ;;		_main
  9953 ;; This function uses a non-reentrant model
  9954 ;;
  9955                           
  9956     08EE                     _flag_off:	
  9957                           ;psect for function _flag_off
  9958                           
  9959                           
  9960                           ;incstack = 0
  9961                           ; Regs used in _flag_off: [wreg-fsr0h+status,2+status,0]
  9962                           ;flag_off@phase stored from wreg
  9963     08EE  00F5               	movwf	flag_off@phase
  9964     08EF                     l5600:
  9965                           
  9966                           ;main.c: 695: void flag_off(uint8_t phase,uint8_t L);main.c: 696: {;main.c: 697:     swi
      +                          tch(phase)
  9967     08EF  291B               	goto	l5628
  9968     08F0                     l5602:
  9969                           
  9970                           ;main.c: 702:             if(L == 0)
  9971     08F0  0872               	movf	flag_off@L,w
  9972     08F1  1D03               	btfss	3,2
  9973     08F2  28F4               	goto	u5361
  9974     08F3  28F5               	goto	u5360
  9975     08F4                     u5361:
  9976     08F4  28F7               	goto	l5606
  9977     08F5                     u5360:
  9978     08F5                     l5604:
  9979                           
  9980                           ;main.c: 703:                 flag_CL1 = 0;
  9981     08F5  0140               	movlb	0	; select bank0
  9982     08F6  01EE               	clrf	_flag_CL1	;volatile
  9983     08F7                     l5606:
  9984                           
  9985                           ;main.c: 704:             if(L == 1)
  9986     08F7  0372               	decf	flag_off@L,w
  9987     08F8  1D03               	btfss	3,2
  9988     08F9  28FB               	goto	u5371
  9989     08FA  28FC               	goto	u5370
  9990     08FB                     u5371:
  9991     08FB  28FD               	goto	l5610
  9992     08FC                     u5370:
  9993     08FC                     l5608:
  9994                           
  9995                           ;main.c: 705:                 flag_CL2 = 0;
  9996     08FC  01FA               	clrf	_flag_CL2	;volatile
  9997     08FD                     l5610:
  9998                           
  9999                           ;main.c: 706:             if(L == 2)
 10000     08FD  3002               	movlw	2
 10001     08FE  0672               	xorwf	flag_off@L,w
 10002     08FF  1D03               	btfss	3,2
 10003     0900  2902               	goto	u5381
 10004     0901  2903               	goto	u5380
 10005     0902                     u5381:
 10006     0902  2931               	goto	l633
 10007     0903                     u5380:
 10008     0903                     l5612:
 10009                           
 10010                           ;main.c: 707:                 flag_CL3 = 0;
 10011     0903  01FB               	clrf	_flag_CL3	;volatile
 10012     0904  2931               	goto	l633
 10013     0905                     l5614:
 10014                           
 10015                           ;main.c: 710:             if(L == 0)
 10016     0905  0872               	movf	flag_off@L,w
 10017     0906  1D03               	btfss	3,2
 10018     0907  2909               	goto	u5391
 10019     0908  290A               	goto	u5390
 10020     0909                     u5391:
 10021     0909  290E               	goto	l5618
 10022     090A                     u5390:
 10023     090A                     l5616:
 10024                           
 10025                           ;main.c: 711:                 {;main.c: 712:                     flag_CL1 = 0;
 10026     090A  0140               	movlb	0	; select bank0
 10027     090B  01EE               	clrf	_flag_CL1	;volatile
 10028                           
 10029                           ;main.c: 713:                     flagL1OnR = 0;
 10030     090C  0143               	movlb	3	; select bank3
 10031     090D  01E5               	clrf	_flagL1OnR^(0+384)	;volatile
 10032     090E                     l5618:
 10033                           
 10034                           ;main.c: 715:             if(L == 1)
 10035     090E  0372               	decf	flag_off@L,w
 10036     090F  1D03               	btfss	3,2
 10037     0910  2912               	goto	u5401
 10038     0911  2913               	goto	u5400
 10039     0912                     u5401:
 10040     0912  2914               	goto	l5622
 10041     0913                     u5400:
 10042     0913                     l5620:
 10043                           
 10044                           ;main.c: 716:                 flag_CL2 = 0;
 10045     0913  01FA               	clrf	_flag_CL2	;volatile
 10046     0914                     l5622:
 10047                           
 10048                           ;main.c: 717:             if(L == 2)
 10049     0914  3002               	movlw	2
 10050     0915  0672               	xorwf	flag_off@L,w
 10051     0916  1D03               	btfss	3,2
 10052     0917  2919               	goto	u5411
 10053     0918  291A               	goto	u5410
 10054     0919                     u5411:
 10055     0919  2931               	goto	l633
 10056     091A                     u5410:
 10057     091A  2903               	goto	l5612
 10058     091B                     l5628:
 10059     091B  0875               	movf	flag_off@phase,w
 10060     091C  00F3               	movwf	??_flag_off
 10061     091D  01F4               	clrf	??_flag_off+1
 10062                           
 10063                           ; Switch on 2 bytes has been partitioned into a top level switch of size 1, and 1 sub-sw
      +                          itches
 10064                           ; Switch size 1, requested type "simple"
 10065                           ; Number of cases is 1, Range of values is 0 to 0
 10066                           ; switch strategies available:
 10067                           ; Name         Instructions Cycles
 10068                           ; simple_byte            4     3 (average)
 10069                           ; direct_byte            8     6 (fixed)
 10070                           ; jumptable            260     6 (fixed)
 10071                           ;	Chosen strategy is simple_byte
 10072     091E  0874               	movf	??_flag_off+1,w
 10073     091F  3A00               	xorlw	0	; case 0
 10074     0920  1903               	skipnz
 10075     0921  2923               	goto	l6470
 10076     0922  2931               	goto	l633
 10077     0923                     l6470:
 10078                           
 10079                           ; Switch size 1, requested type "simple"
 10080                           ; Number of cases is 4, Range of values is 0 to 5
 10081                           ; switch strategies available:
 10082                           ; Name         Instructions Cycles
 10083                           ; simple_byte           13     7 (average)
 10084                           ; direct_byte           18     6 (fixed)
 10085                           ; jumptable            260     6 (fixed)
 10086                           ;	Chosen strategy is simple_byte
 10087     0923  0873               	movf	??_flag_off,w
 10088     0924  3A00               	xorlw	0	; case 0
 10089     0925  1903               	skipnz
 10090     0926  2905               	goto	l5614
 10091     0927  3A03               	xorlw	3	; case 3
 10092     0928  1903               	skipnz
 10093     0929  28F0               	goto	l5602
 10094     092A  3A07               	xorlw	7	; case 4
 10095     092B  1903               	skipnz
 10096     092C  28F0               	goto	l5602
 10097     092D  3A01               	xorlw	1	; case 5
 10098     092E  1903               	skipnz
 10099     092F  28F0               	goto	l5602
 10100     0930  2931               	goto	l633
 10101     0931                     l633:
 10102     0931  0008               	return
 10103     0932                     __end_of_flag_off:
 10104                           
 10105                           	psect	text19
 10106     0A78                     __ptext19:	
 10107 ;; *************** function _circ_bbuf_pop *****************
 10108 ;; Defined at:
 10109 ;;		line 88 in file "Software_UART.c"
 10110 ;; Parameters:    Size  Location     Type
 10111 ;;  c               2    2[COMMON] PTR struct .
 10112 ;;		 -> my_circ_buf(8), 
 10113 ;;  data            1    4[COMMON] PTR unsigned char 
 10114 ;;		 -> main@ch(1), 
 10115 ;; Auto vars:     Size  Location     Type
 10116 ;;  next            2    0[BANK0 ] int 
 10117 ;; Return value:  Size  Location     Type
 10118 ;;                  2    2[COMMON] int 
 10119 ;; Registers used:
 10120 ;;		wreg, fsr0l, fsr0h, fsr1l, fsr1h, status,2, status,0
 10121 ;; Tracked objects:
 10122 ;;		On entry : 0/0
 10123 ;;		On exit  : 0/0
 10124 ;;		Unchanged: 0/0
 10125 ;; Data sizes:     COMMON   BANK0   BANK1   BANK2   BANK3   BANK4   BANK5   BANK6   BANK7   BANK8   BANK9  BANK10  BANK1
      +1  BANK12  BANK13  BANK14  BANK15  BANK16  BANK17  BANK18  BANK19  BANK20  BANK21  BANK22  BANK23  BANK24  BANK25
 10126 ;;      Params:         3       0       0       0       0       0       0       0       0       0       0       0       
      +0       0       0       0       0       0       0       0       0       0       0       0       0       0       0
 10127 ;;      Locals:         0       2       0       0       0       0       0       0       0       0       0       0       
      +0       0       0       0       0       0       0       0       0       0       0       0       0       0       0
 10128 ;;      Temps:          4       0       0       0       0       0       0       0       0       0       0       0       
      +0       0       0       0       0       0       0       0       0       0       0       0       0       0       0
 10129 ;;      Totals:         7       2       0       0       0       0       0       0       0       0       0       0       
      +0       0       0       0       0       0       0       0       0       0       0       0       0       0       0
 10130 ;;Total ram usage:        9 bytes
 10131 ;; Hardware stack levels used: 1
 10132 ;; Hardware stack levels required when called: 4
 10133 ;; This function calls:
 10134 ;;		Nothing
 10135 ;; This function is called by:
 10136 ;;		_main
 10137 ;; This function uses a non-reentrant model
 10138 ;;
 10139                           
 10140     0A78                     _circ_bbuf_pop:	
 10141                           ;psect for function _circ_bbuf_pop
 10142                           
 10143     0A78                     l5104:	
 10144                           ;incstack = 0
 10145                           ; Regs used in _circ_bbuf_pop: [wreg-fsr1h+status,2+status,0]
 10146                           
 10147                           
 10148                           ;Software_UART.c: 88: int circ_bbuf_pop(circ_bbuf_t *c, uint8_t *data);Software_UART.c: 
      +                          89: {;Software_UART.c: 90:     int next;;Software_UART.c: 92:     if (c->head == c->tail
      +                          )
 10149     0A78  0872               	movf	circ_bbuf_pop@c,w
 10150     0A79  0086               	movwf	6
 10151     0A7A  0873               	movf	circ_bbuf_pop@c+1,w
 10152     0A7B  0087               	movwf	7
 10153     0A7C  3144               	addfsr 1,4
 10154     0A7D  3F40               	moviw [0]fsr1
 10155     0A7E  00F5               	movwf	??_circ_bbuf_pop
 10156     0A7F  3F41               	moviw [1]fsr1
 10157     0A80  00F6               	movwf	??_circ_bbuf_pop+1
 10158     0A81  0872               	movf	circ_bbuf_pop@c,w
 10159     0A82  0086               	movwf	6
 10160     0A83  0873               	movf	circ_bbuf_pop@c+1,w
 10161     0A84  0087               	movwf	7
 10162     0A85  3142               	addfsr 1,2
 10163     0A86  3F40               	moviw [0]fsr1
 10164     0A87  00F7               	movwf	??_circ_bbuf_pop+2
 10165     0A88  3F41               	moviw [1]fsr1
 10166     0A89  00F8               	movwf	??_circ_bbuf_pop+3
 10167     0A8A  0876               	movf	??_circ_bbuf_pop+1,w
 10168     0A8B  0678               	xorwf	??_circ_bbuf_pop+3,w
 10169     0A8C  1D03               	skipz
 10170     0A8D  2A90               	goto	u4615
 10171     0A8E  0875               	movf	??_circ_bbuf_pop,w
 10172     0A8F  0677               	xorwf	??_circ_bbuf_pop+2,w
 10173     0A90                     u4615:
 10174     0A90  1D03               	skipz
 10175     0A91  2A93               	goto	u4611
 10176     0A92  2A94               	goto	u4610
 10177     0A93                     u4611:
 10178     0A93  2A99               	goto	l5110
 10179     0A94                     u4610:
 10180     0A94                     l5106:
 10181                           
 10182                           ;Software_UART.c: 93:         return -1;
 10183     0A94  30FF               	movlw	255
 10184     0A95  00F2               	movwf	?_circ_bbuf_pop
 10185     0A96  30FF               	movlw	255
 10186     0A97  00F3               	movwf	?_circ_bbuf_pop+1
 10187     0A98  2AEB               	goto	l790
 10188     0A99                     l5110:
 10189                           
 10190                           ;Software_UART.c: 95:     next = c->tail + 1;
 10191     0A99  0872               	movf	circ_bbuf_pop@c,w
 10192     0A9A  0086               	movwf	6
 10193     0A9B  0873               	movf	circ_bbuf_pop@c+1,w
 10194     0A9C  0087               	movwf	7
 10195     0A9D  3144               	addfsr 1,4
 10196     0A9E  3F40               	moviw [0]fsr1
 10197     0A9F  00F5               	movwf	??_circ_bbuf_pop
 10198     0AA0  3F41               	moviw [1]fsr1
 10199     0AA1  00F6               	movwf	??_circ_bbuf_pop+1
 10200     0AA2  0875               	movf	??_circ_bbuf_pop,w
 10201     0AA3  3E01               	addlw	1
 10202     0AA4  0140               	movlb	0	; select bank0
 10203     0AA5  00A0               	movwf	circ_bbuf_pop@next
 10204     0AA6  3000               	movlw	0
 10205     0AA7  3D76               	addwfc	??_circ_bbuf_pop+1,w
 10206     0AA8  00A1               	movwf	circ_bbuf_pop@next+1
 10207     0AA9                     l5112:
 10208                           
 10209                           ;Software_UART.c: 96:     if(next >= c->maxlen)
 10210     0AA9  0872               	movf	circ_bbuf_pop@c,w
 10211     0AAA  0086               	movwf	6
 10212     0AAB  0873               	movf	circ_bbuf_pop@c+1,w
 10213     0AAC  0087               	movwf	7
 10214     0AAD  3146               	addfsr 1,6
 10215     0AAE  3F40               	moviw [0]fsr1
 10216     0AAF  00F5               	movwf	??_circ_bbuf_pop
 10217     0AB0  3F41               	moviw [1]fsr1
 10218     0AB1  00F6               	movwf	??_circ_bbuf_pop+1
 10219     0AB2  0821               	movf	circ_bbuf_pop@next+1,w
 10220     0AB3  3A80               	xorlw	128
 10221     0AB4  00F7               	movwf	??_circ_bbuf_pop+2
 10222     0AB5  0876               	movf	??_circ_bbuf_pop+1,w
 10223     0AB6  3A80               	xorlw	128
 10224     0AB7  0277               	subwf	??_circ_bbuf_pop+2,w
 10225     0AB8  1D03               	skipz
 10226     0AB9  2ABC               	goto	u4625
 10227     0ABA  0875               	movf	??_circ_bbuf_pop,w
 10228     0ABB  0220               	subwf	circ_bbuf_pop@next,w
 10229     0ABC                     u4625:
 10230     0ABC  1C03               	skipc
 10231     0ABD  2ABF               	goto	u4621
 10232     0ABE  2AC0               	goto	u4620
 10233     0ABF                     u4621:
 10234     0ABF  2AC3               	goto	l5116
 10235     0AC0                     u4620:
 10236     0AC0                     l5114:
 10237                           
 10238                           ;Software_UART.c: 97:         next = 0;
 10239     0AC0  0140               	movlb	0	; select bank0
 10240     0AC1  01A0               	clrf	circ_bbuf_pop@next
 10241     0AC2  01A1               	clrf	circ_bbuf_pop@next+1
 10242     0AC3                     l5116:
 10243                           
 10244                           ;Software_UART.c: 99:     *data = c->buffer[c->tail];
 10245     0AC3  0874               	movf	circ_bbuf_pop@data,w
 10246     0AC4  0086               	movwf	6
 10247     0AC5  0187               	clrf	7
 10248     0AC6  0872               	movf	circ_bbuf_pop@c,w
 10249     0AC7  0084               	movwf	4
 10250     0AC8  0873               	movf	circ_bbuf_pop@c+1,w
 10251     0AC9  0085               	movwf	5
 10252     0ACA  3104               	addfsr 0,4
 10253     0ACB  3F00               	moviw [0]fsr0
 10254     0ACC  00F5               	movwf	??_circ_bbuf_pop
 10255     0ACD  3F01               	moviw [1]fsr0
 10256     0ACE  00F6               	movwf	??_circ_bbuf_pop+1
 10257     0ACF  0872               	movf	circ_bbuf_pop@c,w
 10258     0AD0  0084               	movwf	4
 10259     0AD1  0873               	movf	circ_bbuf_pop@c+1,w
 10260     0AD2  0085               	movwf	5
 10261     0AD3  3F00               	moviw [0]fsr0
 10262     0AD4  00F7               	movwf	??_circ_bbuf_pop+2
 10263     0AD5  3F01               	moviw [1]fsr0
 10264     0AD6  00F8               	movwf	??_circ_bbuf_pop+3
 10265     0AD7  0875               	movf	??_circ_bbuf_pop,w
 10266     0AD8  0777               	addwf	??_circ_bbuf_pop+2,w
 10267     0AD9  0084               	movwf	4
 10268     0ADA  0876               	movf	??_circ_bbuf_pop+1,w
 10269     0ADB  3D78               	addwfc	??_circ_bbuf_pop+3,w
 10270     0ADC  0085               	movwf	5
 10271     0ADD  0800               	movf	0,w
 10272     0ADE  0081               	movwf	1
 10273     0ADF                     l5118:
 10274                           
 10275                           ;Software_UART.c: 100:     c->tail = next;
 10276     0ADF  0872               	movf	circ_bbuf_pop@c,w
 10277     0AE0  0086               	movwf	6
 10278     0AE1  0873               	movf	circ_bbuf_pop@c+1,w
 10279     0AE2  0087               	movwf	7
 10280     0AE3  3144               	addfsr 1,4
 10281     0AE4  0140               	movlb	0	; select bank0
 10282     0AE5  0820               	movf	circ_bbuf_pop@next,w
 10283     0AE6  3FC0               	movwi [0]fsr1
 10284     0AE7  0821               	movf	circ_bbuf_pop@next+1,w
 10285     0AE8  3FC1               	movwi [1]fsr1
 10286     0AE9                     l5120:
 10287                           
 10288                           ;Software_UART.c: 101:     return 0;
 10289     0AE9  01F2               	clrf	?_circ_bbuf_pop
 10290     0AEA  01F3               	clrf	?_circ_bbuf_pop+1
 10291     0AEB                     l790:
 10292     0AEB  0008               	return
 10293     0AEC                     __end_of_circ_bbuf_pop:
 10294                           
 10295                           	psect	text20
 10296     0E6D                     __ptext20:	
 10297 ;; *************** function _check_sequence_L3 *****************
 10298 ;; Defined at:
 10299 ;;		line 473 in file "main.c"
 10300 ;; Parameters:    Size  Location     Type
 10301 ;;  channel_read    1    wreg     PTR unsigned char 
 10302 ;;		 -> main@reading(6), 
 10303 ;; Auto vars:     Size  Location     Type
 10304 ;;  channel_read    1    2[COMMON] PTR unsigned char 
 10305 ;;		 -> main@reading(6), 
 10306 ;; Return value:  Size  Location     Type
 10307 ;;                  1    wreg      unsigned char 
 10308 ;; Registers used:
 10309 ;;		wreg, fsr1l, fsr1h, status,2, status,0
 10310 ;; Tracked objects:
 10311 ;;		On entry : 0/0
 10312 ;;		On exit  : 0/0
 10313 ;;		Unchanged: 0/0
 10314 ;; Data sizes:     COMMON   BANK0   BANK1   BANK2   BANK3   BANK4   BANK5   BANK6   BANK7   BANK8   BANK9  BANK10  BANK1
      +1  BANK12  BANK13  BANK14  BANK15  BANK16  BANK17  BANK18  BANK19  BANK20  BANK21  BANK22  BANK23  BANK24  BANK25
 10315 ;;      Params:         0       0       0       0       0       0       0       0       0       0       0       0       
      +0       0       0       0       0       0       0       0       0       0       0       0       0       0       0
 10316 ;;      Locals:         1       0       0       0       0       0       0       0       0       0       0       0       
      +0       0       0       0       0       0       0       0       0       0       0       0       0       0       0
 10317 ;;      Temps:          0       0       0       0       0       0       0       0       0       0       0       0       
      +0       0       0       0       0       0       0       0       0       0       0       0       0       0       0
 10318 ;;      Totals:         1       0       0       0       0       0       0       0       0       0       0       0       
      +0       0       0       0       0       0       0       0       0       0       0       0       0       0       0
 10319 ;;Total ram usage:        1 bytes
 10320 ;; Hardware stack levels used: 1
 10321 ;; Hardware stack levels required when called: 4
 10322 ;; This function calls:
 10323 ;;		Nothing
 10324 ;; This function is called by:
 10325 ;;		_main
 10326 ;; This function uses a non-reentrant model
 10327 ;;
 10328                           
 10329     0E6D                     _check_sequence_L3:	
 10330                           ;psect for function _check_sequence_L3
 10331                           
 10332                           
 10333                           ;incstack = 0
 10334                           ; Regs used in _check_sequence_L3: [wreg+fsr1l+fsr1h+status,2+status,0]
 10335                           ;check_sequence_L3@channel_reading stored from wreg
 10336     0E6D  00F2               	movwf	check_sequence_L3@channel_reading
 10337     0E6E                     l5394:
 10338                           
 10339                           ;main.c: 474:     if(*(channel_reading+2) == level_pattern[0])
 10340     0E6E  0872               	movf	check_sequence_L3@channel_reading,w
 10341     0E6F  3E02               	addlw	2
 10342     0E70  0086               	movwf	6
 10343     0E71  3001               	movlw	1	; select bank2/3
 10344     0E72  0087               	movwf	7
 10345     0E73  0801               	movf	1,w
 10346     0E74  0143               	movlb	3	; select bank3
 10347     0E75  0620               	xorwf	_level_pattern^(0+384),w
 10348     0E76  1D03               	skipz
 10349     0E77  2E79               	goto	u4991
 10350     0E78  2E7A               	goto	u4990
 10351     0E79                     u4991:
 10352     0E79  2E7D               	goto	l5402
 10353     0E7A                     u4990:
 10354     0E7A                     l5396:
 10355                           
 10356                           ;main.c: 475:         return(out_seq_L3[0]);
 10357     0E7A  0144               	movlb	4	; select bank4
 10358     0E7B  082C               	movf	_out_seq_L3^(0+512),w
 10359     0E7C  2F13               	goto	l480
 10360     0E7D                     l5402:
 10361     0E7D  0872               	movf	check_sequence_L3@channel_reading,w
 10362     0E7E  3E02               	addlw	2
 10363     0E7F  0086               	movwf	6
 10364     0E80  3001               	movlw	1	; select bank2/3
 10365     0E81  0087               	movwf	7
 10366     0E82  0801               	movf	1,w
 10367     0E83  0621               	xorwf	(_level_pattern^(0+384)+1),w
 10368     0E84  1D03               	skipz
 10369     0E85  2E87               	goto	u5001
 10370     0E86  2E88               	goto	u5000
 10371     0E87                     u5001:
 10372     0E87  2E8B               	goto	l5410
 10373     0E88                     u5000:
 10374     0E88                     l5404:
 10375                           
 10376                           ;main.c: 477:         return(out_seq_L3[1]);
 10377     0E88  0144               	movlb	4	; select bank4
 10378     0E89  082D               	movf	(_out_seq_L3^(0+512)+1),w
 10379     0E8A  2F13               	goto	l480
 10380     0E8B                     l5410:
 10381     0E8B  0A72               	incf	check_sequence_L3@channel_reading,w
 10382     0E8C  0086               	movwf	6
 10383     0E8D  3001               	movlw	1	; select bank2/3
 10384     0E8E  0087               	movwf	7
 10385     0E8F  0801               	movf	1,w
 10386     0E90  0622               	xorwf	(_level_pattern^(0+384)+2),w
 10387     0E91  1D03               	skipz
 10388     0E92  2E94               	goto	u5011
 10389     0E93  2E95               	goto	u5010
 10390     0E94                     u5011:
 10391     0E94  2E98               	goto	l5418
 10392     0E95                     u5010:
 10393     0E95                     l5412:
 10394                           
 10395                           ;main.c: 479:         return(out_seq_L3[2]);
 10396     0E95  0144               	movlb	4	; select bank4
 10397     0E96  082E               	movf	(_out_seq_L3^(0+512)+2),w
 10398     0E97  2F13               	goto	l480
 10399     0E98                     l5418:
 10400     0E98  0872               	movf	check_sequence_L3@channel_reading,w
 10401     0E99  0086               	movwf	6
 10402     0E9A  3001               	movlw	1	; select bank2/3
 10403     0E9B  0087               	movwf	7
 10404     0E9C  0801               	movf	1,w
 10405     0E9D  0623               	xorwf	(_level_pattern^(0+384)+3),w
 10406     0E9E  1D03               	skipz
 10407     0E9F  2EA1               	goto	u5021
 10408     0EA0  2EA2               	goto	u5020
 10409     0EA1                     u5021:
 10410     0EA1  2EA5               	goto	l5426
 10411     0EA2                     u5020:
 10412     0EA2                     l5420:
 10413                           
 10414                           ;main.c: 481:         return(out_seq_L3[3]);
 10415     0EA2  0144               	movlb	4	; select bank4
 10416     0EA3  082F               	movf	(_out_seq_L3^(0+512)+3),w
 10417     0EA4  2F13               	goto	l480
 10418     0EA5                     l5426:
 10419     0EA5  0A72               	incf	check_sequence_L3@channel_reading,w
 10420     0EA6  0086               	movwf	6
 10421     0EA7  3001               	movlw	1	; select bank2/3
 10422     0EA8  0087               	movwf	7
 10423     0EA9  0801               	movf	1,w
 10424     0EAA  0624               	xorwf	(_level_pattern^(0+384)+4),w
 10425     0EAB  1D03               	skipz
 10426     0EAC  2EAE               	goto	u5031
 10427     0EAD  2EAF               	goto	u5030
 10428     0EAE                     u5031:
 10429     0EAE  2EB2               	goto	l5434
 10430     0EAF                     u5030:
 10431     0EAF                     l5428:
 10432                           
 10433                           ;main.c: 483:         return(out_seq_L3[4]);
 10434     0EAF  0144               	movlb	4	; select bank4
 10435     0EB0  0830               	movf	(_out_seq_L3^(0+512)+4),w
 10436     0EB1  2F13               	goto	l480
 10437     0EB2                     l5434:
 10438     0EB2  0872               	movf	check_sequence_L3@channel_reading,w
 10439     0EB3  0086               	movwf	6
 10440     0EB4  3001               	movlw	1	; select bank2/3
 10441     0EB5  0087               	movwf	7
 10442     0EB6  0801               	movf	1,w
 10443     0EB7  0625               	xorwf	(_level_pattern^(0+384)+5),w
 10444     0EB8  1D03               	skipz
 10445     0EB9  2EBB               	goto	u5041
 10446     0EBA  2EBC               	goto	u5040
 10447     0EBB                     u5041:
 10448     0EBB  2EBF               	goto	l5442
 10449     0EBC                     u5040:
 10450     0EBC                     l5436:
 10451                           
 10452                           ;main.c: 485:         return(out_seq_L3[5]);
 10453     0EBC  0144               	movlb	4	; select bank4
 10454     0EBD  0831               	movf	(_out_seq_L3^(0+512)+5),w
 10455     0EBE  2F13               	goto	l480
 10456     0EBF                     l5442:
 10457     0EBF  0872               	movf	check_sequence_L3@channel_reading,w
 10458     0EC0  3E02               	addlw	2
 10459     0EC1  0086               	movwf	6
 10460     0EC2  3001               	movlw	1	; select bank2/3
 10461     0EC3  0087               	movwf	7
 10462     0EC4  0801               	movf	1,w
 10463     0EC5  0626               	xorwf	(_level_pattern^(0+384)+6),w
 10464     0EC6  1D03               	skipz
 10465     0EC7  2EC9               	goto	u5051
 10466     0EC8  2ECA               	goto	u5050
 10467     0EC9                     u5051:
 10468     0EC9  2ECD               	goto	l5450
 10469     0ECA                     u5050:
 10470     0ECA                     l5444:
 10471                           
 10472                           ;main.c: 487:         return(out_seq_L3[6]);
 10473     0ECA  0144               	movlb	4	; select bank4
 10474     0ECB  0832               	movf	(_out_seq_L3^(0+512)+6),w
 10475     0ECC  2F13               	goto	l480
 10476     0ECD                     l5450:
 10477     0ECD  0A72               	incf	check_sequence_L3@channel_reading,w
 10478     0ECE  0086               	movwf	6
 10479     0ECF  3001               	movlw	1	; select bank2/3
 10480     0ED0  0087               	movwf	7
 10481     0ED1  0801               	movf	1,w
 10482     0ED2  0627               	xorwf	(_level_pattern^(0+384)+7),w
 10483     0ED3  1D03               	skipz
 10484     0ED4  2ED6               	goto	u5061
 10485     0ED5  2ED7               	goto	u5060
 10486     0ED6                     u5061:
 10487     0ED6  2EDA               	goto	l5458
 10488     0ED7                     u5060:
 10489     0ED7                     l5452:
 10490                           
 10491                           ;main.c: 489:         return(out_seq_L3[7]);
 10492     0ED7  0144               	movlb	4	; select bank4
 10493     0ED8  0833               	movf	(_out_seq_L3^(0+512)+7),w
 10494     0ED9  2F13               	goto	l480
 10495     0EDA                     l5458:
 10496     0EDA  0872               	movf	check_sequence_L3@channel_reading,w
 10497     0EDB  0086               	movwf	6
 10498     0EDC  3001               	movlw	1	; select bank2/3
 10499     0EDD  0087               	movwf	7
 10500     0EDE  0801               	movf	1,w
 10501     0EDF  0628               	xorwf	(_level_pattern^(0+384)+8),w
 10502     0EE0  1D03               	skipz
 10503     0EE1  2EE3               	goto	u5071
 10504     0EE2  2EE4               	goto	u5070
 10505     0EE3                     u5071:
 10506     0EE3  2EE7               	goto	l5466
 10507     0EE4                     u5070:
 10508     0EE4                     l5460:
 10509                           
 10510                           ;main.c: 491:         return(out_seq_L3[8]);
 10511     0EE4  0144               	movlb	4	; select bank4
 10512     0EE5  0834               	movf	(_out_seq_L3^(0+512)+8),w
 10513     0EE6  2F13               	goto	l480
 10514     0EE7                     l5466:
 10515     0EE7  0872               	movf	check_sequence_L3@channel_reading,w
 10516     0EE8  3E03               	addlw	3
 10517     0EE9  0086               	movwf	6
 10518     0EEA  3001               	movlw	1	; select bank2/3
 10519     0EEB  0087               	movwf	7
 10520     0EEC  0801               	movf	1,w
 10521     0EED  0629               	xorwf	(_level_pattern^(0+384)+9),w
 10522     0EEE  1D03               	skipz
 10523     0EEF  2EF1               	goto	u5081
 10524     0EF0  2EF2               	goto	u5080
 10525     0EF1                     u5081:
 10526     0EF1  2EF5               	goto	l5474
 10527     0EF2                     u5080:
 10528     0EF2                     l5468:
 10529                           
 10530                           ;main.c: 493:         return(out_seq_L3[9]);
 10531     0EF2  0144               	movlb	4	; select bank4
 10532     0EF3  0835               	movf	(_out_seq_L3^(0+512)+9),w
 10533     0EF4  2F13               	goto	l480
 10534     0EF5                     l5474:
 10535     0EF5  0872               	movf	check_sequence_L3@channel_reading,w
 10536     0EF6  3E04               	addlw	4
 10537     0EF7  0086               	movwf	6
 10538     0EF8  3001               	movlw	1	; select bank2/3
 10539     0EF9  0087               	movwf	7
 10540     0EFA  0801               	movf	1,w
 10541     0EFB  062A               	xorwf	(_level_pattern^(0+384)+10),w
 10542     0EFC  1D03               	skipz
 10543     0EFD  2EFF               	goto	u5091
 10544     0EFE  2F00               	goto	u5090
 10545     0EFF                     u5091:
 10546     0EFF  2F03               	goto	l5482
 10547     0F00                     u5090:
 10548     0F00                     l5476:
 10549                           
 10550                           ;main.c: 495:         return(out_seq_L3[10]);
 10551     0F00  0144               	movlb	4	; select bank4
 10552     0F01  0836               	movf	(_out_seq_L3^(0+512)+10),w
 10553     0F02  2F13               	goto	l480
 10554     0F03                     l5482:
 10555     0F03  0872               	movf	check_sequence_L3@channel_reading,w
 10556     0F04  3E05               	addlw	5
 10557     0F05  0086               	movwf	6
 10558     0F06  3001               	movlw	1	; select bank2/3
 10559     0F07  0087               	movwf	7
 10560     0F08  0801               	movf	1,w
 10561     0F09  062B               	xorwf	(_level_pattern^(0+384)+11),w
 10562     0F0A  1D03               	skipz
 10563     0F0B  2F0D               	goto	u5101
 10564     0F0C  2F0E               	goto	u5100
 10565     0F0D                     u5101:
 10566     0F0D  2F11               	goto	l5490
 10567     0F0E                     u5100:
 10568     0F0E                     l5484:
 10569                           
 10570                           ;main.c: 497:         return(out_seq_L3[11]);
 10571     0F0E  0144               	movlb	4	; select bank4
 10572     0F0F  0837               	movf	(_out_seq_L3^(0+512)+11),w
 10573     0F10  2F13               	goto	l480
 10574     0F11                     l5490:
 10575                           
 10576                           ;main.c: 499:         return(out_seq_L3[12]);
 10577     0F11  0144               	movlb	4	; select bank4
 10578     0F12  0838               	movf	(_out_seq_L3^(0+512)+12),w
 10579     0F13                     l480:
 10580     0F13  0008               	return
 10581     0F14                     __end_of_check_sequence_L3:
 10582                           
 10583                           	psect	text21
 10584     0DD3                     __ptext21:	
 10585 ;; *************** function _check_sequence_L2 *****************
 10586 ;; Defined at:
 10587 ;;		line 444 in file "main.c"
 10588 ;; Parameters:    Size  Location     Type
 10589 ;;  channel_read    1    wreg     PTR unsigned char 
 10590 ;;		 -> main@reading(6), 
 10591 ;; Auto vars:     Size  Location     Type
 10592 ;;  channel_read    1    2[COMMON] PTR unsigned char 
 10593 ;;		 -> main@reading(6), 
 10594 ;; Return value:  Size  Location     Type
 10595 ;;                  1    wreg      unsigned char 
 10596 ;; Registers used:
 10597 ;;		wreg, fsr1l, fsr1h, status,2, status,0
 10598 ;; Tracked objects:
 10599 ;;		On entry : 0/0
 10600 ;;		On exit  : 0/0
 10601 ;;		Unchanged: 0/0
 10602 ;; Data sizes:     COMMON   BANK0   BANK1   BANK2   BANK3   BANK4   BANK5   BANK6   BANK7   BANK8   BANK9  BANK10  BANK1
      +1  BANK12  BANK13  BANK14  BANK15  BANK16  BANK17  BANK18  BANK19  BANK20  BANK21  BANK22  BANK23  BANK24  BANK25
 10603 ;;      Params:         0       0       0       0       0       0       0       0       0       0       0       0       
      +0       0       0       0       0       0       0       0       0       0       0       0       0       0       0
 10604 ;;      Locals:         1       0       0       0       0       0       0       0       0       0       0       0       
      +0       0       0       0       0       0       0       0       0       0       0       0       0       0       0
 10605 ;;      Temps:          0       0       0       0       0       0       0       0       0       0       0       0       
      +0       0       0       0       0       0       0       0       0       0       0       0       0       0       0
 10606 ;;      Totals:         1       0       0       0       0       0       0       0       0       0       0       0       
      +0       0       0       0       0       0       0       0       0       0       0       0       0       0       0
 10607 ;;Total ram usage:        1 bytes
 10608 ;; Hardware stack levels used: 1
 10609 ;; Hardware stack levels required when called: 4
 10610 ;; This function calls:
 10611 ;;		Nothing
 10612 ;; This function is called by:
 10613 ;;		_main
 10614 ;; This function uses a non-reentrant model
 10615 ;;
 10616                           
 10617     0DD3                     _check_sequence_L2:	
 10618                           ;psect for function _check_sequence_L2
 10619                           
 10620                           
 10621                           ;incstack = 0
 10622                           ; Regs used in _check_sequence_L2: [wreg+fsr1l+fsr1h+status,2+status,0]
 10623                           ;check_sequence_L2@channel_reading stored from wreg
 10624     0DD3  00F2               	movwf	check_sequence_L2@channel_reading
 10625     0DD4                     l5294:
 10626                           
 10627                           ;main.c: 445:     if(*(channel_reading+1) == level_pattern[0])
 10628     0DD4  0A72               	incf	check_sequence_L2@channel_reading,w
 10629     0DD5  0086               	movwf	6
 10630     0DD6  3001               	movlw	1	; select bank2/3
 10631     0DD7  0087               	movwf	7
 10632     0DD8  0801               	movf	1,w
 10633     0DD9  0143               	movlb	3	; select bank3
 10634     0DDA  0620               	xorwf	_level_pattern^(0+384),w
 10635     0DDB  1D03               	skipz
 10636     0DDC  2DDE               	goto	u4871
 10637     0DDD  2DDF               	goto	u4870
 10638     0DDE                     u4871:
 10639     0DDE  2DE1               	goto	l5302
 10640     0DDF                     u4870:
 10641     0DDF                     l5296:
 10642                           
 10643                           ;main.c: 446:         return(out_seq_L2[0]);
 10644     0DDF  082C               	movf	_out_seq_L2^(0+384),w
 10645     0DE0  2E6C               	goto	l453
 10646     0DE1                     l5302:
 10647     0DE1  0A72               	incf	check_sequence_L2@channel_reading,w
 10648     0DE2  0086               	movwf	6
 10649     0DE3  3001               	movlw	1	; select bank2/3
 10650     0DE4  0087               	movwf	7
 10651     0DE5  0801               	movf	1,w
 10652     0DE6  0621               	xorwf	(_level_pattern^(0+384)+1),w
 10653     0DE7  1D03               	skipz
 10654     0DE8  2DEA               	goto	u4881
 10655     0DE9  2DEB               	goto	u4880
 10656     0DEA                     u4881:
 10657     0DEA  2DED               	goto	l5310
 10658     0DEB                     u4880:
 10659     0DEB                     l5304:
 10660                           
 10661                           ;main.c: 448:         return(out_seq_L2[1]);
 10662     0DEB  082D               	movf	(_out_seq_L2^(0+384)+1),w
 10663     0DEC  2E6C               	goto	l453
 10664     0DED                     l5310:
 10665     0DED  0872               	movf	check_sequence_L2@channel_reading,w
 10666     0DEE  3E02               	addlw	2
 10667     0DEF  0086               	movwf	6
 10668     0DF0  3001               	movlw	1	; select bank2/3
 10669     0DF1  0087               	movwf	7
 10670     0DF2  0801               	movf	1,w
 10671     0DF3  0622               	xorwf	(_level_pattern^(0+384)+2),w
 10672     0DF4  1D03               	skipz
 10673     0DF5  2DF7               	goto	u4891
 10674     0DF6  2DF8               	goto	u4890
 10675     0DF7                     u4891:
 10676     0DF7  2DFA               	goto	l5318
 10677     0DF8                     u4890:
 10678     0DF8                     l5312:
 10679                           
 10680                           ;main.c: 450:         return(out_seq_L2[2]);
 10681     0DF8  082E               	movf	(_out_seq_L2^(0+384)+2),w
 10682     0DF9  2E6C               	goto	l453
 10683     0DFA                     l5318:
 10684     0DFA  0872               	movf	check_sequence_L2@channel_reading,w
 10685     0DFB  0086               	movwf	6
 10686     0DFC  3001               	movlw	1	; select bank2/3
 10687     0DFD  0087               	movwf	7
 10688     0DFE  0801               	movf	1,w
 10689     0DFF  0623               	xorwf	(_level_pattern^(0+384)+3),w
 10690     0E00  1D03               	skipz
 10691     0E01  2E03               	goto	u4901
 10692     0E02  2E04               	goto	u4900
 10693     0E03                     u4901:
 10694     0E03  2E06               	goto	l5326
 10695     0E04                     u4900:
 10696     0E04                     l5320:
 10697                           
 10698                           ;main.c: 452:         return(out_seq_L2[3]);
 10699     0E04  082F               	movf	(_out_seq_L2^(0+384)+3),w
 10700     0E05  2E6C               	goto	l453
 10701     0E06                     l5326:
 10702     0E06  0872               	movf	check_sequence_L2@channel_reading,w
 10703     0E07  3E02               	addlw	2
 10704     0E08  0086               	movwf	6
 10705     0E09  3001               	movlw	1	; select bank2/3
 10706     0E0A  0087               	movwf	7
 10707     0E0B  0801               	movf	1,w
 10708     0E0C  0624               	xorwf	(_level_pattern^(0+384)+4),w
 10709     0E0D  1D03               	skipz
 10710     0E0E  2E10               	goto	u4911
 10711     0E0F  2E11               	goto	u4910
 10712     0E10                     u4911:
 10713     0E10  2E13               	goto	l5334
 10714     0E11                     u4910:
 10715     0E11                     l5328:
 10716                           
 10717                           ;main.c: 454:         return(out_seq_L2[4]);
 10718     0E11  0830               	movf	(_out_seq_L2^(0+384)+4),w
 10719     0E12  2E6C               	goto	l453
 10720     0E13                     l5334:
 10721     0E13  0872               	movf	check_sequence_L2@channel_reading,w
 10722     0E14  0086               	movwf	6
 10723     0E15  3001               	movlw	1	; select bank2/3
 10724     0E16  0087               	movwf	7
 10725     0E17  0801               	movf	1,w
 10726     0E18  0625               	xorwf	(_level_pattern^(0+384)+5),w
 10727     0E19  1D03               	skipz
 10728     0E1A  2E1C               	goto	u4921
 10729     0E1B  2E1D               	goto	u4920
 10730     0E1C                     u4921:
 10731     0E1C  2E1F               	goto	l5342
 10732     0E1D                     u4920:
 10733     0E1D                     l5336:
 10734                           
 10735                           ;main.c: 456:         return(out_seq_L2[5]);
 10736     0E1D  0831               	movf	(_out_seq_L2^(0+384)+5),w
 10737     0E1E  2E6C               	goto	l453
 10738     0E1F                     l5342:
 10739     0E1F  0A72               	incf	check_sequence_L2@channel_reading,w
 10740     0E20  0086               	movwf	6
 10741     0E21  3001               	movlw	1	; select bank2/3
 10742     0E22  0087               	movwf	7
 10743     0E23  0801               	movf	1,w
 10744     0E24  0626               	xorwf	(_level_pattern^(0+384)+6),w
 10745     0E25  1D03               	skipz
 10746     0E26  2E28               	goto	u4931
 10747     0E27  2E29               	goto	u4930
 10748     0E28                     u4931:
 10749     0E28  2E2B               	goto	l5350
 10750     0E29                     u4930:
 10751     0E29                     l5344:
 10752                           
 10753                           ;main.c: 458:         return(out_seq_L2[6]);
 10754     0E29  0832               	movf	(_out_seq_L2^(0+384)+6),w
 10755     0E2A  2E6C               	goto	l453
 10756     0E2B                     l5350:
 10757     0E2B  0872               	movf	check_sequence_L2@channel_reading,w
 10758     0E2C  3E02               	addlw	2
 10759     0E2D  0086               	movwf	6
 10760     0E2E  3001               	movlw	1	; select bank2/3
 10761     0E2F  0087               	movwf	7
 10762     0E30  0801               	movf	1,w
 10763     0E31  0627               	xorwf	(_level_pattern^(0+384)+7),w
 10764     0E32  1D03               	skipz
 10765     0E33  2E35               	goto	u4941
 10766     0E34  2E36               	goto	u4940
 10767     0E35                     u4941:
 10768     0E35  2E38               	goto	l5358
 10769     0E36                     u4940:
 10770     0E36                     l5352:
 10771                           
 10772                           ;main.c: 460:         return(out_seq_L2[7]);
 10773     0E36  0833               	movf	(_out_seq_L2^(0+384)+7),w
 10774     0E37  2E6C               	goto	l453
 10775     0E38                     l5358:
 10776     0E38  0872               	movf	check_sequence_L2@channel_reading,w
 10777     0E39  0086               	movwf	6
 10778     0E3A  3001               	movlw	1	; select bank2/3
 10779     0E3B  0087               	movwf	7
 10780     0E3C  0801               	movf	1,w
 10781     0E3D  0628               	xorwf	(_level_pattern^(0+384)+8),w
 10782     0E3E  1D03               	skipz
 10783     0E3F  2E41               	goto	u4951
 10784     0E40  2E42               	goto	u4950
 10785     0E41                     u4951:
 10786     0E41  2E44               	goto	l5366
 10787     0E42                     u4950:
 10788     0E42                     l5360:
 10789                           
 10790                           ;main.c: 462:         return(out_seq_L2[8]);
 10791     0E42  0834               	movf	(_out_seq_L2^(0+384)+8),w
 10792     0E43  2E6C               	goto	l453
 10793     0E44                     l5366:
 10794     0E44  0872               	movf	check_sequence_L2@channel_reading,w
 10795     0E45  3E03               	addlw	3
 10796     0E46  0086               	movwf	6
 10797     0E47  3001               	movlw	1	; select bank2/3
 10798     0E48  0087               	movwf	7
 10799     0E49  0801               	movf	1,w
 10800     0E4A  0629               	xorwf	(_level_pattern^(0+384)+9),w
 10801     0E4B  1D03               	skipz
 10802     0E4C  2E4E               	goto	u4961
 10803     0E4D  2E4F               	goto	u4960
 10804     0E4E                     u4961:
 10805     0E4E  2E51               	goto	l5374
 10806     0E4F                     u4960:
 10807     0E4F                     l5368:
 10808                           
 10809                           ;main.c: 464:         return(out_seq_L2[9]);
 10810     0E4F  0835               	movf	(_out_seq_L2^(0+384)+9),w
 10811     0E50  2E6C               	goto	l453
 10812     0E51                     l5374:
 10813     0E51  0872               	movf	check_sequence_L2@channel_reading,w
 10814     0E52  3E04               	addlw	4
 10815     0E53  0086               	movwf	6
 10816     0E54  3001               	movlw	1	; select bank2/3
 10817     0E55  0087               	movwf	7
 10818     0E56  0801               	movf	1,w
 10819     0E57  062A               	xorwf	(_level_pattern^(0+384)+10),w
 10820     0E58  1D03               	skipz
 10821     0E59  2E5B               	goto	u4971
 10822     0E5A  2E5C               	goto	u4970
 10823     0E5B                     u4971:
 10824     0E5B  2E5E               	goto	l5382
 10825     0E5C                     u4970:
 10826     0E5C                     l5376:
 10827                           
 10828                           ;main.c: 466:         return(out_seq_L2[10]);
 10829     0E5C  0836               	movf	(_out_seq_L2^(0+384)+10),w
 10830     0E5D  2E6C               	goto	l453
 10831     0E5E                     l5382:
 10832     0E5E  0872               	movf	check_sequence_L2@channel_reading,w
 10833     0E5F  3E05               	addlw	5
 10834     0E60  0086               	movwf	6
 10835     0E61  3001               	movlw	1	; select bank2/3
 10836     0E62  0087               	movwf	7
 10837     0E63  0801               	movf	1,w
 10838     0E64  062B               	xorwf	(_level_pattern^(0+384)+11),w
 10839     0E65  1D03               	skipz
 10840     0E66  2E68               	goto	u4981
 10841     0E67  2E69               	goto	u4980
 10842     0E68                     u4981:
 10843     0E68  2E6B               	goto	l5390
 10844     0E69                     u4980:
 10845     0E69                     l5384:
 10846                           
 10847                           ;main.c: 468:         return(out_seq_L2[11]);
 10848     0E69  0837               	movf	(_out_seq_L2^(0+384)+11),w
 10849     0E6A  2E6C               	goto	l453
 10850     0E6B                     l5390:
 10851                           
 10852                           ;main.c: 470:         return(out_seq_L2[12]);
 10853     0E6B  0838               	movf	(_out_seq_L2^(0+384)+12),w
 10854     0E6C                     l453:
 10855     0E6C  0008               	return
 10856     0E6D                     __end_of_check_sequence_L2:
 10857                           
 10858                           	psect	text22
 10859     0D39                     __ptext22:	
 10860 ;; *************** function _check_sequence_L1 *****************
 10861 ;; Defined at:
 10862 ;;		line 415 in file "main.c"
 10863 ;; Parameters:    Size  Location     Type
 10864 ;;  channel_read    1    wreg     PTR unsigned char 
 10865 ;;		 -> main@reading(6), 
 10866 ;; Auto vars:     Size  Location     Type
 10867 ;;  channel_read    1    2[COMMON] PTR unsigned char 
 10868 ;;		 -> main@reading(6), 
 10869 ;; Return value:  Size  Location     Type
 10870 ;;                  1    wreg      unsigned char 
 10871 ;; Registers used:
 10872 ;;		wreg, fsr1l, fsr1h, status,2, status,0
 10873 ;; Tracked objects:
 10874 ;;		On entry : 0/0
 10875 ;;		On exit  : 0/0
 10876 ;;		Unchanged: 0/0
 10877 ;; Data sizes:     COMMON   BANK0   BANK1   BANK2   BANK3   BANK4   BANK5   BANK6   BANK7   BANK8   BANK9  BANK10  BANK1
      +1  BANK12  BANK13  BANK14  BANK15  BANK16  BANK17  BANK18  BANK19  BANK20  BANK21  BANK22  BANK23  BANK24  BANK25
 10878 ;;      Params:         0       0       0       0       0       0       0       0       0       0       0       0       
      +0       0       0       0       0       0       0       0       0       0       0       0       0       0       0
 10879 ;;      Locals:         1       0       0       0       0       0       0       0       0       0       0       0       
      +0       0       0       0       0       0       0       0       0       0       0       0       0       0       0
 10880 ;;      Temps:          0       0       0       0       0       0       0       0       0       0       0       0       
      +0       0       0       0       0       0       0       0       0       0       0       0       0       0       0
 10881 ;;      Totals:         1       0       0       0       0       0       0       0       0       0       0       0       
      +0       0       0       0       0       0       0       0       0       0       0       0       0       0       0
 10882 ;;Total ram usage:        1 bytes
 10883 ;; Hardware stack levels used: 1
 10884 ;; Hardware stack levels required when called: 4
 10885 ;; This function calls:
 10886 ;;		Nothing
 10887 ;; This function is called by:
 10888 ;;		_main
 10889 ;; This function uses a non-reentrant model
 10890 ;;
 10891                           
 10892     0D39                     _check_sequence_L1:	
 10893                           ;psect for function _check_sequence_L1
 10894                           
 10895                           
 10896                           ;incstack = 0
 10897                           ; Regs used in _check_sequence_L1: [wreg+fsr1l+fsr1h+status,2+status,0]
 10898                           ;check_sequence_L1@channel_reading stored from wreg
 10899     0D39  00F2               	movwf	check_sequence_L1@channel_reading
 10900     0D3A                     l5194:
 10901                           
 10902                           ;main.c: 416:     if(*(channel_reading+0) == level_pattern[0])
 10903     0D3A  0872               	movf	check_sequence_L1@channel_reading,w
 10904     0D3B  0086               	movwf	6
 10905     0D3C  3001               	movlw	1	; select bank2/3
 10906     0D3D  0087               	movwf	7
 10907     0D3E  0801               	movf	1,w
 10908     0D3F  0143               	movlb	3	; select bank3
 10909     0D40  0620               	xorwf	_level_pattern^(0+384),w
 10910     0D41  1D03               	skipz
 10911     0D42  2D44               	goto	u4751
 10912     0D43  2D45               	goto	u4750
 10913     0D44                     u4751:
 10914     0D44  2D47               	goto	l5202
 10915     0D45                     u4750:
 10916     0D45                     l5196:
 10917                           
 10918                           ;main.c: 417:         return(out_seq_L1[0]);
 10919     0D45  0839               	movf	_out_seq_L1^(0+384),w
 10920     0D46  2DD2               	goto	l426
 10921     0D47                     l5202:
 10922     0D47  0872               	movf	check_sequence_L1@channel_reading,w
 10923     0D48  0086               	movwf	6
 10924     0D49  3001               	movlw	1	; select bank2/3
 10925     0D4A  0087               	movwf	7
 10926     0D4B  0801               	movf	1,w
 10927     0D4C  0621               	xorwf	(_level_pattern^(0+384)+1),w
 10928     0D4D  1D03               	skipz
 10929     0D4E  2D50               	goto	u4761
 10930     0D4F  2D51               	goto	u4760
 10931     0D50                     u4761:
 10932     0D50  2D53               	goto	l5210
 10933     0D51                     u4760:
 10934     0D51                     l5204:
 10935                           
 10936                           ;main.c: 419:         return(out_seq_L1[1]);
 10937     0D51  083A               	movf	(_out_seq_L1^(0+384)+1),w
 10938     0D52  2DD2               	goto	l426
 10939     0D53                     l5210:
 10940     0D53  0A72               	incf	check_sequence_L1@channel_reading,w
 10941     0D54  0086               	movwf	6
 10942     0D55  3001               	movlw	1	; select bank2/3
 10943     0D56  0087               	movwf	7
 10944     0D57  0801               	movf	1,w
 10945     0D58  0622               	xorwf	(_level_pattern^(0+384)+2),w
 10946     0D59  1D03               	skipz
 10947     0D5A  2D5C               	goto	u4771
 10948     0D5B  2D5D               	goto	u4770
 10949     0D5C                     u4771:
 10950     0D5C  2D5F               	goto	l5218
 10951     0D5D                     u4770:
 10952     0D5D                     l5212:
 10953                           
 10954                           ;main.c: 421:         return(out_seq_L1[2]);
 10955     0D5D  083B               	movf	(_out_seq_L1^(0+384)+2),w
 10956     0D5E  2DD2               	goto	l426
 10957     0D5F                     l5218:
 10958     0D5F  0872               	movf	check_sequence_L1@channel_reading,w
 10959     0D60  3E02               	addlw	2
 10960     0D61  0086               	movwf	6
 10961     0D62  3001               	movlw	1	; select bank2/3
 10962     0D63  0087               	movwf	7
 10963     0D64  0801               	movf	1,w
 10964     0D65  0623               	xorwf	(_level_pattern^(0+384)+3),w
 10965     0D66  1D03               	skipz
 10966     0D67  2D69               	goto	u4781
 10967     0D68  2D6A               	goto	u4780
 10968     0D69                     u4781:
 10969     0D69  2D6C               	goto	l5226
 10970     0D6A                     u4780:
 10971     0D6A                     l5220:
 10972                           
 10973                           ;main.c: 423:         return(out_seq_L1[3]);
 10974     0D6A  083C               	movf	(_out_seq_L1^(0+384)+3),w
 10975     0D6B  2DD2               	goto	l426
 10976     0D6C                     l5226:
 10977     0D6C  0A72               	incf	check_sequence_L1@channel_reading,w
 10978     0D6D  0086               	movwf	6
 10979     0D6E  3001               	movlw	1	; select bank2/3
 10980     0D6F  0087               	movwf	7
 10981     0D70  0801               	movf	1,w
 10982     0D71  0624               	xorwf	(_level_pattern^(0+384)+4),w
 10983     0D72  1D03               	skipz
 10984     0D73  2D75               	goto	u4791
 10985     0D74  2D76               	goto	u4790
 10986     0D75                     u4791:
 10987     0D75  2D78               	goto	l5234
 10988     0D76                     u4790:
 10989     0D76                     l5228:
 10990                           
 10991                           ;main.c: 425:         return(out_seq_L1[4]);
 10992     0D76  083D               	movf	(_out_seq_L1^(0+384)+4),w
 10993     0D77  2DD2               	goto	l426
 10994     0D78                     l5234:
 10995     0D78  0872               	movf	check_sequence_L1@channel_reading,w
 10996     0D79  3E02               	addlw	2
 10997     0D7A  0086               	movwf	6
 10998     0D7B  3001               	movlw	1	; select bank2/3
 10999     0D7C  0087               	movwf	7
 11000     0D7D  0801               	movf	1,w
 11001     0D7E  0625               	xorwf	(_level_pattern^(0+384)+5),w
 11002     0D7F  1D03               	skipz
 11003     0D80  2D82               	goto	u4801
 11004     0D81  2D83               	goto	u4800
 11005     0D82                     u4801:
 11006     0D82  2D85               	goto	l5242
 11007     0D83                     u4800:
 11008     0D83                     l5236:
 11009                           
 11010                           ;main.c: 427:         return(out_seq_L1[5]);
 11011     0D83  083E               	movf	(_out_seq_L1^(0+384)+5),w
 11012     0D84  2DD2               	goto	l426
 11013     0D85                     l5242:
 11014     0D85  0872               	movf	check_sequence_L1@channel_reading,w
 11015     0D86  0086               	movwf	6
 11016     0D87  3001               	movlw	1	; select bank2/3
 11017     0D88  0087               	movwf	7
 11018     0D89  0801               	movf	1,w
 11019     0D8A  0626               	xorwf	(_level_pattern^(0+384)+6),w
 11020     0D8B  1D03               	skipz
 11021     0D8C  2D8E               	goto	u4811
 11022     0D8D  2D8F               	goto	u4810
 11023     0D8E                     u4811:
 11024     0D8E  2D91               	goto	l5250
 11025     0D8F                     u4810:
 11026     0D8F                     l5244:
 11027                           
 11028                           ;main.c: 429:         return(out_seq_L1[6]);
 11029     0D8F  083F               	movf	(_out_seq_L1^(0+384)+6),w
 11030     0D90  2DD2               	goto	l426
 11031     0D91                     l5250:
 11032     0D91  0A72               	incf	check_sequence_L1@channel_reading,w
 11033     0D92  0086               	movwf	6
 11034     0D93  3001               	movlw	1	; select bank2/3
 11035     0D94  0087               	movwf	7
 11036     0D95  0801               	movf	1,w
 11037     0D96  0627               	xorwf	(_level_pattern^(0+384)+7),w
 11038     0D97  1D03               	skipz
 11039     0D98  2D9A               	goto	u4821
 11040     0D99  2D9B               	goto	u4820
 11041     0D9A                     u4821:
 11042     0D9A  2D9D               	goto	l5258
 11043     0D9B                     u4820:
 11044     0D9B                     l5252:
 11045                           
 11046                           ;main.c: 431:         return(out_seq_L1[7]);
 11047     0D9B  0840               	movf	(_out_seq_L1^(0+384)+7),w
 11048     0D9C  2DD2               	goto	l426
 11049     0D9D                     l5258:
 11050     0D9D  0872               	movf	check_sequence_L1@channel_reading,w
 11051     0D9E  3E02               	addlw	2
 11052     0D9F  0086               	movwf	6
 11053     0DA0  3001               	movlw	1	; select bank2/3
 11054     0DA1  0087               	movwf	7
 11055     0DA2  0801               	movf	1,w
 11056     0DA3  0628               	xorwf	(_level_pattern^(0+384)+8),w
 11057     0DA4  1D03               	skipz
 11058     0DA5  2DA7               	goto	u4831
 11059     0DA6  2DA8               	goto	u4830
 11060     0DA7                     u4831:
 11061     0DA7  2DAA               	goto	l5266
 11062     0DA8                     u4830:
 11063     0DA8                     l5260:
 11064                           
 11065                           ;main.c: 433:         return(out_seq_L1[8]);
 11066     0DA8  0841               	movf	(_out_seq_L1^(0+384)+8),w
 11067     0DA9  2DD2               	goto	l426
 11068     0DAA                     l5266:
 11069     0DAA  0872               	movf	check_sequence_L1@channel_reading,w
 11070     0DAB  3E03               	addlw	3
 11071     0DAC  0086               	movwf	6
 11072     0DAD  3001               	movlw	1	; select bank2/3
 11073     0DAE  0087               	movwf	7
 11074     0DAF  0801               	movf	1,w
 11075     0DB0  0629               	xorwf	(_level_pattern^(0+384)+9),w
 11076     0DB1  1D03               	skipz
 11077     0DB2  2DB4               	goto	u4841
 11078     0DB3  2DB5               	goto	u4840
 11079     0DB4                     u4841:
 11080     0DB4  2DB7               	goto	l5274
 11081     0DB5                     u4840:
 11082     0DB5                     l5268:
 11083                           
 11084                           ;main.c: 435:         return(out_seq_L1[9]);
 11085     0DB5  0842               	movf	(_out_seq_L1^(0+384)+9),w
 11086     0DB6  2DD2               	goto	l426
 11087     0DB7                     l5274:
 11088     0DB7  0872               	movf	check_sequence_L1@channel_reading,w
 11089     0DB8  3E04               	addlw	4
 11090     0DB9  0086               	movwf	6
 11091     0DBA  3001               	movlw	1	; select bank2/3
 11092     0DBB  0087               	movwf	7
 11093     0DBC  0801               	movf	1,w
 11094     0DBD  062A               	xorwf	(_level_pattern^(0+384)+10),w
 11095     0DBE  1D03               	skipz
 11096     0DBF  2DC1               	goto	u4851
 11097     0DC0  2DC2               	goto	u4850
 11098     0DC1                     u4851:
 11099     0DC1  2DC4               	goto	l5282
 11100     0DC2                     u4850:
 11101     0DC2                     l5276:
 11102                           
 11103                           ;main.c: 437:         return(out_seq_L1[10]);
 11104     0DC2  0843               	movf	(_out_seq_L1^(0+384)+10),w
 11105     0DC3  2DD2               	goto	l426
 11106     0DC4                     l5282:
 11107     0DC4  0872               	movf	check_sequence_L1@channel_reading,w
 11108     0DC5  3E05               	addlw	5
 11109     0DC6  0086               	movwf	6
 11110     0DC7  3001               	movlw	1	; select bank2/3
 11111     0DC8  0087               	movwf	7
 11112     0DC9  0801               	movf	1,w
 11113     0DCA  062B               	xorwf	(_level_pattern^(0+384)+11),w
 11114     0DCB  1D03               	skipz
 11115     0DCC  2DCE               	goto	u4861
 11116     0DCD  2DCF               	goto	u4860
 11117     0DCE                     u4861:
 11118     0DCE  2DD1               	goto	l5290
 11119     0DCF                     u4860:
 11120     0DCF                     l5284:
 11121                           
 11122                           ;main.c: 439:         return(out_seq_L1[11]);
 11123     0DCF  0844               	movf	(_out_seq_L1^(0+384)+11),w
 11124     0DD0  2DD2               	goto	l426
 11125     0DD1                     l5290:
 11126                           
 11127                           ;main.c: 441:         return(out_seq_L1[12]);
 11128     0DD1  0845               	movf	(_out_seq_L1^(0+384)+12),w
 11129     0DD2                     l426:
 11130     0DD2  0008               	return
 11131     0DD3                     __end_of_check_sequence_L1:
 11132                           
 11133                           	psect	text23
 11134     081B                     __ptext23:	
 11135 ;; *************** function _UART_Transmit *****************
 11136 ;; Defined at:
 11137 ;;		line 55 in file "Software_UART.c"
 11138 ;; Parameters:    Size  Location     Type
 11139 ;;  DataValue       1    wreg     const unsigned char 
 11140 ;; Auto vars:     Size  Location     Type
 11141 ;;  DataValue       1    3[COMMON] const unsigned char 
 11142 ;;  i               1    4[COMMON] unsigned char 
 11143 ;; Return value:  Size  Location     Type
 11144 ;;                  1    wreg      void 
 11145 ;; Registers used:
 11146 ;;		wreg, status,2, status,0
 11147 ;; Tracked objects:
 11148 ;;		On entry : 0/0
 11149 ;;		On exit  : 0/0
 11150 ;;		Unchanged: 0/0
 11151 ;; Data sizes:     COMMON   BANK0   BANK1   BANK2   BANK3   BANK4   BANK5   BANK6   BANK7   BANK8   BANK9  BANK10  BANK1
      +1  BANK12  BANK13  BANK14  BANK15  BANK16  BANK17  BANK18  BANK19  BANK20  BANK21  BANK22  BANK23  BANK24  BANK25
 11152 ;;      Params:         0       0       0       0       0       0       0       0       0       0       0       0       
      +0       0       0       0       0       0       0       0       0       0       0       0       0       0       0
 11153 ;;      Locals:         2       0       0       0       0       0       0       0       0       0       0       0       
      +0       0       0       0       0       0       0       0       0       0       0       0       0       0       0
 11154 ;;      Temps:          1       0       0       0       0       0       0       0       0       0       0       0       
      +0       0       0       0       0       0       0       0       0       0       0       0       0       0       0
 11155 ;;      Totals:         3       0       0       0       0       0       0       0       0       0       0       0       
      +0       0       0       0       0       0       0       0       0       0       0       0       0       0       0
 11156 ;;Total ram usage:        3 bytes
 11157 ;; Hardware stack levels used: 1
 11158 ;; Hardware stack levels required when called: 4
 11159 ;; This function calls:
 11160 ;;		Nothing
 11161 ;; This function is called by:
 11162 ;;		_main
 11163 ;; This function uses a non-reentrant model
 11164 ;;
 11165                           
 11166     081B                     _UART_Transmit:	
 11167                           ;psect for function _UART_Transmit
 11168                           
 11169                           
 11170                           ;incstack = 0
 11171                           ; Regs used in _UART_Transmit: [wreg+status,2+status,0]
 11172                           ;UART_Transmit@DataValue stored from wreg
 11173     081B  00F3               	movwf	UART_Transmit@DataValue
 11174     081C                     l5124:
 11175                           
 11176                           ;Software_UART.c: 55: void UART_Transmit(const char DataValue);Software_UART.c: 56: {;So
      +                          ftware_UART.c: 66:  PORTEbits.RE0 = 0;
 11177     081C  0140               	movlb	0	; select bank0
 11178     081D  1010               	bcf	16,0	;volatile
 11179     081E                     l5126:
 11180                           
 11181                           ;Software_UART.c: 67:  _delay((unsigned long)((98)*(16000000/4000000.0)));
 11182     081E  3082               	movlw	130
 11183     081F                     u6687:
 11184     081F  0B89               	decfsz	9,f
 11185     0820  281F               	goto	u6687
 11186     0821  3200               	nop2
 11187     0822                     l5128:
 11188                           
 11189                           ;Software_UART.c: 69:  for ( unsigned char i = 0; i < 8; i++ )
 11190     0822  01F4               	clrf	UART_Transmit@i
 11191     0823                     l5134:
 11192                           
 11193                           ;Software_UART.c: 70:  {;Software_UART.c: 72:   if( ((DataValue>>i)&0x1) == 0x1 )
 11194     0823  0873               	movf	UART_Transmit@DataValue,w
 11195     0824  00F2               	movwf	??_UART_Transmit
 11196     0825  0A74               	incf	UART_Transmit@i,w
 11197     0826  2828               	goto	u4634
 11198     0827                     u4635:
 11199     0827  36F2               	lsrf	??_UART_Transmit,f
 11200     0828                     u4634:
 11201     0828  0B89               	decfsz	9,f
 11202     0829  2827               	goto	u4635
 11203     082A  1C72               	btfss	??_UART_Transmit,0
 11204     082B  282D               	goto	u4641
 11205     082C  282E               	goto	u4640
 11206     082D                     u4641:
 11207     082D  2831               	goto	l784
 11208     082E                     u4640:
 11209     082E                     l5136:
 11210                           
 11211                           ;Software_UART.c: 73:   {;Software_UART.c: 74:    PORTEbits.RE0 = 1;
 11212     082E  0140               	movlb	0	; select bank0
 11213     082F  1410               	bsf	16,0	;volatile
 11214                           
 11215                           ;Software_UART.c: 75:   }
 11216     0830  2833               	goto	l5138
 11217     0831                     l784:	
 11218                           ;Software_UART.c: 76:   else
 11219                           
 11220                           
 11221                           ;Software_UART.c: 77:   {;Software_UART.c: 78:    PORTEbits.RE0 = 0;
 11222     0831  0140               	movlb	0	; select bank0
 11223     0832  1010               	bcf	16,0	;volatile
 11224     0833                     l5138:
 11225                           
 11226                           ;Software_UART.c: 81:      _delay((unsigned long)((98)*(16000000/4000000.0)));
 11227     0833  3082               	movlw	130
 11228     0834                     u6697:
 11229     0834  0B89               	decfsz	9,f
 11230     0835  2834               	goto	u6697
 11231     0836  3200               	nop2
 11232     0837                     l5140:
 11233                           
 11234                           ;Software_UART.c: 82:  }
 11235     0837  3001               	movlw	1
 11236     0838  00F2               	movwf	??_UART_Transmit
 11237     0839  0872               	movf	??_UART_Transmit,w
 11238     083A  07F4               	addwf	UART_Transmit@i,f
 11239     083B                     l5142:
 11240     083B  3008               	movlw	8
 11241     083C  0274               	subwf	UART_Transmit@i,w
 11242     083D  1C03               	skipc
 11243     083E  2840               	goto	u4651
 11244     083F  2841               	goto	u4650
 11245     0840                     u4651:
 11246     0840  2823               	goto	l5134
 11247     0841                     u4650:
 11248     0841                     l783:
 11249                           
 11250                           ;Software_UART.c: 85:  PORTEbits.RE0 = 1;
 11251     0841  0140               	movlb	0	; select bank0
 11252     0842  1410               	bsf	16,0	;volatile
 11253     0843                     l5144:
 11254                           
 11255                           ;Software_UART.c: 86:  _delay((unsigned long)((98)*(16000000/4000000.0)));
 11256     0843  3082               	movlw	130
 11257     0844                     u6707:
 11258     0844  0B89               	decfsz	9,f
 11259     0845  2844               	goto	u6707
 11260     0846  3200               	nop2
 11261     0847                     l786:
 11262     0847  0008               	return
 11263     0848                     __end_of_UART_Transmit:
 11264                           
 11265                           	psect	text24
 11266     16F4                     __ptext24:	
 11267 ;; *************** function _SYSTEM_Initialize *****************
 11268 ;; Defined at:
 11269 ;;		line 50 in file "mcc_generated_files/mcc.c"
 11270 ;; Parameters:    Size  Location     Type
 11271 ;;		None
 11272 ;; Auto vars:     Size  Location     Type
 11273 ;;		None
 11274 ;; Return value:  Size  Location     Type
 11275 ;;                  1    wreg      void 
 11276 ;; Registers used:
 11277 ;;		wreg, status,2, status,0, pclath, cstack
 11278 ;; Tracked objects:
 11279 ;;		On entry : 0/0
 11280 ;;		On exit  : 0/0
 11281 ;;		Unchanged: 0/0
 11282 ;; Data sizes:     COMMON   BANK0   BANK1   BANK2   BANK3   BANK4   BANK5   BANK6   BANK7   BANK8   BANK9  BANK10  BANK1
      +1  BANK12  BANK13  BANK14  BANK15  BANK16  BANK17  BANK18  BANK19  BANK20  BANK21  BANK22  BANK23  BANK24  BANK25
 11283 ;;      Params:         0       0       0       0       0       0       0       0       0       0       0       0       
      +0       0       0       0       0       0       0       0       0       0       0       0       0       0       0
 11284 ;;      Locals:         0       0       0       0       0       0       0       0       0       0       0       0       
      +0       0       0       0       0       0       0       0       0       0       0       0       0       0       0
 11285 ;;      Temps:          0       0       0       0       0       0       0       0       0       0       0       0       
      +0       0       0       0       0       0       0       0       0       0       0       0       0       0       0
 11286 ;;      Totals:         0       0       0       0       0       0       0       0       0       0       0       0       
      +0       0       0       0       0       0       0       0       0       0       0       0       0       0       0
 11287 ;;Total ram usage:        0 bytes
 11288 ;; Hardware stack levels used: 1
 11289 ;; Hardware stack levels required when called: 6
 11290 ;; This function calls:
 11291 ;;		_ADC_Initialize
 11292 ;;		_OSCILLATOR_Initialize
 11293 ;;		_PIN_MANAGER_Initialize
 11294 ;;		_PMD_Initialize
 11295 ;;		_TMR1_Initialize
 11296 ;; This function is called by:
 11297 ;;		_main
 11298 ;; This function uses a non-reentrant model
 11299 ;;
 11300                           
 11301     16F4                     _SYSTEM_Initialize:	
 11302                           ;psect for function _SYSTEM_Initialize
 11303                           
 11304     16F4                     l5028:	
 11305                           ;incstack = 0
 11306                           ; Regs used in _SYSTEM_Initialize: [wreg+status,2+status,0+pclath+cstack]
 11307                           
 11308                           
 11309                           ;mcc_generated_files/mcc.c: 52:     PMD_Initialize();
 11310     16F4  3196  2693  3196   	fcall	_PMD_Initialize
 11311     16F7                     l5030:
 11312                           
 11313                           ;mcc_generated_files/mcc.c: 53:     PIN_MANAGER_Initialize();
 11314     16F7  3189  2132  3196   	fcall	_PIN_MANAGER_Initialize
 11315     16FA                     l5032:
 11316                           
 11317                           ;mcc_generated_files/mcc.c: 54:     OSCILLATOR_Initialize();
 11318     16FA  3196  26E6  3196   	fcall	_OSCILLATOR_Initialize
 11319     16FD                     l5034:
 11320                           
 11321                           ;mcc_generated_files/mcc.c: 55:     TMR1_Initialize();
 11322     16FD  3197  2715  3196   	fcall	_TMR1_Initialize
 11323     1700                     l5036:
 11324                           
 11325                           ;mcc_generated_files/mcc.c: 56:     ADC_Initialize();
 11326     1700  3187  27F6  3196   	fcall	_ADC_Initialize
 11327     1703                     l168:
 11328     1703  0008               	return
 11329     1704                     __end_of_SYSTEM_Initialize:
 11330                           
 11331                           	psect	text25
 11332     1715                     __ptext25:	
 11333 ;; *************** function _TMR1_Initialize *****************
 11334 ;; Defined at:
 11335 ;;		line 64 in file "mcc_generated_files/tmr1.c"
 11336 ;; Parameters:    Size  Location     Type
 11337 ;;		None
 11338 ;; Auto vars:     Size  Location     Type
 11339 ;;		None
 11340 ;; Return value:  Size  Location     Type
 11341 ;;                  1    wreg      void 
 11342 ;; Registers used:
 11343 ;;		wreg, status,2, status,0, pclath, cstack
 11344 ;; Tracked objects:
 11345 ;;		On entry : 0/0
 11346 ;;		On exit  : 0/0
 11347 ;;		Unchanged: 0/0
 11348 ;; Data sizes:     COMMON   BANK0   BANK1   BANK2   BANK3   BANK4   BANK5   BANK6   BANK7   BANK8   BANK9  BANK10  BANK1
      +1  BANK12  BANK13  BANK14  BANK15  BANK16  BANK17  BANK18  BANK19  BANK20  BANK21  BANK22  BANK23  BANK24  BANK25
 11349 ;;      Params:         0       0       0       0       0       0       0       0       0       0       0       0       
      +0       0       0       0       0       0       0       0       0       0       0       0       0       0       0
 11350 ;;      Locals:         0       0       0       0       0       0       0       0       0       0       0       0       
      +0       0       0       0       0       0       0       0       0       0       0       0       0       0       0
 11351 ;;      Temps:          0       0       0       0       0       0       0       0       0       0       0       0       
      +0       0       0       0       0       0       0       0       0       0       0       0       0       0       0
 11352 ;;      Totals:         0       0       0       0       0       0       0       0       0       0       0       0       
      +0       0       0       0       0       0       0       0       0       0       0       0       0       0       0
 11353 ;;Total ram usage:        0 bytes
 11354 ;; Hardware stack levels used: 1
 11355 ;; Hardware stack levels required when called: 5
 11356 ;; This function calls:
 11357 ;;		_TMR1_SetInterruptHandler
 11358 ;; This function is called by:
 11359 ;;		_SYSTEM_Initialize
 11360 ;; This function uses a non-reentrant model
 11361 ;;
 11362                           
 11363     1715                     _TMR1_Initialize:	
 11364                           ;psect for function _TMR1_Initialize
 11365                           
 11366     1715                     l4976:	
 11367                           ;incstack = 0
 11368                           ; Regs used in _TMR1_Initialize: [wreg+status,2+status,0+pclath+cstack]
 11369                           
 11370                           
 11371                           ;mcc_generated_files/tmr1.c: 69:     T1GCON = 0x00;
 11372     1715  0144               	movlb	4	; select bank4
 11373     1716  018F               	clrf	15	;volatile
 11374                           
 11375                           ;mcc_generated_files/tmr1.c: 72:     T1GATE = 0x00;
 11376     1717  0190               	clrf	16	;volatile
 11377     1718                     l4978:
 11378                           
 11379                           ;mcc_generated_files/tmr1.c: 75:     T1CLK = 0x03;
 11380     1718  3003               	movlw	3
 11381     1719  0091               	movwf	17	;volatile
 11382     171A                     l4980:
 11383                           
 11384                           ;mcc_generated_files/tmr1.c: 78:     TMR1H = 0xF0;
 11385     171A  30F0               	movlw	240
 11386     171B  008D               	movwf	13	;volatile
 11387     171C                     l4982:
 11388                           
 11389                           ;mcc_generated_files/tmr1.c: 81:     TMR1L = 0x60;
 11390     171C  3060               	movlw	96
 11391     171D  008C               	movwf	12	;volatile
 11392     171E                     l4984:
 11393                           
 11394                           ;mcc_generated_files/tmr1.c: 84:     PIR4bits.TMR1IF = 0;
 11395     171E  014E               	movlb	14	; select bank14
 11396     171F  1010               	bcf	16,0	;volatile
 11397     1720                     l4986:
 11398                           
 11399                           ;mcc_generated_files/tmr1.c: 87:     timer1ReloadVal=(uint16_t)((TMR1H << 8) | TMR1L);
 11400     1720  0144               	movlb	4	; select bank4
 11401     1721  080D               	movf	13,w	;volatile
 11402     1722  0143               	movlb	3	; select bank3
 11403     1723  00EB               	movwf	(_timer1ReloadVal+1)^(0+384)	;volatile
 11404     1724  0144               	movlb	4	; select bank4
 11405     1725  080C               	movf	12,w	;volatile
 11406     1726  0143               	movlb	3	; select bank3
 11407     1727  00EA               	movwf	_timer1ReloadVal^(0+384)	;volatile
 11408     1728                     l4988:
 11409                           
 11410                           ;mcc_generated_files/tmr1.c: 90:     PIE4bits.TMR1IE = 1;
 11411     1728  014E               	movlb	14	; select bank14
 11412     1729  141A               	bsf	26,0	;volatile
 11413     172A                     l4990:
 11414                           
 11415                           ;mcc_generated_files/tmr1.c: 93:     TMR1_SetInterruptHandler(TMR1_DefaultInterruptHandl
      +                          er);
 11416     172A  30FF               	movlw	low _TMR1_DefaultInterruptHandler
 11417     172B  00F2               	movwf	TMR1_SetInterruptHandler@InterruptHandler
 11418     172C  3007               	movlw	high _TMR1_DefaultInterruptHandler
 11419     172D  00F3               	movwf	TMR1_SetInterruptHandler@InterruptHandler+1
 11420     172E  3196  268D  3197   	fcall	_TMR1_SetInterruptHandler
 11421     1731                     l4992:
 11422                           
 11423                           ;mcc_generated_files/tmr1.c: 96:     T1CON = 0x31;
 11424     1731  3031               	movlw	49
 11425     1732  0144               	movlb	4	; select bank4
 11426     1733  008E               	movwf	14	;volatile
 11427     1734                     l205:
 11428     1734  0008               	return
 11429     1735                     __end_of_TMR1_Initialize:
 11430                           
 11431                           	psect	text26
 11432     168D                     __ptext26:	
 11433 ;; *************** function _TMR1_SetInterruptHandler *****************
 11434 ;; Defined at:
 11435 ;;		line 189 in file "mcc_generated_files/tmr1.c"
 11436 ;; Parameters:    Size  Location     Type
 11437 ;;  InterruptHan    2    2[COMMON] PTR FTN()void 
 11438 ;;		 -> timer2ISR(1), TMR1_DefaultInterruptHandler(1), 
 11439 ;; Auto vars:     Size  Location     Type
 11440 ;;		None
 11441 ;; Return value:  Size  Location     Type
 11442 ;;                  1    wreg      void 
 11443 ;; Registers used:
 11444 ;;		wreg
 11445 ;; Tracked objects:
 11446 ;;		On entry : 0/0
 11447 ;;		On exit  : 0/0
 11448 ;;		Unchanged: 0/0
 11449 ;; Data sizes:     COMMON   BANK0   BANK1   BANK2   BANK3   BANK4   BANK5   BANK6   BANK7   BANK8   BANK9  BANK10  BANK1
      +1  BANK12  BANK13  BANK14  BANK15  BANK16  BANK17  BANK18  BANK19  BANK20  BANK21  BANK22  BANK23  BANK24  BANK25
 11450 ;;      Params:         2       0       0       0       0       0       0       0       0       0       0       0       
      +0       0       0       0       0       0       0       0       0       0       0       0       0       0       0
 11451 ;;      Locals:         0       0       0       0       0       0       0       0       0       0       0       0       
      +0       0       0       0       0       0       0       0       0       0       0       0       0       0       0
 11452 ;;      Temps:          0       0       0       0       0       0       0       0       0       0       0       0       
      +0       0       0       0       0       0       0       0       0       0       0       0       0       0       0
 11453 ;;      Totals:         2       0       0       0       0       0       0       0       0       0       0       0       
      +0       0       0       0       0       0       0       0       0       0       0       0       0       0       0
 11454 ;;Total ram usage:        2 bytes
 11455 ;; Hardware stack levels used: 1
 11456 ;; Hardware stack levels required when called: 4
 11457 ;; This function calls:
 11458 ;;		Nothing
 11459 ;; This function is called by:
 11460 ;;		_TMR1_Initialize
 11461 ;;		_main
 11462 ;; This function uses a non-reentrant model
 11463 ;;
 11464                           
 11465     168D                     _TMR1_SetInterruptHandler:	
 11466                           ;psect for function _TMR1_SetInterruptHandler
 11467                           
 11468     168D                     l4890:	
 11469                           ;incstack = 0
 11470                           ; Regs used in _TMR1_SetInterruptHandler: [wreg]
 11471                           
 11472                           
 11473                           ;mcc_generated_files/tmr1.c: 190:     TMR1_InterruptHandler = InterruptHandler;
 11474     168D  0873               	movf	TMR1_SetInterruptHandler@InterruptHandler+1,w
 11475     168E  0143               	movlb	3	; select bank3
 11476     168F  00E9               	movwf	(_TMR1_InterruptHandler+1)^(0+384)
 11477     1690  0872               	movf	TMR1_SetInterruptHandler@InterruptHandler,w
 11478     1691  00E8               	movwf	_TMR1_InterruptHandler^(0+384)
 11479     1692                     l220:
 11480     1692  0008               	return
 11481     1693                     __end_of_TMR1_SetInterruptHandler:
 11482                           
 11483                           	psect	text27
 11484     1693                     __ptext27:	
 11485 ;; *************** function _PMD_Initialize *****************
 11486 ;; Defined at:
 11487 ;;		line 77 in file "mcc_generated_files/mcc.c"
 11488 ;; Parameters:    Size  Location     Type
 11489 ;;		None
 11490 ;; Auto vars:     Size  Location     Type
 11491 ;;		None
 11492 ;; Return value:  Size  Location     Type
 11493 ;;                  1    wreg      void 
 11494 ;; Registers used:
 11495 ;;		status,2
 11496 ;; Tracked objects:
 11497 ;;		On entry : 0/0
 11498 ;;		On exit  : 0/0
 11499 ;;		Unchanged: 0/0
 11500 ;; Data sizes:     COMMON   BANK0   BANK1   BANK2   BANK3   BANK4   BANK5   BANK6   BANK7   BANK8   BANK9  BANK10  BANK1
      +1  BANK12  BANK13  BANK14  BANK15  BANK16  BANK17  BANK18  BANK19  BANK20  BANK21  BANK22  BANK23  BANK24  BANK25
 11501 ;;      Params:         0       0       0       0       0       0       0       0       0       0       0       0       
      +0       0       0       0       0       0       0       0       0       0       0       0       0       0       0
 11502 ;;      Locals:         0       0       0       0       0       0       0       0       0       0       0       0       
      +0       0       0       0       0       0       0       0       0       0       0       0       0       0       0
 11503 ;;      Temps:          0       0       0       0       0       0       0       0       0       0       0       0       
      +0       0       0       0       0       0       0       0       0       0       0       0       0       0       0
 11504 ;;      Totals:         0       0       0       0       0       0       0       0       0       0       0       0       
      +0       0       0       0       0       0       0       0       0       0       0       0       0       0       0
 11505 ;;Total ram usage:        0 bytes
 11506 ;; Hardware stack levels used: 1
 11507 ;; Hardware stack levels required when called: 4
 11508 ;; This function calls:
 11509 ;;		Nothing
 11510 ;; This function is called by:
 11511 ;;		_SYSTEM_Initialize
 11512 ;; This function uses a non-reentrant model
 11513 ;;
 11514                           
 11515     1693                     _PMD_Initialize:	
 11516                           ;psect for function _PMD_Initialize
 11517                           
 11518     1693                     l4960:	
 11519                           ;incstack = 0
 11520                           ; Regs used in _PMD_Initialize: [status,2]
 11521                           
 11522                           
 11523                           ;mcc_generated_files/mcc.c: 80:     PMD0 = 0x00;
 11524     1693  014F               	movlb	15	; select bank15
 11525     1694  0196               	clrf	22	;volatile
 11526                           
 11527                           ;mcc_generated_files/mcc.c: 82:     PMD1 = 0x00;
 11528     1695  0197               	clrf	23	;volatile
 11529                           
 11530                           ;mcc_generated_files/mcc.c: 84:     PMD2 = 0x00;
 11531     1696  0198               	clrf	24	;volatile
 11532                           
 11533                           ;mcc_generated_files/mcc.c: 86:     PMD3 = 0x00;
 11534     1697  0199               	clrf	25	;volatile
 11535                           
 11536                           ;mcc_generated_files/mcc.c: 88:     PMD4 = 0x00;
 11537     1698  019A               	clrf	26	;volatile
 11538                           
 11539                           ;mcc_generated_files/mcc.c: 90:     PMD5 = 0x00;
 11540     1699  019B               	clrf	27	;volatile
 11541     169A                     l174:
 11542     169A  0008               	return
 11543     169B                     __end_of_PMD_Initialize:
 11544                           
 11545                           	psect	text28
 11546     0932                     __ptext28:	
 11547 ;; *************** function _PIN_MANAGER_Initialize *****************
 11548 ;; Defined at:
 11549 ;;		line 55 in file "mcc_generated_files/pin_manager.c"
 11550 ;; Parameters:    Size  Location     Type
 11551 ;;		None
 11552 ;; Auto vars:     Size  Location     Type
 11553 ;;		None
 11554 ;; Return value:  Size  Location     Type
 11555 ;;                  1    wreg      void 
 11556 ;; Registers used:
 11557 ;;		wreg, status,2
 11558 ;; Tracked objects:
 11559 ;;		On entry : 0/0
 11560 ;;		On exit  : 0/0
 11561 ;;		Unchanged: 0/0
 11562 ;; Data sizes:     COMMON   BANK0   BANK1   BANK2   BANK3   BANK4   BANK5   BANK6   BANK7   BANK8   BANK9  BANK10  BANK1
      +1  BANK12  BANK13  BANK14  BANK15  BANK16  BANK17  BANK18  BANK19  BANK20  BANK21  BANK22  BANK23  BANK24  BANK25
 11563 ;;      Params:         0       0       0       0       0       0       0       0       0       0       0       0       
      +0       0       0       0       0       0       0       0       0       0       0       0       0       0       0
 11564 ;;      Locals:         0       0       0       0       0       0       0       0       0       0       0       0       
      +0       0       0       0       0       0       0       0       0       0       0       0       0       0       0
 11565 ;;      Temps:          0       0       0       0       0       0       0       0       0       0       0       0       
      +0       0       0       0       0       0       0       0       0       0       0       0       0       0       0
 11566 ;;      Totals:         0       0       0       0       0       0       0       0       0       0       0       0       
      +0       0       0       0       0       0       0       0       0       0       0       0       0       0       0
 11567 ;;Total ram usage:        0 bytes
 11568 ;; Hardware stack levels used: 1
 11569 ;; Hardware stack levels required when called: 4
 11570 ;; This function calls:
 11571 ;;		Nothing
 11572 ;; This function is called by:
 11573 ;;		_SYSTEM_Initialize
 11574 ;; This function uses a non-reentrant model
 11575 ;;
 11576                           
 11577     0932                     _PIN_MANAGER_Initialize:	
 11578                           ;psect for function _PIN_MANAGER_Initialize
 11579                           
 11580     0932                     l4908:	
 11581                           ;incstack = 0
 11582                           ; Regs used in _PIN_MANAGER_Initialize: [wreg+status,2]
 11583                           
 11584                           
 11585                           ;mcc_generated_files/pin_manager.c: 60:     LATE = 0x00;
 11586     0932  0140               	movlb	0	; select bank0
 11587     0933  019C               	clrf	28	;volatile
 11588                           
 11589                           ;mcc_generated_files/pin_manager.c: 61:     LATD = 0x00;
 11590     0934  019B               	clrf	27	;volatile
 11591                           
 11592                           ;mcc_generated_files/pin_manager.c: 62:     LATA = 0x00;
 11593     0935  0198               	clrf	24	;volatile
 11594                           
 11595                           ;mcc_generated_files/pin_manager.c: 63:     LATF = 0x00;
 11596     0936  019D               	clrf	29	;volatile
 11597                           
 11598                           ;mcc_generated_files/pin_manager.c: 64:     LATB = 0x00;
 11599     0937  0199               	clrf	25	;volatile
 11600                           
 11601                           ;mcc_generated_files/pin_manager.c: 65:     LATC = 0x00;
 11602     0938  019A               	clrf	26	;volatile
 11603     0939                     l4910:
 11604                           
 11605                           ;mcc_generated_files/pin_manager.c: 70:     TRISE = 0x0E;
 11606     0939  300E               	movlw	14
 11607     093A  0096               	movwf	22	;volatile
 11608     093B                     l4912:
 11609                           
 11610                           ;mcc_generated_files/pin_manager.c: 71:     TRISF = 0xF0;
 11611     093B  30F0               	movlw	240
 11612     093C  0097               	movwf	23	;volatile
 11613     093D                     l4914:
 11614                           
 11615                           ;mcc_generated_files/pin_manager.c: 72:     TRISA = 0x3F;
 11616     093D  303F               	movlw	63
 11617     093E  0092               	movwf	18	;volatile
 11618     093F                     l4916:
 11619                           
 11620                           ;mcc_generated_files/pin_manager.c: 73:     TRISB = 0xE0;
 11621     093F  30E0               	movlw	224
 11622     0940  0093               	movwf	19	;volatile
 11623                           
 11624                           ;mcc_generated_files/pin_manager.c: 74:     TRISC = 0x00;
 11625     0941  0194               	clrf	20	;volatile
 11626                           
 11627                           ;mcc_generated_files/pin_manager.c: 75:     TRISD = 0x00;
 11628     0942  0195               	clrf	21	;volatile
 11629                           
 11630                           ;mcc_generated_files/pin_manager.c: 80:     ANSELD = 0x00;
 11631     0943  017E               	movlb	62	; select bank62
 11632     0944  01D9               	clrf	89	;volatile
 11633                           
 11634                           ;mcc_generated_files/pin_manager.c: 81:     ANSELC = 0x00;
 11635     0945  01CE               	clrf	78	;volatile
 11636     0946                     l4918:
 11637                           
 11638                           ;mcc_generated_files/pin_manager.c: 82:     ANSELB = 0xF0;
 11639     0946  30F0               	movlw	240
 11640     0947  00C3               	movwf	67	;volatile
 11641     0948                     l4920:
 11642                           
 11643                           ;mcc_generated_files/pin_manager.c: 83:     ANSELE = 0x06;
 11644     0948  3006               	movlw	6
 11645     0949  00E4               	movwf	100	;volatile
 11646     094A                     l4922:
 11647                           
 11648                           ;mcc_generated_files/pin_manager.c: 84:     ANSELF = 0xF0;
 11649     094A  30F0               	movlw	240
 11650     094B  017C               	movlb	60	; select bank60
 11651     094C  00D0               	movwf	80	;volatile
 11652     094D                     l4924:
 11653                           
 11654                           ;mcc_generated_files/pin_manager.c: 85:     ANSELA = 0x3F;
 11655     094D  303F               	movlw	63
 11656     094E  017E               	movlb	62	; select bank62
 11657     094F  00B8               	movwf	56	;volatile
 11658                           
 11659                           ;mcc_generated_files/pin_manager.c: 90:     WPUD = 0x00;
 11660     0950  01DA               	clrf	90	;volatile
 11661                           
 11662                           ;mcc_generated_files/pin_manager.c: 91:     WPUF = 0x00;
 11663     0951  017C               	movlb	60	; select bank60
 11664     0952  01D1               	clrf	81	;volatile
 11665                           
 11666                           ;mcc_generated_files/pin_manager.c: 92:     WPUE = 0x00;
 11667     0953  017E               	movlb	62	; select bank62
 11668     0954  01E5               	clrf	101	;volatile
 11669                           
 11670                           ;mcc_generated_files/pin_manager.c: 93:     WPUB = 0x00;
 11671     0955  01C4               	clrf	68	;volatile
 11672                           
 11673                           ;mcc_generated_files/pin_manager.c: 94:     WPUA = 0x00;
 11674     0956  01B9               	clrf	57	;volatile
 11675                           
 11676                           ;mcc_generated_files/pin_manager.c: 95:     WPUC = 0x00;
 11677     0957  01CF               	clrf	79	;volatile
 11678                           
 11679                           ;mcc_generated_files/pin_manager.c: 100:     ODCONE = 0x00;
 11680     0958  01E6               	clrf	102	;volatile
 11681                           
 11682                           ;mcc_generated_files/pin_manager.c: 101:     ODCONF = 0x00;
 11683     0959  017C               	movlb	60	; select bank60
 11684     095A  01D2               	clrf	82	;volatile
 11685                           
 11686                           ;mcc_generated_files/pin_manager.c: 102:     ODCONA = 0x00;
 11687     095B  017E               	movlb	62	; select bank62
 11688     095C  01BA               	clrf	58	;volatile
 11689                           
 11690                           ;mcc_generated_files/pin_manager.c: 103:     ODCONB = 0x00;
 11691     095D  01C5               	clrf	69	;volatile
 11692                           
 11693                           ;mcc_generated_files/pin_manager.c: 104:     ODCONC = 0x00;
 11694     095E  01D0               	clrf	80	;volatile
 11695                           
 11696                           ;mcc_generated_files/pin_manager.c: 105:     ODCOND = 0x00;
 11697     095F  01DB               	clrf	91	;volatile
 11698     0960                     l4926:
 11699                           
 11700                           ;mcc_generated_files/pin_manager.c: 110:     SLRCONA = 0xFF;
 11701     0960  30FF               	movlw	255
 11702     0961  00BB               	movwf	59	;volatile
 11703     0962                     l4928:
 11704                           
 11705                           ;mcc_generated_files/pin_manager.c: 111:     SLRCONB = 0xFF;
 11706     0962  30FF               	movlw	255
 11707     0963  00C6               	movwf	70	;volatile
 11708     0964                     l4930:
 11709                           
 11710                           ;mcc_generated_files/pin_manager.c: 112:     SLRCONC = 0xFF;
 11711     0964  30FF               	movlw	255
 11712     0965  00D1               	movwf	81	;volatile
 11713     0966                     l4932:
 11714                           
 11715                           ;mcc_generated_files/pin_manager.c: 113:     SLRCOND = 0xFF;
 11716     0966  30FF               	movlw	255
 11717     0967  00DC               	movwf	92	;volatile
 11718     0968                     l4934:
 11719                           
 11720                           ;mcc_generated_files/pin_manager.c: 114:     SLRCONE = 0x07;
 11721     0968  3007               	movlw	7
 11722     0969  00E7               	movwf	103	;volatile
 11723     096A                     l4936:
 11724                           
 11725                           ;mcc_generated_files/pin_manager.c: 115:     SLRCONF = 0xFF;
 11726     096A  30FF               	movlw	255
 11727     096B  017C               	movlb	60	; select bank60
 11728     096C  00D3               	movwf	83	;volatile
 11729     096D                     l4938:
 11730                           
 11731                           ;mcc_generated_files/pin_manager.c: 120:     INLVLA = 0xFF;
 11732     096D  30FF               	movlw	255
 11733     096E  017E               	movlb	62	; select bank62
 11734     096F  00BC               	movwf	60	;volatile
 11735     0970                     l4940:
 11736                           
 11737                           ;mcc_generated_files/pin_manager.c: 121:     INLVLB = 0xFF;
 11738     0970  30FF               	movlw	255
 11739     0971  00C7               	movwf	71	;volatile
 11740     0972                     l4942:
 11741                           
 11742                           ;mcc_generated_files/pin_manager.c: 122:     INLVLC = 0xFF;
 11743     0972  30FF               	movlw	255
 11744     0973  00D2               	movwf	82	;volatile
 11745     0974                     l4944:
 11746                           
 11747                           ;mcc_generated_files/pin_manager.c: 123:     INLVLD = 0xFF;
 11748     0974  30FF               	movlw	255
 11749     0975  00DD               	movwf	93	;volatile
 11750     0976                     l4946:
 11751                           
 11752                           ;mcc_generated_files/pin_manager.c: 124:     INLVLE = 0x0F;
 11753     0976  300F               	movlw	15
 11754     0977  00E8               	movwf	104	;volatile
 11755     0978                     l4948:
 11756                           
 11757                           ;mcc_generated_files/pin_manager.c: 125:     INLVLF = 0xFF;
 11758     0978  30FF               	movlw	255
 11759     0979  017C               	movlb	60	; select bank60
 11760     097A  00D4               	movwf	84	;volatile
 11761     097B                     l104:
 11762     097B  0008               	return
 11763     097C                     __end_of_PIN_MANAGER_Initialize:
 11764                           
 11765                           	psect	text29
 11766     16E6                     __ptext29:	
 11767 ;; *************** function _OSCILLATOR_Initialize *****************
 11768 ;; Defined at:
 11769 ;;		line 59 in file "mcc_generated_files/mcc.c"
 11770 ;; Parameters:    Size  Location     Type
 11771 ;;		None
 11772 ;; Auto vars:     Size  Location     Type
 11773 ;;		None
 11774 ;; Return value:  Size  Location     Type
 11775 ;;                  1    wreg      void 
 11776 ;; Registers used:
 11777 ;;		wreg, status,2, status,0
 11778 ;; Tracked objects:
 11779 ;;		On entry : 0/0
 11780 ;;		On exit  : 0/0
 11781 ;;		Unchanged: 0/0
 11782 ;; Data sizes:     COMMON   BANK0   BANK1   BANK2   BANK3   BANK4   BANK5   BANK6   BANK7   BANK8   BANK9  BANK10  BANK1
      +1  BANK12  BANK13  BANK14  BANK15  BANK16  BANK17  BANK18  BANK19  BANK20  BANK21  BANK22  BANK23  BANK24  BANK25
 11783 ;;      Params:         0       0       0       0       0       0       0       0       0       0       0       0       
      +0       0       0       0       0       0       0       0       0       0       0       0       0       0       0
 11784 ;;      Locals:         0       0       0       0       0       0       0       0       0       0       0       0       
      +0       0       0       0       0       0       0       0       0       0       0       0       0       0       0
 11785 ;;      Temps:          0       0       0       0       0       0       0       0       0       0       0       0       
      +0       0       0       0       0       0       0       0       0       0       0       0       0       0       0
 11786 ;;      Totals:         0       0       0       0       0       0       0       0       0       0       0       0       
      +0       0       0       0       0       0       0       0       0       0       0       0       0       0       0
 11787 ;;Total ram usage:        0 bytes
 11788 ;; Hardware stack levels used: 1
 11789 ;; Hardware stack levels required when called: 4
 11790 ;; This function calls:
 11791 ;;		Nothing
 11792 ;; This function is called by:
 11793 ;;		_SYSTEM_Initialize
 11794 ;; This function uses a non-reentrant model
 11795 ;;
 11796                           
 11797     16E6                     _OSCILLATOR_Initialize:	
 11798                           ;psect for function _OSCILLATOR_Initialize
 11799                           
 11800     16E6                     l4962:	
 11801                           ;incstack = 0
 11802                           ; Regs used in _OSCILLATOR_Initialize: [wreg+status,2+status,0]
 11803                           
 11804                           
 11805                           ;mcc_generated_files/mcc.c: 62:     OSCCON1 = 0x60;
 11806     16E6  3060               	movlw	96
 11807     16E7  0151               	movlb	17	; select bank17
 11808     16E8  008D               	movwf	13	;volatile
 11809     16E9                     l4964:
 11810                           
 11811                           ;mcc_generated_files/mcc.c: 64:     OSCCON3 = 0x00;
 11812     16E9  018F               	clrf	15	;volatile
 11813     16EA                     l4966:
 11814                           
 11815                           ;mcc_generated_files/mcc.c: 66:     OSCEN = 0x00;
 11816     16EA  0191               	clrf	17	;volatile
 11817                           
 11818                           ;mcc_generated_files/mcc.c: 68:     OSCFRQ = 0x05;
 11819     16EB  3005               	movlw	5
 11820     16EC  0093               	movwf	19	;volatile
 11821     16ED                     l4968:
 11822                           
 11823                           ;mcc_generated_files/mcc.c: 70:     OSCSTAT = 0x00;
 11824     16ED  0190               	clrf	16	;volatile
 11825     16EE                     l4970:
 11826                           
 11827                           ;mcc_generated_files/mcc.c: 72:     OSCTUNE = 0x00;
 11828     16EE  0192               	clrf	18	;volatile
 11829     16EF                     l4972:
 11830                           
 11831                           ;mcc_generated_files/mcc.c: 73:     FVRCONbits.ADFVR = 0x03;
 11832     16EF  3003               	movlw	3
 11833     16F0  0152               	movlb	18	; select bank18
 11834     16F1  048C               	iorwf	12,f	;volatile
 11835     16F2                     l4974:
 11836                           
 11837                           ;mcc_generated_files/mcc.c: 74:     FVRCONbits.FVREN = 1;
 11838     16F2  178C               	bsf	12,7	;volatile
 11839     16F3                     l171:
 11840     16F3  0008               	return
 11841     16F4                     __end_of_OSCILLATOR_Initialize:
 11842                           
 11843                           	psect	text30
 11844     07F6                     __ptext30:	
 11845 ;; *************** function _ADC_Initialize *****************
 11846 ;; Defined at:
 11847 ;;		line 67 in file "mcc_generated_files/adc.c"
 11848 ;; Parameters:    Size  Location     Type
 11849 ;;		None
 11850 ;; Auto vars:     Size  Location     Type
 11851 ;;		None
 11852 ;; Return value:  Size  Location     Type
 11853 ;;                  1    wreg      void 
 11854 ;; Registers used:
 11855 ;;		wreg, status,2
 11856 ;; Tracked objects:
 11857 ;;		On entry : 0/0
 11858 ;;		On exit  : 0/0
 11859 ;;		Unchanged: 0/0
 11860 ;; Data sizes:     COMMON   BANK0   BANK1   BANK2   BANK3   BANK4   BANK5   BANK6   BANK7   BANK8   BANK9  BANK10  BANK1
      +1  BANK12  BANK13  BANK14  BANK15  BANK16  BANK17  BANK18  BANK19  BANK20  BANK21  BANK22  BANK23  BANK24  BANK25
 11861 ;;      Params:         0       0       0       0       0       0       0       0       0       0       0       0       
      +0       0       0       0       0       0       0       0       0       0       0       0       0       0       0
 11862 ;;      Locals:         0       0       0       0       0       0       0       0       0       0       0       0       
      +0       0       0       0       0       0       0       0       0       0       0       0       0       0       0
 11863 ;;      Temps:          0       0       0       0       0       0       0       0       0       0       0       0       
      +0       0       0       0       0       0       0       0       0       0       0       0       0       0       0
 11864 ;;      Totals:         0       0       0       0       0       0       0       0       0       0       0       0       
      +0       0       0       0       0       0       0       0       0       0       0       0       0       0       0
 11865 ;;Total ram usage:        0 bytes
 11866 ;; Hardware stack levels used: 1
 11867 ;; Hardware stack levels required when called: 4
 11868 ;; This function calls:
 11869 ;;		Nothing
 11870 ;; This function is called by:
 11871 ;;		_SYSTEM_Initialize
 11872 ;; This function uses a non-reentrant model
 11873 ;;
 11874                           
 11875     07F6                     _ADC_Initialize:	
 11876                           ;psect for function _ADC_Initialize
 11877                           
 11878     07F6                     l4950:	
 11879                           ;incstack = 0
 11880                           ; Regs used in _ADC_Initialize: [wreg+status,2]
 11881                           
 11882                           
 11883                           ;mcc_generated_files/adc.c: 72:     ADCON1 = 0xF3;
 11884     07F6  30F3               	movlw	243
 11885     07F7  0141               	movlb	1	; select bank1
 11886     07F8  009E               	movwf	30	;volatile
 11887     07F9                     l4952:
 11888                           
 11889                           ;mcc_generated_files/adc.c: 75:     ADACT = 0x00;
 11890     07F9  019F               	clrf	31	;volatile
 11891     07FA                     l4954:
 11892                           
 11893                           ;mcc_generated_files/adc.c: 78:     ADRESL = 0x00;
 11894     07FA  019B               	clrf	27	;volatile
 11895     07FB                     l4956:
 11896                           
 11897                           ;mcc_generated_files/adc.c: 81:     ADRESH = 0x00;
 11898     07FB  019C               	clrf	28	;volatile
 11899     07FC                     l4958:
 11900                           
 11901                           ;mcc_generated_files/adc.c: 84:     ADCON0 = 0x01;
 11902     07FC  3001               	movlw	1
 11903     07FD  009D               	movwf	29	;volatile
 11904     07FE                     l123:
 11905     07FE  0008               	return
 11906     07FF                     __end_of_ADC_Initialize:
 11907                           
 11908                           	psect	text31
 11909     168A                     __ptext31:	
 11910 ;; *************** function _InitSoftUART *****************
 11911 ;; Defined at:
 11912 ;;		line 7 in file "Software_UART.c"
 11913 ;; Parameters:    Size  Location     Type
 11914 ;;		None
 11915 ;; Auto vars:     Size  Location     Type
 11916 ;;		None
 11917 ;; Return value:  Size  Location     Type
 11918 ;;                  1    wreg      void 
 11919 ;; Registers used:
 11920 ;;		None
 11921 ;; Tracked objects:
 11922 ;;		On entry : 0/0
 11923 ;;		On exit  : 0/0
 11924 ;;		Unchanged: 0/0
 11925 ;; Data sizes:     COMMON   BANK0   BANK1   BANK2   BANK3   BANK4   BANK5   BANK6   BANK7   BANK8   BANK9  BANK10  BANK1
      +1  BANK12  BANK13  BANK14  BANK15  BANK16  BANK17  BANK18  BANK19  BANK20  BANK21  BANK22  BANK23  BANK24  BANK25
 11926 ;;      Params:         0       0       0       0       0       0       0       0       0       0       0       0       
      +0       0       0       0       0       0       0       0       0       0       0       0       0       0       0
 11927 ;;      Locals:         0       0       0       0       0       0       0       0       0       0       0       0       
      +0       0       0       0       0       0       0       0       0       0       0       0       0       0       0
 11928 ;;      Temps:          0       0       0       0       0       0       0       0       0       0       0       0       
      +0       0       0       0       0       0       0       0       0       0       0       0       0       0       0
 11929 ;;      Totals:         0       0       0       0       0       0       0       0       0       0       0       0       
      +0       0       0       0       0       0       0       0       0       0       0       0       0       0       0
 11930 ;;Total ram usage:        0 bytes
 11931 ;; Hardware stack levels used: 1
 11932 ;; Hardware stack levels required when called: 4
 11933 ;; This function calls:
 11934 ;;		Nothing
 11935 ;; This function is called by:
 11936 ;;		_main
 11937 ;; This function uses a non-reentrant model
 11938 ;;
 11939                           
 11940     168A                     _InitSoftUART:	
 11941                           ;psect for function _InitSoftUART
 11942                           
 11943     168A                     l5102:	
 11944                           ;incstack = 0
 11945                           ; Regs used in _InitSoftUART: []
 11946                           
 11947                           
 11948                           ;Software_UART.c: 9:  PORTEbits.RE0 = 1;
 11949     168A  0140               	movlb	0	; select bank0
 11950     168B  1410               	bsf	16,0	;volatile
 11951     168C                     l779:
 11952     168C  0008               	return
 11953     168D                     __end_of_InitSoftUART:
 11954                           
 11955                           	psect	text32
 11956     0800                     __ptext32:	
 11957 ;; *************** function _ADC_GetConversion *****************
 11958 ;; Defined at:
 11959 ;;		line 117 in file "mcc_generated_files/adc.c"
 11960 ;; Parameters:    Size  Location     Type
 11961 ;;  channel         1    wreg     enum E8046
 11962 ;; Auto vars:     Size  Location     Type
 11963 ;;  channel         1    5[COMMON] enum E8046
 11964 ;; Return value:  Size  Location     Type
 11965 ;;                  2    2[COMMON] unsigned short 
 11966 ;; Registers used:
 11967 ;;		wreg, status,2, status,0
 11968 ;; Tracked objects:
 11969 ;;		On entry : 0/0
 11970 ;;		On exit  : 0/0
 11971 ;;		Unchanged: 0/0
 11972 ;; Data sizes:     COMMON   BANK0   BANK1   BANK2   BANK3   BANK4   BANK5   BANK6   BANK7   BANK8   BANK9  BANK10  BANK1
      +1  BANK12  BANK13  BANK14  BANK15  BANK16  BANK17  BANK18  BANK19  BANK20  BANK21  BANK22  BANK23  BANK24  BANK25
 11973 ;;      Params:         2       0       0       0       0       0       0       0       0       0       0       0       
      +0       0       0       0       0       0       0       0       0       0       0       0       0       0       0
 11974 ;;      Locals:         1       0       0       0       0       0       0       0       0       0       0       0       
      +0       0       0       0       0       0       0       0       0       0       0       0       0       0       0
 11975 ;;      Temps:          1       0       0       0       0       0       0       0       0       0       0       0       
      +0       0       0       0       0       0       0       0       0       0       0       0       0       0       0
 11976 ;;      Totals:         4       0       0       0       0       0       0       0       0       0       0       0       
      +0       0       0       0       0       0       0       0       0       0       0       0       0       0       0
 11977 ;;Total ram usage:        4 bytes
 11978 ;; Hardware stack levels used: 1
 11979 ;; Hardware stack levels required when called: 4
 11980 ;; This function calls:
 11981 ;;		Nothing
 11982 ;; This function is called by:
 11983 ;;		_main
 11984 ;; This function uses a non-reentrant model
 11985 ;;
 11986                           
 11987     0800                     _ADC_GetConversion:	
 11988                           ;psect for function _ADC_GetConversion
 11989                           
 11990                           
 11991                           ;incstack = 0
 11992                           ; Regs used in _ADC_GetConversion: [wreg+status,2+status,0]
 11993                           ;ADC_GetConversion@channel stored from wreg
 11994     0800  00F5               	movwf	ADC_GetConversion@channel
 11995     0801                     l5016:
 11996                           
 11997                           ;mcc_generated_files/adc.c: 117: adc_result_t ADC_GetConversion(adc_channel_t channel);m
      +                          cc_generated_files/adc.c: 118: {;mcc_generated_files/adc.c: 120:     ADCON0bits.CHS = ch
      +                          annel;
 11998     0801  0875               	movf	ADC_GetConversion@channel,w
 11999     0802  00F4               	movwf	??_ADC_GetConversion
 12000     0803  0DF4               	rlf	??_ADC_GetConversion,f
 12001     0804  0DF4               	rlf	??_ADC_GetConversion,f
 12002     0805  0141               	movlb	1	; select bank1
 12003     0806  081D               	movf	29,w	;volatile
 12004     0807  0674               	xorwf	??_ADC_GetConversion,w
 12005     0808  3903               	andlw	-253
 12006     0809  0674               	xorwf	??_ADC_GetConversion,w
 12007     080A  009D               	movwf	29	;volatile
 12008     080B                     l5018:
 12009                           
 12010                           ;mcc_generated_files/adc.c: 123:     ADCON0bits.ADON = 1;
 12011     080B  141D               	bsf	29,0	;volatile
 12012     080C                     l5020:
 12013                           
 12014                           ;mcc_generated_files/adc.c: 126:     _delay((unsigned long)((5)*(16000000/4000000.0)));
 12015     080C  3006               	movlw	6
 12016     080D                     u6717:
 12017     080D  0B89               	decfsz	9,f
 12018     080E  280D               	goto	u6717
 12019     080F  3200               	nop2
 12020     0810                     l5022:
 12021                           
 12022                           ;mcc_generated_files/adc.c: 129:     ADCON0bits.GO = 1;
 12023     0810  0141               	movlb	1	; select bank1
 12024     0811  149D               	bsf	29,1	;volatile
 12025     0812                     l126:	
 12026                           ;mcc_generated_files/adc.c: 133:     {;mcc_generated_files/adc.c: 134:     }
 12027                           
 12028                           
 12029                           ;mcc_generated_files/adc.c: 132:     while (ADCON0bits.GO)
 12030     0812  189D               	btfsc	29,1	;volatile
 12031     0813  2815               	goto	u4601
 12032     0814  2816               	goto	u4600
 12033     0815                     u4601:
 12034     0815  2812               	goto	l126
 12035     0816                     u4600:
 12036     0816                     l5024:
 12037                           
 12038                           ;mcc_generated_files/adc.c: 137:     return ((adc_result_t)((ADRESH << 8) + ADRESL));
 12039     0816  081C               	movf	28,w	;volatile
 12040     0817  00F3               	movwf	?_ADC_GetConversion+1
 12041     0818  081B               	movf	27,w	;volatile
 12042     0819  00F2               	movwf	?_ADC_GetConversion
 12043     081A                     l129:
 12044     081A  0008               	return
 12045     081B                     __end_of_ADC_GetConversion:
 12046                           
 12047                           	psect	intentry
 12048     0004                     __pintentry:	
 12049 ;; *************** function _INTERRUPT_InterruptManager *****************
 12050 ;; Defined at:
 12051 ;;		line 52 in file "mcc_generated_files/interrupt_manager.c"
 12052 ;; Parameters:    Size  Location     Type
 12053 ;;		None
 12054 ;; Auto vars:     Size  Location     Type
 12055 ;;		None
 12056 ;; Return value:  Size  Location     Type
 12057 ;;                  1    wreg      void 
 12058 ;; Registers used:
 12059 ;;		wreg, status,2, status,0, pclath, cstack
 12060 ;; Tracked objects:
 12061 ;;		On entry : 0/0
 12062 ;;		On exit  : 0/0
 12063 ;;		Unchanged: 0/0
 12064 ;; Data sizes:     COMMON   BANK0   BANK1   BANK2   BANK3   BANK4   BANK5   BANK6   BANK7   BANK8   BANK9  BANK10  BANK1
      +1  BANK12  BANK13  BANK14  BANK15  BANK16  BANK17  BANK18  BANK19  BANK20  BANK21  BANK22  BANK23  BANK24  BANK25
 12065 ;;      Params:         0       0       0       0       0       0       0       0       0       0       0       0       
      +0       0       0       0       0       0       0       0       0       0       0       0       0       0       0
 12066 ;;      Locals:         0       0       0       0       0       0       0       0       0       0       0       0       
      +0       0       0       0       0       0       0       0       0       0       0       0       0       0       0
 12067 ;;      Temps:          0       0       0       0       0       0       0       0       0       0       0       0       
      +0       0       0       0       0       0       0       0       0       0       0       0       0       0       0
 12068 ;;      Totals:         0       0       0       0       0       0       0       0       0       0       0       0       
      +0       0       0       0       0       0       0       0       0       0       0       0       0       0       0
 12069 ;;Total ram usage:        0 bytes
 12070 ;; Hardware stack levels used: 1
 12071 ;; Hardware stack levels required when called: 3
 12072 ;; This function calls:
 12073 ;;		_TMR1_ISR
 12074 ;; This function is called by:
 12075 ;;		Interrupt level 1
 12076 ;; This function uses a non-reentrant model
 12077 ;;
 12078                           
 12079     0004                     _INTERRUPT_InterruptManager:
 12080                           
 12081                           ;incstack = 0
 12082     0004  147E               	bsf	int$flags,0	;set compiler interrupt flag (level 1)
 12083                           
 12084                           ; Regs used in _INTERRUPT_InterruptManager: [wreg+status,2+status,0+pclath+cstack]
 12085     0005  3180               	pagesel	$
 12086     0006                     i1l4180:
 12087                           
 12088                           ;mcc_generated_files/interrupt_manager.c: 55:     if(INTCONbits.PEIE == 1)
 12089     0006  1F0B               	btfss	11,6	;volatile
 12090     0007  2809               	goto	u367_21
 12091     0008  280A               	goto	u367_20
 12092     0009                     u367_21:
 12093     0009  2816               	goto	i1l17
 12094     000A                     u367_20:
 12095     000A                     i1l4182:
 12096                           
 12097                           ;mcc_generated_files/interrupt_manager.c: 56:     {;mcc_generated_files/interrupt_manage
      +                          r.c: 57:         if(PIE4bits.TMR1IE == 1 && PIR4bits.TMR1IF == 1)
 12098     000A  014E               	movlb	14	; select bank14
 12099     000B  1C1A               	btfss	26,0	;volatile
 12100     000C  280E               	goto	u368_21
 12101     000D  280F               	goto	u368_20
 12102     000E                     u368_21:
 12103     000E  2816               	goto	i1l17
 12104     000F                     u368_20:
 12105     000F                     i1l4184:
 12106     000F  1C10               	btfss	16,0	;volatile
 12107     0010  2812               	goto	u369_21
 12108     0011  2813               	goto	u369_20
 12109     0012                     u369_21:
 12110     0012  2816               	goto	i1l17
 12111     0013                     u369_20:
 12112     0013                     i1l4186:
 12113                           
 12114                           ;mcc_generated_files/interrupt_manager.c: 58:         {;mcc_generated_files/interrupt_ma
      +                          nager.c: 59:             TMR1_ISR();
 12115     0013  3196  26D8  3180   	fcall	_TMR1_ISR
 12116     0016                     i1l17:	
 12117                           ;mcc_generated_files/interrupt_manager.c: 60:         }
 12118                           
 12119     0016  107E               	bcf	int$flags,0	;clear compiler interrupt flag (level 1)
 12120     0017  0009               	retfie
 12121     0018                     __end_of_INTERRUPT_InterruptManager:
 12122                           
 12123                           	psect	text34
 12124     16D8                     __ptext34:	
 12125 ;; *************** function _TMR1_ISR *****************
 12126 ;; Defined at:
 12127 ;;		line 168 in file "mcc_generated_files/tmr1.c"
 12128 ;; Parameters:    Size  Location     Type
 12129 ;;		None
 12130 ;; Auto vars:     Size  Location     Type
 12131 ;;		None
 12132 ;; Return value:  Size  Location     Type
 12133 ;;                  1    wreg      void 
 12134 ;; Registers used:
 12135 ;;		wreg, status,2, status,0, pclath, cstack
 12136 ;; Tracked objects:
 12137 ;;		On entry : 0/0
 12138 ;;		On exit  : 0/0
 12139 ;;		Unchanged: 0/0
 12140 ;; Data sizes:     COMMON   BANK0   BANK1   BANK2   BANK3   BANK4   BANK5   BANK6   BANK7   BANK8   BANK9  BANK10  BANK1
      +1  BANK12  BANK13  BANK14  BANK15  BANK16  BANK17  BANK18  BANK19  BANK20  BANK21  BANK22  BANK23  BANK24  BANK25
 12141 ;;      Params:         0       0       0       0       0       0       0       0       0       0       0       0       
      +0       0       0       0       0       0       0       0       0       0       0       0       0       0       0
 12142 ;;      Locals:         0       0       0       0       0       0       0       0       0       0       0       0       
      +0       0       0       0       0       0       0       0       0       0       0       0       0       0       0
 12143 ;;      Temps:          0       0       0       0       0       0       0       0       0       0       0       0       
      +0       0       0       0       0       0       0       0       0       0       0       0       0       0       0
 12144 ;;      Totals:         0       0       0       0       0       0       0       0       0       0       0       0       
      +0       0       0       0       0       0       0       0       0       0       0       0       0       0       0
 12145 ;;Total ram usage:        0 bytes
 12146 ;; Hardware stack levels used: 1
 12147 ;; Hardware stack levels required when called: 2
 12148 ;; This function calls:
 12149 ;;		_TMR1_CallBack
 12150 ;;		_TMR1_WriteTimer
 12151 ;; This function is called by:
 12152 ;;		_INTERRUPT_InterruptManager
 12153 ;; This function uses a non-reentrant model
 12154 ;;
 12155                           
 12156     16D8                     _TMR1_ISR:	
 12157                           ;psect for function _TMR1_ISR
 12158                           
 12159     16D8                     i1l3276:	
 12160                           ;incstack = 0
 12161                           ; Regs used in _TMR1_ISR: [wreg+status,2+status,0+pclath+cstack]
 12162                           
 12163                           
 12164                           ;mcc_generated_files/tmr1.c: 172:     PIR4bits.TMR1IF = 0;
 12165     16D8  014E               	movlb	14	; select bank14
 12166     16D9  1010               	bcf	16,0	;volatile
 12167     16DA                     i1l3278:
 12168                           
 12169                           ;mcc_generated_files/tmr1.c: 173:     TMR1_WriteTimer(timer1ReloadVal);
 12170     16DA  0143               	movlb	3	; select bank3
 12171     16DB  086B               	movf	(_timer1ReloadVal+1)^(0+384),w	;volatile
 12172     16DC  00F1               	movwf	TMR1_WriteTimer@timerVal+1
 12173     16DD  086A               	movf	_timer1ReloadVal^(0+384),w	;volatile
 12174     16DE  00F0               	movwf	TMR1_WriteTimer@timerVal
 12175     16DF  3197  2704  3196   	fcall	_TMR1_WriteTimer
 12176                           
 12177                           ;mcc_generated_files/tmr1.c: 177:     TMR1_CallBack();
 12178     16E2  3196  26CB  3196   	fcall	_TMR1_CallBack
 12179     16E5                     i1l213:
 12180     16E5  0008               	return
 12181     16E6                     __end_of_TMR1_ISR:
 12182                           
 12183                           	psect	text35
 12184     1704                     __ptext35:	
 12185 ;; *************** function _TMR1_WriteTimer *****************
 12186 ;; Defined at:
 12187 ;;		line 129 in file "mcc_generated_files/tmr1.c"
 12188 ;; Parameters:    Size  Location     Type
 12189 ;;  timerVal        2    0[COMMON] unsigned short 
 12190 ;; Auto vars:     Size  Location     Type
 12191 ;;		None
 12192 ;; Return value:  Size  Location     Type
 12193 ;;                  1    wreg      void 
 12194 ;; Registers used:
 12195 ;;		wreg, status,2
 12196 ;; Tracked objects:
 12197 ;;		On entry : 0/0
 12198 ;;		On exit  : 0/0
 12199 ;;		Unchanged: 0/0
 12200 ;; Data sizes:     COMMON   BANK0   BANK1   BANK2   BANK3   BANK4   BANK5   BANK6   BANK7   BANK8   BANK9  BANK10  BANK1
      +1  BANK12  BANK13  BANK14  BANK15  BANK16  BANK17  BANK18  BANK19  BANK20  BANK21  BANK22  BANK23  BANK24  BANK25
 12201 ;;      Params:         2       0       0       0       0       0       0       0       0       0       0       0       
      +0       0       0       0       0       0       0       0       0       0       0       0       0       0       0
 12202 ;;      Locals:         0       0       0       0       0       0       0       0       0       0       0       0       
      +0       0       0       0       0       0       0       0       0       0       0       0       0       0       0
 12203 ;;      Temps:          0       0       0       0       0       0       0       0       0       0       0       0       
      +0       0       0       0       0       0       0       0       0       0       0       0       0       0       0
 12204 ;;      Totals:         2       0       0       0       0       0       0       0       0       0       0       0       
      +0       0       0       0       0       0       0       0       0       0       0       0       0       0       0
 12205 ;;Total ram usage:        2 bytes
 12206 ;; Hardware stack levels used: 1
 12207 ;; This function calls:
 12208 ;;		Nothing
 12209 ;; This function is called by:
 12210 ;;		_TMR1_ISR
 12211 ;; This function uses a non-reentrant model
 12212 ;;
 12213                           
 12214     1704                     _TMR1_WriteTimer:	
 12215                           ;psect for function _TMR1_WriteTimer
 12216                           
 12217     1704                     i1l3236:	
 12218                           ;incstack = 0
 12219                           ; Regs used in _TMR1_WriteTimer: [wreg+status,2]
 12220                           
 12221                           
 12222                           ;mcc_generated_files/tmr1.c: 129: void TMR1_WriteTimer(uint16_t timerVal);mcc_generated_
      +                          files/tmr1.c: 130: {;mcc_generated_files/tmr1.c: 131:     if (T1CONbits.nT1SYNC == 1)
 12223     1704  0144               	movlb	4	; select bank4
 12224     1705  1D0E               	btfss	14,2	;volatile
 12225     1706  2F08               	goto	u229_21
 12226     1707  2F09               	goto	u229_20
 12227     1708                     u229_21:
 12228     1708  2F10               	goto	i1l3246
 12229     1709                     u229_20:
 12230     1709                     i1l3238:
 12231                           
 12232                           ;mcc_generated_files/tmr1.c: 132:     {;mcc_generated_files/tmr1.c: 134:         T1CONbi
      +                          ts.TMR1ON = 0;
 12233     1709  100E               	bcf	14,0	;volatile
 12234     170A                     i1l3240:
 12235                           
 12236                           ;mcc_generated_files/tmr1.c: 137:         TMR1H = (uint8_t)(timerVal >> 8);
 12237     170A  0871               	movf	TMR1_WriteTimer@timerVal+1,w
 12238     170B  008D               	movwf	13	;volatile
 12239     170C                     i1l3242:
 12240                           
 12241                           ;mcc_generated_files/tmr1.c: 138:         TMR1L = (uint8_t)timerVal;
 12242     170C  0870               	movf	TMR1_WriteTimer@timerVal,w
 12243     170D  008C               	movwf	12	;volatile
 12244     170E                     i1l3244:
 12245                           
 12246                           ;mcc_generated_files/tmr1.c: 141:         T1CONbits.TMR1ON =1;
 12247     170E  140E               	bsf	14,0	;volatile
 12248                           
 12249                           ;mcc_generated_files/tmr1.c: 142:     }
 12250     170F  2F14               	goto	i1l210
 12251     1710                     i1l3246:
 12252                           
 12253                           ;mcc_generated_files/tmr1.c: 144:     {;mcc_generated_files/tmr1.c: 146:         TMR1H =
      +                           (uint8_t)(timerVal >> 8);
 12254     1710  0871               	movf	TMR1_WriteTimer@timerVal+1,w
 12255     1711  008D               	movwf	13	;volatile
 12256     1712                     i1l3248:
 12257                           
 12258                           ;mcc_generated_files/tmr1.c: 147:         TMR1L = (uint8_t)timerVal;
 12259     1712  0870               	movf	TMR1_WriteTimer@timerVal,w
 12260     1713  008C               	movwf	12	;volatile
 12261     1714                     i1l210:
 12262     1714  0008               	return
 12263     1715                     __end_of_TMR1_WriteTimer:
 12264                           
 12265                           	psect	text36
 12266     16CB                     __ptext36:	
 12267 ;; *************** function _TMR1_CallBack *****************
 12268 ;; Defined at:
 12269 ;;		line 180 in file "mcc_generated_files/tmr1.c"
 12270 ;; Parameters:    Size  Location     Type
 12271 ;;		None
 12272 ;; Auto vars:     Size  Location     Type
 12273 ;;		None
 12274 ;; Return value:  Size  Location     Type
 12275 ;;                  1    wreg      void 
 12276 ;; Registers used:
 12277 ;;		wreg, status,2, status,0, pclath, cstack
 12278 ;; Tracked objects:
 12279 ;;		On entry : 0/0
 12280 ;;		On exit  : 0/0
 12281 ;;		Unchanged: 0/0
 12282 ;; Data sizes:     COMMON   BANK0   BANK1   BANK2   BANK3   BANK4   BANK5   BANK6   BANK7   BANK8   BANK9  BANK10  BANK1
      +1  BANK12  BANK13  BANK14  BANK15  BANK16  BANK17  BANK18  BANK19  BANK20  BANK21  BANK22  BANK23  BANK24  BANK25
 12283 ;;      Params:         0       0       0       0       0       0       0       0       0       0       0       0       
      +0       0       0       0       0       0       0       0       0       0       0       0       0       0       0
 12284 ;;      Locals:         0       0       0       0       0       0       0       0       0       0       0       0       
      +0       0       0       0       0       0       0       0       0       0       0       0       0       0       0
 12285 ;;      Temps:          0       0       0       0       0       0       0       0       0       0       0       0       
      +0       0       0       0       0       0       0       0       0       0       0       0       0       0       0
 12286 ;;      Totals:         0       0       0       0       0       0       0       0       0       0       0       0       
      +0       0       0       0       0       0       0       0       0       0       0       0       0       0       0
 12287 ;;Total ram usage:        0 bytes
 12288 ;; Hardware stack levels used: 1
 12289 ;; Hardware stack levels required when called: 1
 12290 ;; This function calls:
 12291 ;;		Absolute function
 12292 ;;		_TMR1_DefaultInterruptHandler
 12293 ;;		_timer2ISR
 12294 ;; This function is called by:
 12295 ;;		_TMR1_ISR
 12296 ;; This function uses a non-reentrant model
 12297 ;;
 12298                           
 12299     16CB                     _TMR1_CallBack:	
 12300                           ;psect for function _TMR1_CallBack
 12301                           
 12302     16CB                     i1l3250:	
 12303                           ;incstack = 0
 12304                           ; Regs used in _TMR1_CallBack: [wreg+status,2+status,0+pclath+cstack]
 12305                           
 12306                           
 12307                           ;mcc_generated_files/tmr1.c: 183:     if(TMR1_InterruptHandler)
 12308     16CB  0143               	movlb	3	; select bank3
 12309     16CC  0868               	movf	_TMR1_InterruptHandler^(0+384),w
 12310     16CD  0469               	iorwf	(_TMR1_InterruptHandler+1)^(0+384),w
 12311     16CE  1903               	btfsc	3,2
 12312     16CF  2ED1               	goto	u230_21
 12313     16D0  2ED2               	goto	u230_20
 12314     16D1                     u230_21:
 12315     16D1  2ED7               	goto	i1l217
 12316     16D2                     u230_20:
 12317     16D2                     i1l3252:
 12318                           
 12319                           ;mcc_generated_files/tmr1.c: 184:     {;mcc_generated_files/tmr1.c: 185:         TMR1_In
      +                          terruptHandler();
 12320     16D2  0869               	movf	(_TMR1_InterruptHandler+1)^(0+384),w
 12321     16D3  008A               	movwf	10
 12322     16D4  0868               	movf	_TMR1_InterruptHandler^(0+384),w
 12323     16D5  000A               	callw
 12324     16D6  3196               	pagesel	$
 12325     16D7                     i1l217:
 12326     16D7  0008               	return
 12327     16D8                     __end_of_TMR1_CallBack:
 12328                           
 12329                           	psect	text37
 12330     07FF                     __ptext37:	
 12331 ;; *************** function _TMR1_DefaultInterruptHandler *****************
 12332 ;; Defined at:
 12333 ;;		line 193 in file "mcc_generated_files/tmr1.c"
 12334 ;; Parameters:    Size  Location     Type
 12335 ;;		None
 12336 ;; Auto vars:     Size  Location     Type
 12337 ;;		None
 12338 ;; Return value:  Size  Location     Type
 12339 ;;                  1    wreg      void 
 12340 ;; Registers used:
 12341 ;;		None
 12342 ;; Tracked objects:
 12343 ;;		On entry : 0/0
 12344 ;;		On exit  : 0/0
 12345 ;;		Unchanged: 0/0
 12346 ;; Data sizes:     COMMON   BANK0   BANK1   BANK2   BANK3   BANK4   BANK5   BANK6   BANK7   BANK8   BANK9  BANK10  BANK1
      +1  BANK12  BANK13  BANK14  BANK15  BANK16  BANK17  BANK18  BANK19  BANK20  BANK21  BANK22  BANK23  BANK24  BANK25
 12347 ;;      Params:         0       0       0       0       0       0       0       0       0       0       0       0       
      +0       0       0       0       0       0       0       0       0       0       0       0       0       0       0
 12348 ;;      Locals:         0       0       0       0       0       0       0       0       0       0       0       0       
      +0       0       0       0       0       0       0       0       0       0       0       0       0       0       0
 12349 ;;      Temps:          0       0       0       0       0       0       0       0       0       0       0       0       
      +0       0       0       0       0       0       0       0       0       0       0       0       0       0       0
 12350 ;;      Totals:         0       0       0       0       0       0       0       0       0       0       0       0       
      +0       0       0       0       0       0       0       0       0       0       0       0       0       0       0
 12351 ;;Total ram usage:        0 bytes
 12352 ;; Hardware stack levels used: 1
 12353 ;; This function calls:
 12354 ;;		Nothing
 12355 ;; This function is called by:
 12356 ;;		_TMR1_Initialize
 12357 ;;		_TMR1_CallBack
 12358 ;; This function uses a non-reentrant model
 12359 ;;
 12360                           
 12361     07FF                     _TMR1_DefaultInterruptHandler:	
 12362                           ;psect for function _TMR1_DefaultInterruptHandler
 12363                           
 12364     07FF                     i1l223:	
 12365                           ;incstack = 0
 12366                           ; Regs used in _TMR1_DefaultInterruptHandler: []
 12367                           
 12368     07FF  0008               	return
 12369     0800                     __end_of_TMR1_DefaultInterruptHandler:
 12370                           
 12371                           	psect	text38
 12372     169B                     __ptext38:	
 12373 ;; *************** function _timer2ISR *****************
 12374 ;; Defined at:
 12375 ;;		line 70 in file "main.c"
 12376 ;; Parameters:    Size  Location     Type
 12377 ;;		None
 12378 ;; Auto vars:     Size  Location     Type
 12379 ;;		None
 12380 ;; Return value:  Size  Location     Type
 12381 ;;                  1    wreg      void 
 12382 ;; Registers used:
 12383 ;;		wreg
 12384 ;; Tracked objects:
 12385 ;;		On entry : 0/0
 12386 ;;		On exit  : 0/0
 12387 ;;		Unchanged: 0/0
 12388 ;; Data sizes:     COMMON   BANK0   BANK1   BANK2   BANK3   BANK4   BANK5   BANK6   BANK7   BANK8   BANK9  BANK10  BANK1
      +1  BANK12  BANK13  BANK14  BANK15  BANK16  BANK17  BANK18  BANK19  BANK20  BANK21  BANK22  BANK23  BANK24  BANK25
 12389 ;;      Params:         0       0       0       0       0       0       0       0       0       0       0       0       
      +0       0       0       0       0       0       0       0       0       0       0       0       0       0       0
 12390 ;;      Locals:         0       0       0       0       0       0       0       0       0       0       0       0       
      +0       0       0       0       0       0       0       0       0       0       0       0       0       0       0
 12391 ;;      Temps:          0       0       0       0       0       0       0       0       0       0       0       0       
      +0       0       0       0       0       0       0       0       0       0       0       0       0       0       0
 12392 ;;      Totals:         0       0       0       0       0       0       0       0       0       0       0       0       
      +0       0       0       0       0       0       0       0       0       0       0       0       0       0       0
 12393 ;;Total ram usage:        0 bytes
 12394 ;; Hardware stack levels used: 1
 12395 ;; This function calls:
 12396 ;;		Nothing
 12397 ;; This function is called by:
 12398 ;;		_main
 12399 ;;		_TMR1_CallBack
 12400 ;; This function uses a non-reentrant model
 12401 ;;
 12402                           
 12403     169B                     _timer2ISR:	
 12404                           ;psect for function _timer2ISR
 12405                           
 12406     169B                     i1l3132:	
 12407                           ;incstack = 0
 12408                           ; Regs used in _timer2ISR: [wreg]
 12409                           
 12410                           
 12411                           ;main.c: 72:     tick++;
 12412     169B  3001               	movlw	1
 12413     169C  0143               	movlb	3	; select bank3
 12414     169D  07D0               	addwf	_tick^(0+384),f	;volatile
 12415     169E  3000               	movlw	0
 12416     169F  3DD1               	addwfc	(_tick+1)^(0+384),f	;volatile
 12417     16A0  3000               	movlw	0
 12418     16A1  3DD2               	addwfc	(_tick+2)^(0+384),f	;volatile
 12419     16A2  3000               	movlw	0
 12420     16A3  3DD3               	addwfc	(_tick+3)^(0+384),f	;volatile
 12421                           
 12422                           ;main.c: 73:     run_mainloop = 1;
 12423     16A4  3001               	movlw	1
 12424     16A5  00E7               	movwf	_run_mainloop^(0+384)	;volatile
 12425     16A6                     i1l342:
 12426     16A6  0008               	return
 12427     16A7                     __end_of_timer2ISR:
 12428     007E                     btemp	set	126	;btemp
 12429     007E                     int$flags	set	126
 12430     007E                     wtemp0	set	126
 12431     2728                     
 12432                           	psect	idloc
 12433                           
 12434                           ;Config register IDLOC0 @ 0x8000
 12435                           ;	unspecified, using default values
 12436     8000                     	org	32768
 12437     8000  3FFF               	dw	16383
 12438                           
 12439                           ;Config register IDLOC1 @ 0x8001
 12440                           ;	unspecified, using default values
 12441     8001                     	org	32769
 12442     8001  3FFF               	dw	16383
 12443                           
 12444                           ;Config register IDLOC2 @ 0x8002
 12445                           ;	unspecified, using default values
 12446     8002                     	org	32770
 12447     8002  3FFF               	dw	16383
 12448                           
 12449                           ;Config register IDLOC3 @ 0x8003
 12450                           ;	unspecified, using default values
 12451     8003                     	org	32771
 12452     8003  3FFF               	dw	16383
 12453                           
 12454                           	psect	config
 12455                           
 12456                           ;Config register CONFIG1 @ 0x8007
 12457                           ;	External Oscillator mode selection bits
 12458                           ;	FEXTOSC = OFF, Oscillator not enabled
 12459                           ;	Power-up default value for COSC bits
 12460                           ;	RSTOSC = HFINT1, HFINTOSC (1MHz)
 12461                           ;	Clock Out Enable bit
 12462                           ;	CLKOUTEN = OFF, CLKOUT function is disabled; i/o or oscillator function on OSC2
 12463                           ;	Clock Switch Enable bit
 12464                           ;	CSWEN = ON, Writing to NOSC and NDIV is allowed
 12465                           ;	Fail-Safe Clock Monitor Enable bit
 12466                           ;	FCMEN = ON, FSCM timer enabled
 12467     8007                     	org	32775
 12468     8007  3FEC               	dw	16364
 12469                           
 12470                           ;Config register CONFIG2 @ 0x8008
 12471                           ;	Master Clear Enable bit
 12472                           ;	MCLRE = OFF, MCLR pin function is port defined function
 12473                           ;	Power-up Timer Enable bit
 12474                           ;	PWRTE = OFF, PWRT disabled
 12475                           ;	Low-Power BOR enable bit
 12476                           ;	LPBOREN = OFF, ULPBOR disabled
 12477                           ;	Brown-out reset enable bits
 12478                           ;	BOREN = ON, Brown-out Reset Enabled, SBOREN bit is ignored
 12479                           ;	Brown-out Reset Voltage Selection
 12480                           ;	BORV = LO, Brown-out Reset Voltage (VBOR) set to 1.9V on LF, and 2.45V on F Devices
 12481                           ;	Zero-cross detect disable
 12482                           ;	ZCD = OFF, Zero-cross detect circuit is disabled at POR.
 12483                           ;	Peripheral Pin Select one-way control
 12484                           ;	PPS1WAY = ON, The PPSLOCK bit can be cleared and set only once in software
 12485                           ;	Stack Overflow/Underflow Reset Enable bit
 12486                           ;	STVREN = ON, Stack Overflow or Underflow will cause a reset
 12487     8008                     	org	32776
 12488     8008  3FFE               	dw	16382
 12489                           
 12490                           ;Config register CONFIG3 @ 0x8009
 12491                           ;	WDT Period Select bits
 12492                           ;	WDTCPS = WDTCPS_31, Divider ratio 1:65536; software control of WDTPS
 12493                           ;	WDT operating mode
 12494                           ;	WDTE = OFF, WDT Disabled, SWDTEN is ignored
 12495                           ;	WDT Window Select bits
 12496                           ;	WDTCWS = WDTCWS_7, window always open (100%); software control; keyed access not requi
      +                          red
 12497                           ;	WDT input clock selector
 12498                           ;	WDTCCS = SC, Software Control
 12499     8009                     	org	32777
 12500     8009  3F9F               	dw	16287
 12501                           
 12502                           ;Config register CONFIG4 @ 0x800A
 12503                           ;	Boot Block Size Selection bits
 12504                           ;	BBSIZE = BB512, 512 words boot block size
 12505                           ;	Boot Block Enable bit
 12506                           ;	BBEN = OFF, Boot Block disabled
 12507                           ;	SAF Enable bit
 12508                           ;	SAFEN = OFF, SAF disabled
 12509                           ;	Application Block Write Protection bit
 12510                           ;	WRTAPP = OFF, Application Block not write protected
 12511                           ;	Boot Block Write Protection bit
 12512                           ;	WRTB = OFF, Boot Block not write protected
 12513                           ;	Configuration Register Write Protection bit
 12514                           ;	WRTC = OFF, Configuration Register not write protected
 12515                           ;	Storage Area Flash Write Protection bit
 12516                           ;	WRTSAF = OFF, SAF not write protected
 12517                           ;	Low Voltage Programming Enable bit
 12518                           ;	LVP = OFF, High Voltage on MCLR/Vpp must be used for programming
 12519     800A                     	org	32778
 12520     800A  1FFF               	dw	8191
 12521                           
 12522                           ;Config register CONFIG5 @ 0x800B
 12523                           ;	UserNVM Program memory code protection bit
 12524                           ;	CP = OFF, UserNVM code protection disabled
 12525     800B                     	org	32779
 12526     800B  3FFF               	dw	16383

Data Sizes:
    Strings     0
    Constant    4
    Data        107
    BSS         342
    Persistent  36
    Stack       0

Auto Spaces:
    Space          Size  Autos    Used
    COMMON           14     10      12
    BANK0            80     66      79
    BANK1            80     80      80
    BANK2            80     77      80
    BANK3            80      1      77
    BANK4            80      2      77
    BANK5            80      0      60
    BANK6            80      0      74
    BANK7            80      0      50
    BANK8            80      0      50
    BANK9            80      0      50
    BANK10           80      0       0
    BANK11           80      0       0
    BANK12           80      0       0
    BANK13           80      0       0
    BANK14           80      0       0
    BANK15           80      0       0
    BANK16           80      0       0
    BANK17           80      0       0
    BANK18           80      0       0
    BANK19           80      0       0
    BANK20           80      0       0
    BANK21           80      0       0
    BANK22           72      0       0
    BANK23            0      0       0
    BANK24            0      0       0
    BANK25            0      0       0

Pointer List with Targets:

    ADC_InterruptHandler	PTR FTN()void  size(2) Largest target is 1
		 -> Absolute function(), 

    circ_bbuf_push@c.buffer	const PTR unsigned char  size(2) Largest target is 200
		 -> my_circ_buf_data_space(BIGRAM[200]), 

    circ_bbuf_push@c	PTR struct . size(2) Largest target is 8
		 -> my_circ_buf(BANK4[8]), 

    circ_bbuf_pop@data	PTR unsigned char  size(1) Largest target is 1
		 -> main@ch(BANK0[1]), 

    circ_bbuf_pop@c.buffer	const PTR unsigned char  size(2) Largest target is 200
		 -> my_circ_buf_data_space(BIGRAM[200]), 

    circ_bbuf_pop@c	PTR struct . size(2) Largest target is 8
		 -> my_circ_buf(BANK4[8]), 

    check_sequence_L3@channel_reading	PTR unsigned char  size(1) Largest target is 6
		 -> main@reading(BANK2[6]), 

    check_sequence_L2@channel_reading	PTR unsigned char  size(1) Largest target is 6
		 -> main@reading(BANK2[6]), 

    check_sequence_L1@channel_reading	PTR unsigned char  size(1) Largest target is 6
		 -> main@reading(BANK2[6]), 

    out_seq_pointer	PTR unsigned char [3] size(2) Largest target is 13
		 -> out_seq_L3(BANK4[13]), out_seq_L2(BANK3[13]), out_seq_L1(BANK3[13]), 

    test_seq_pointer	PTR unsigned char [3] size(1) Largest target is 12
		 -> test_seq_L3(BANK5[12]), test_seq_L2(BANK4[12]), test_seq_L1(BANK4[12]), 

    push_string_buffer@data	PTR unsigned char  size(1) Largest target is 50
		 -> relay_to_on_step1_msg@buffer(BANK0[50]), relay_to_on_msg@buffer(BANK0[50]), relay_to_off_step1_msg@buffer(BANK0[50]), relay_to_off_msg@buffer(BANK0[50]), 
		 -> main@buffer(BANK1[50]), 

    S352$buffer	const PTR unsigned char  size(2) Largest target is 200
		 -> my_circ_buf_data_space(BIGRAM[200]), 

    my_circ_buf.buffer	const PTR unsigned char  size(2) Largest target is 200
		 -> my_circ_buf_data_space(BIGRAM[200]), 

    TMR1_SetInterruptHandler@InterruptHandler	PTR FTN()void  size(2) Largest target is 1
		 -> timer2ISR(), TMR1_DefaultInterruptHandler(), 

    TMR1_InterruptHandler	PTR FTN()void  size(2) Largest target is 1
		 -> timer2ISR(), Absolute function(), TMR1_DefaultInterruptHandler(), 


Critical Paths under _main in COMMON

    _push_string_buffer->_circ_bbuf_push
    _millis->___lmul
    _TMR1_Initialize->_TMR1_SetInterruptHandler

Critical Paths under _INTERRUPT_InterruptManager in COMMON

    _TMR1_ISR->_TMR1_WriteTimer

Critical Paths under _main in BANK0

    _main->_relay_to_off_msg
    _main->_relay_to_on_msg
    _relay_to_on_step1_msg->_push_string_buffer
    _relay_to_on_msg->_push_string_buffer
    _relay_to_off_step1_msg->_push_string_buffer
    _relay_to_off_msg->_push_string_buffer
    _millis->___lmul

Critical Paths under _INTERRUPT_InterruptManager in BANK0

    None.

Critical Paths under _main in BANK1

    None.

Critical Paths under _INTERRUPT_InterruptManager in BANK1

    None.

Critical Paths under _main in BANK2

    None.

Critical Paths under _INTERRUPT_InterruptManager in BANK2

    None.

Critical Paths under _main in BANK3

    None.

Critical Paths under _INTERRUPT_InterruptManager in BANK3

    None.

Critical Paths under _main in BANK4

    None.

Critical Paths under _INTERRUPT_InterruptManager in BANK4

    None.

Critical Paths under _main in BANK5

    None.

Critical Paths under _INTERRUPT_InterruptManager in BANK5

    None.

Critical Paths under _main in BANK6

    None.

Critical Paths under _INTERRUPT_InterruptManager in BANK6

    None.

Critical Paths under _main in BANK7

    None.

Critical Paths under _INTERRUPT_InterruptManager in BANK7

    None.

Critical Paths under _main in BANK8

    None.

Critical Paths under _INTERRUPT_InterruptManager in BANK8

    None.

Critical Paths under _main in BANK9

    None.

Critical Paths under _INTERRUPT_InterruptManager in BANK9

    None.

Critical Paths under _main in BANK10

    None.

Critical Paths under _INTERRUPT_InterruptManager in BANK10

    None.

Critical Paths under _main in BANK11

    None.

Critical Paths under _INTERRUPT_InterruptManager in BANK11

    None.

Critical Paths under _main in BANK12

    None.

Critical Paths under _INTERRUPT_InterruptManager in BANK12

    None.

Critical Paths under _main in BANK13

    None.

Critical Paths under _INTERRUPT_InterruptManager in BANK13

    None.

Critical Paths under _main in BANK14

    None.

Critical Paths under _INTERRUPT_InterruptManager in BANK14

    None.

Critical Paths under _main in BANK15

    None.

Critical Paths under _INTERRUPT_InterruptManager in BANK15

    None.

Critical Paths under _main in BANK16

    None.

Critical Paths under _INTERRUPT_InterruptManager in BANK16

    None.

Critical Paths under _main in BANK17

    None.

Critical Paths under _INTERRUPT_InterruptManager in BANK17

    None.

Critical Paths under _main in BANK18

    None.

Critical Paths under _INTERRUPT_InterruptManager in BANK18

    None.

Critical Paths under _main in BANK19

    None.

Critical Paths under _INTERRUPT_InterruptManager in BANK19

    None.

Critical Paths under _main in BANK20

    None.

Critical Paths under _INTERRUPT_InterruptManager in BANK20

    None.

Critical Paths under _main in BANK21

    None.

Critical Paths under _INTERRUPT_InterruptManager in BANK21

    None.

Critical Paths under _main in BANK22

    None.

Critical Paths under _INTERRUPT_InterruptManager in BANK22

    None.

Critical Paths under _main in BANK23

    None.

Critical Paths under _INTERRUPT_InterruptManager in BANK23

    None.

Critical Paths under _main in BANK24

    None.

Critical Paths under _INTERRUPT_InterruptManager in BANK24

    None.

Critical Paths under _main in BANK25

    None.

Critical Paths under _INTERRUPT_InterruptManager in BANK25

    None.

Call Graph Tables:

 ---------------------------------------------------------------------------------
 (Depth) Function   	        Calls       Base Space   Used Autos Params    Refs
 ---------------------------------------------------------------------------------
 (0) _main                                               166   166      0   26984
                                             60 BANK0      6     6      0
                                              0 BANK1     80    80      0
                                              0 BANK2     77    77      0
                                              0 BANK3      1     1      0
                                              0 BANK4      2     2      0
                  _ADC_GetConversion
                       _InitSoftUART
                  _SYSTEM_Initialize
           _TMR1_SetInterruptHandler
                      _UART_Transmit
                  _check_sequence_L1
                  _check_sequence_L2
                  _check_sequence_L3
                      _circ_bbuf_pop
                           _flag_off
                     _flag_off_step1
                            _flag_on
                      _flag_on_step1
                     _getOutputLevel
                         _initialize
                             _millis
                 _push_string_buffer
                       _relay_to_off
                   _relay_to_off_msg
                 _relay_to_off_step1
             _relay_to_off_step1_msg
                        _relay_to_on
                    _relay_to_on_msg
                  _relay_to_on_step1
              _relay_to_on_step1_msg
 ---------------------------------------------------------------------------------
 (1) _relay_to_on_step1_msg                               53    53      0    2556
                                              6 BANK0     53    53      0
                 _push_string_buffer
 ---------------------------------------------------------------------------------
 (1) _relay_to_on_step1                                    4     3      1     335
                                              2 COMMON     4     3      1
 ---------------------------------------------------------------------------------
 (1) _relay_to_on_msg                                     54    53      1    4420
                                              6 BANK0     54    53      1
                 _push_string_buffer
 ---------------------------------------------------------------------------------
 (1) _relay_to_on                                          5     3      2     949
                                              2 COMMON     5     3      2
 ---------------------------------------------------------------------------------
 (1) _relay_to_off_step1_msg                              53    53      0    2331
                                              6 BANK0     53    53      0
                 _push_string_buffer
 ---------------------------------------------------------------------------------
 (1) _relay_to_off_step1                                   4     3      1     335
                                              2 COMMON     4     3      1
 ---------------------------------------------------------------------------------
 (1) _relay_to_off_msg                                    54    53      1    4158
                                              6 BANK0     54    53      1
                 _push_string_buffer
 ---------------------------------------------------------------------------------
 (2) _push_string_buffer                                   6     4      2    1363
                                              0 BANK0      6     4      2
                     _circ_bbuf_push
 ---------------------------------------------------------------------------------
 (3) _circ_bbuf_push                                       8     5      3     477
                                              2 COMMON     8     5      3
 ---------------------------------------------------------------------------------
 (1) _relay_to_off                                         5     3      2    1129
                                              2 COMMON     5     3      2
 ---------------------------------------------------------------------------------
 (1) _millis                                               8     4      4     350
                                              4 BANK0      8     4      4
                             ___lmul
 ---------------------------------------------------------------------------------
 (2) ___lmul                                              12     4      8     316
                                              2 COMMON     8     0      8
                                              0 BANK0      4     4      0
 ---------------------------------------------------------------------------------
 (1) _initialize                                           2     2      0       0
                                              2 COMMON     2     2      0
 ---------------------------------------------------------------------------------
 (1) _getOutputLevel                                      13    10      3     892
                                              2 COMMON     5     2      3
                                              0 BANK0      8     8      0
 ---------------------------------------------------------------------------------
 (1) _flag_on_step1                                        3     3      0      31
                                              2 COMMON     3     3      0
 ---------------------------------------------------------------------------------
 (1) _flag_on                                              4     3      1     214
                                              2 COMMON     4     3      1
 ---------------------------------------------------------------------------------
 (1) _flag_off_step1                                       3     3      0      31
                                              2 COMMON     3     3      0
 ---------------------------------------------------------------------------------
 (1) _flag_off                                             4     3      1     307
                                              2 COMMON     4     3      1
 ---------------------------------------------------------------------------------
 (1) _circ_bbuf_pop                                        9     6      3     477
                                              2 COMMON     7     4      3
                                              0 BANK0      2     2      0
 ---------------------------------------------------------------------------------
 (1) _check_sequence_L3                                    1     1      0     408
                                              2 COMMON     1     1      0
 ---------------------------------------------------------------------------------
 (1) _check_sequence_L2                                    1     1      0     408
                                              2 COMMON     1     1      0
 ---------------------------------------------------------------------------------
 (1) _check_sequence_L1                                    1     1      0     408
                                              2 COMMON     1     1      0
 ---------------------------------------------------------------------------------
 (1) _UART_Transmit                                        3     3      0     130
                                              2 COMMON     3     3      0
 ---------------------------------------------------------------------------------
 (1) _SYSTEM_Initialize                                    0     0      0     211
                     _ADC_Initialize
              _OSCILLATOR_Initialize
             _PIN_MANAGER_Initialize
                     _PMD_Initialize
                    _TMR1_Initialize
 ---------------------------------------------------------------------------------
 (2) _TMR1_Initialize                                      0     0      0     211
           _TMR1_SetInterruptHandler
 ---------------------------------------------------------------------------------
 (1) _TMR1_SetInterruptHandler                             2     0      2     211
                                              2 COMMON     2     0      2
 ---------------------------------------------------------------------------------
 (2) _PMD_Initialize                                       0     0      0       0
 ---------------------------------------------------------------------------------
 (2) _PIN_MANAGER_Initialize                               0     0      0       0
 ---------------------------------------------------------------------------------
 (2) _OSCILLATOR_Initialize                                0     0      0       0
 ---------------------------------------------------------------------------------
 (2) _ADC_Initialize                                       0     0      0       0
 ---------------------------------------------------------------------------------
 (1) _InitSoftUART                                         0     0      0       0
 ---------------------------------------------------------------------------------
 (1) _ADC_GetConversion                                    4     2      2      31
                                              2 COMMON     4     2      2
 ---------------------------------------------------------------------------------
 Estimated maximum stack depth 3
 ---------------------------------------------------------------------------------
 (Depth) Function   	        Calls       Base Space   Used Autos Params    Refs
 ---------------------------------------------------------------------------------
 (4) _INTERRUPT_InterruptManager                           0     0      0     164
                           _TMR1_ISR
 ---------------------------------------------------------------------------------
 (5) _TMR1_ISR                                             0     0      0     164
                      _TMR1_CallBack
                    _TMR1_WriteTimer
 ---------------------------------------------------------------------------------
 (6) _TMR1_WriteTimer                                      2     0      2     164
                                              0 COMMON     2     0      2
 ---------------------------------------------------------------------------------
 (6) _TMR1_CallBack                                        0     0      0       0
                   Absolute function *
       _TMR1_DefaultInterruptHandler *
                          _timer2ISR *
 ---------------------------------------------------------------------------------
 (7) _timer2ISR                                            0     0      0       0
 ---------------------------------------------------------------------------------
 (7) _TMR1_DefaultInterruptHandler                         0     0      0       0
 ---------------------------------------------------------------------------------
 (7) Absolute function(Fake)                               0     0      0       0
 ---------------------------------------------------------------------------------
 Estimated maximum stack depth 7
 ---------------------------------------------------------------------------------

 Call Graph Graphs:

 _main (ROOT)
   _ADC_GetConversion
   _InitSoftUART
   _SYSTEM_Initialize
     _ADC_Initialize
     _OSCILLATOR_Initialize
     _PIN_MANAGER_Initialize
     _PMD_Initialize
     _TMR1_Initialize
       _TMR1_SetInterruptHandler
   _TMR1_SetInterruptHandler
   _UART_Transmit
   _check_sequence_L1
   _check_sequence_L2
   _check_sequence_L3
   _circ_bbuf_pop
   _flag_off
   _flag_off_step1
   _flag_on
   _flag_on_step1
   _getOutputLevel
   _initialize
   _millis
     ___lmul
   _push_string_buffer
     _circ_bbuf_push
   _relay_to_off
   _relay_to_off_msg
     _push_string_buffer
   _relay_to_off_step1
   _relay_to_off_step1_msg
     _push_string_buffer
   _relay_to_on
   _relay_to_on_msg
     _push_string_buffer
   _relay_to_on_step1
   _relay_to_on_step1_msg
     _push_string_buffer

 _INTERRUPT_InterruptManager (ROOT)
   _TMR1_ISR
     _TMR1_CallBack
       Absolute function(Fake) *
       _TMR1_DefaultInterruptHandler *
       _timer2ISR *
     _TMR1_WriteTimer

 Address spaces:
Name               Size   Autos  Total    Cost      Usage
BIGRAM             7F0      0       0       0        0.0%
NULL                 0      0       0       0        0.0%
CODE                 0      0       0       0        0.0%
BITCOMMON            E      0       0       1        0.0%
BITSFR0              0      0       0       1        0.0%
SFR0                 0      0       0       1        0.0%
COMMON               E      A       C       2       85.7%
BITSFR1              0      0       0       2        0.0%
SFR1                 0      0       0       2        0.0%
BITSFR2              0      0       0       3        0.0%
SFR2                 0      0       0       3        0.0%
STACK                0      0       0       3        0.0%
BITBANK0            50      0       0       4        0.0%
BITSFR3              0      0       0       4        0.0%
SFR3                 0      0       0       4        0.0%
BANK0               50     42      4F       5       98.8%
BITSFR4              0      0       0       5        0.0%
SFR4                 0      0       0       5        0.0%
BITBANK1            50      0       0       6        0.0%
BITSFR5              0      0       0       6        0.0%
SFR5                 0      0       0       6        0.0%
BANK1               50     50      50       7      100.0%
BITSFR6              0      0       0       7        0.0%
SFR6                 0      0       0       7        0.0%
BITSFR7              0      0       0       8        0.0%
SFR7                 0      0       0       8        0.0%
ABS                  0      0     2B1       8        0.0%
BITBANK2            50      0       0       9        0.0%
BITSFR8              0      0       0       9        0.0%
SFR8                 0      0       0       9        0.0%
BANK2               50     4D      50      10      100.0%
BITSFR9              0      0       0      10        0.0%
SFR9                 0      0       0      10        0.0%
BITBANK3            50      0       0      11        0.0%
BITSFR10             0      0       0      11        0.0%
SFR10                0      0       0      11        0.0%
BANK3               50      1      4D      12       96.2%
BITSFR11             0      0       0      12        0.0%
SFR11                0      0       0      12        0.0%
BITBANK4            50      0       0      13        0.0%
BITSFR12             0      0       0      13        0.0%
SFR12                0      0       0      13        0.0%
BANK4               50      2      4D      14       96.2%
BITSFR13             0      0       0      14        0.0%
SFR13                0      0       0      14        0.0%
BITBANK5            50      0       0      15        0.0%
BITSFR14             0      0       0      15        0.0%
SFR14                0      0       0      15        0.0%
BANK5               50      0      3C      16       75.0%
BITSFR15             0      0       0      16        0.0%
SFR15                0      0       0      16        0.0%
BITBANK6            50      0       0      17        0.0%
BITSFR16             0      0       0      17        0.0%
SFR16                0      0       0      17        0.0%
BANK6               50      0      4A      18       92.5%
BITSFR17             0      0       0      18        0.0%
SFR17                0      0       0      18        0.0%
BITBANK7            50      0       0      19        0.0%
BITSFR18             0      0       0      19        0.0%
SFR18                0      0       0      19        0.0%
BANK7               50      0      32      20       62.5%
BITSFR19             0      0       0      20        0.0%
SFR19                0      0       0      20        0.0%
BITBANK8            50      0       0      21        0.0%
BITSFR20             0      0       0      21        0.0%
SFR20                0      0       0      21        0.0%
BANK8               50      0      32      22       62.5%
BITSFR21             0      0       0      22        0.0%
SFR21                0      0       0      22        0.0%
BITBANK9            50      0       0      23        0.0%
BITSFR22             0      0       0      23        0.0%
SFR22                0      0       0      23        0.0%
BANK9               50      0      32      24       62.5%
BITSFR23             0      0       0      24        0.0%
SFR23                0      0       0      24        0.0%
BITBANK10           50      0       0      25        0.0%
BITSFR24             0      0       0      25        0.0%
SFR24                0      0       0      25        0.0%
BANK10              50      0       0      26        0.0%
BITSFR25             0      0       0      26        0.0%
SFR25                0      0       0      26        0.0%
BITBANK11           50      0       0      27        0.0%
BITSFR26             0      0       0      27        0.0%
SFR26                0      0       0      27        0.0%
BANK11              50      0       0      28        0.0%
BITSFR27             0      0       0      28        0.0%
SFR27                0      0       0      28        0.0%
BITBANK12           50      0       0      29        0.0%
BITSFR28             0      0       0      29        0.0%
SFR28                0      0       0      29        0.0%
BANK12              50      0       0      30        0.0%
BITSFR29             0      0       0      30        0.0%
SFR29                0      0       0      30        0.0%
BITBANK13           50      0       0      31        0.0%
BITSFR30             0      0       0      31        0.0%
SFR30                0      0       0      31        0.0%
BANK13              50      0       0      32        0.0%
BITSFR31             0      0       0      32        0.0%
SFR31                0      0       0      32        0.0%
BITBANK14           50      0       0      33        0.0%
BITSFR32             0      0       0      33        0.0%
SFR32                0      0       0      33        0.0%
BANK14              50      0       0      34        0.0%
BITSFR33             0      0       0      34        0.0%
SFR33                0      0       0      34        0.0%
BITBANK15           50      0       0      35        0.0%
BITSFR34             0      0       0      35        0.0%
SFR34                0      0       0      35        0.0%
BANK15              50      0       0      36        0.0%
BITSFR35             0      0       0      36        0.0%
SFR35                0      0       0      36        0.0%
BITBANK16           50      0       0      37        0.0%
BITSFR36             0      0       0      37        0.0%
SFR36                0      0       0      37        0.0%
BANK16              50      0       0      38        0.0%
BITSFR37             0      0       0      38        0.0%
SFR37                0      0       0      38        0.0%
BITBANK17           50      0       0      39        0.0%
BITSFR38             0      0       0      39        0.0%
SFR38                0      0       0      39        0.0%
BANK17              50      0       0      40        0.0%
BITSFR39             0      0       0      40        0.0%
SFR39                0      0       0      40        0.0%
BITBANK18           50      0       0      41        0.0%
BITSFR40             0      0       0      41        0.0%
SFR40                0      0       0      41        0.0%
BANK18              50      0       0      42        0.0%
BITSFR41             0      0       0      42        0.0%
SFR41                0      0       0      42        0.0%
BITBANK19           50      0       0      43        0.0%
BITSFR42             0      0       0      43        0.0%
SFR42                0      0       0      43        0.0%
BANK19              50      0       0      44        0.0%
BITSFR43             0      0       0      44        0.0%
SFR43                0      0       0      44        0.0%
BITBANK20           50      0       0      45        0.0%
BITSFR44             0      0       0      45        0.0%
SFR44                0      0       0      45        0.0%
BANK20              50      0       0      46        0.0%
BITSFR45             0      0       0      46        0.0%
SFR45                0      0       0      46        0.0%
BITBANK21           50      0       0      47        0.0%
BITSFR46             0      0       0      47        0.0%
SFR46                0      0       0      47        0.0%
BANK21              50      0       0      48        0.0%
BITSFR47             0      0       0      48        0.0%
SFR47                0      0       0      48        0.0%
BITBANK22           50      0       0      49        0.0%
BITSFR48             0      0       0      49        0.0%
SFR48                0      0       0      49        0.0%
BANK22              48      0       0      50        0.0%
BITSFR49             0      0       0      50        0.0%
SFR49                0      0       0      50        0.0%
BITBANK23           50      0       0      51        0.0%
BITSFR50             0      0       0      51        0.0%
SFR50                0      0       0      51        0.0%
BITSFR51             0      0       0      52        0.0%
SFR51                0      0       0      52        0.0%
BANK23               0      0       0      52        0.0%
BITBANK24           50      0       0      53        0.0%
BITSFR52             0      0       0      53        0.0%
SFR52                0      0       0      53        0.0%
BITSFR53             0      0       0      54        0.0%
SFR53                0      0       0      54        0.0%
BANK24               0      0       0      54        0.0%
BITBANK25           20      0       0      55        0.0%
BITSFR54             0      0       0      55        0.0%
SFR54                0      0       0      55        0.0%
BITSFR55             0      0       0      56        0.0%
SFR55                0      0       0      56        0.0%
BANK25               0      0       0      56        0.0%
BITSFR56             0      0       0      57        0.0%
SFR56                0      0       0      57        0.0%
DATA                 0      0     2B1      57        0.0%
BITSFR57             0      0       0      58        0.0%
SFR57                0      0       0      58        0.0%
BITSFR58             0      0       0      59        0.0%
SFR58                0      0       0      59        0.0%
BITSFR59             0      0       0      60        0.0%
SFR59                0      0       0      60        0.0%
BITSFR60             0      0       0      61        0.0%
SFR60                0      0       0      61        0.0%
BITSFR61             0      0       0      62        0.0%
SFR61                0      0       0      62        0.0%
BITSFR62             0      0       0      63        0.0%
SFR62                0      0       0      63        0.0%
BITSFR63             0      0       0      64        0.0%
SFR63                0      0       0      64        0.0%


Microchip Technology PIC Macro Assembler V2.40 build 20220703182018 
Symbol Table                                                                                   Thu Jun 15 23:13:58 2023

                           getOutputLevel@i 0024                            getOutputLevel@lb 0020  
                          getOutputLevel@ub 0022                                         l104 097B  
                                       l123 07FE                                         l220 1692  
                                       l205 1734                                         l126 0812  
                                       l129 081A                                         l171 16F3  
                                       l174 169A                                         l351 17D4  
                                       l168 1703                                         l345 1782  
                                       l426 0DD2                                         l354 0FFF  
                                       l602 09C8                                         l419 052F  
                                       l532 0C0D                                         l453 0E6C  
                                       l526 07F5                                         l518 0780  
                                       l550 0CA1                                         l480 0F13  
                                       l608 0880                                         l704 0541  
                                       l633 0931                                         l617 08B4  
                                       l570 0CA4                                         l722 0648  
                                       l378 02C3                                         l643 17AB  
                                       l564 0A1B                                         l654 17FF  
                                       l662 0656                                         l680 074C  
                                       l738 0C0A                                         l588 0D38  
                                       l790 0AEB                                         l783 0841  
                                       l784 0831                                         l696 0B76  
                                       l786 0847                                         l779 168C  
                                       l796 0A77                                         l878 087D  
                           _timer1ReloadVal 01EA                                         wreg 0009  
                  __end_of_relay_to_off_msg 074D                                        l5000 17C6  
                                      l5010 0865                                        l5002 0848  
                                      l5020 080C                                        l5100 0FF0  
                                      l5012 0874                                        l5004 0851  
                                      l5022 0810                                        l5102 168A  
                                      l5030 16F7                                        l5110 0A99  
                                      l5006 0855                                        l5024 0816  
                                      l5016 0801                                        l5032 16FA  
                                      l5120 0AE9                                        l5112 0AA9  
                                      l5104 0A78                                        l5008 085E  
                                      l5040 175C                                        l6000 01FC  
                                      l5018 080B                                        l5034 16FD  
                                      l5210 0D53                                        l5202 0D47  
                                      l5114 0AC0                                        l5106 0A94  
                                      l5050 0F30                                        l5042 1779  
                                      l6010 022D                                        l6002 01FE  
                                      l5036 1700                                        l5028 16F4  
                                      l5140 0837                                        l5124 081C  
                                      l5220 0D6A                                        l5212 0D5D  
                                      l5204 0D51                                        l5116 0AC3  
                                      l5060 0F5A                                        l5052 0F3C  
                                      l5044 177A                                        l6100 03DD  
                                      l6020 0263                                        l6012 0245  
                                      l6004 0207                                        l5142 083B  
                                      l5134 0823                                        l5126 081E  
                                      l5310 0DED                                        l5302 0DE1  
                                      l5118 0ADF                                        l5150 0757  
                                      l5070 0F7A                                        l5062 0F5C  
                                      l5054 0F3E                                        l5038 175B  
                                      l6102 03E3                                        l6110 0413  
                                      l6030 028C                                        l6022 0274  
                                      l6014 0251                                        l6006 021B  
                                      l5144 0843                                        l5136 082E  
                                      l5128 0822                                        l5320 0E04  
                                      l5312 0DF8                                        l5304 0DEB  
                                      l5160 077C                                        l5152 0760  
                                      l5080 0FA5                                        l5072 0F87  
                                      l5064 0F69                                        l5056 0F4B  
                                      l5048 0F14                                        l6200 0521  
                                      l6120 0433                                        l6112 0418  
                                      l6104 03EC                                        l6032 0295  
                                      l6024 027A                                        l6040 02B6  
                                      l6016 0257                                        l6008 0222  
                                      l5138 0833                                        l5250 0D91  
                                      l5242 0D85                                        l5234 0D78  
                                      l5226 0D6C                                        l5218 0D5F  
                                      l5410 0E8B                                        l5402 0E7D  
                                      l5170 0796                                        l5162 078A  
                                      l5154 0766                                        l5146 074D  
                                      l5090 0FC5                                        l5082 0FA7  
                                      l5074 0F89                                        l5066 0F6B  
                                      l5058 0F4D                                        l6202 0527  
                                      l6130 0453                                        l6122 0439  
                                      l6114 041F                                        l6106 03F6  
                                      l6050 0321                                        l6042 02CF  
                                      l6034 0297                                        l6026 027F  
                                      l6018 025D                                        l5260 0DA8  
                                      l5252 0D9B                                        l5244 0D8F  
                                      l5236 0D83                                        l5228 0D76  
                                      l5420 0EA2                                        l5412 0E95  
                                      l5404 0E88                                        l5180 07CE  
                                      l5172 07A9                                        l5164 0794  
                                      l5156 076A                                        l5148 074D  
                                      l5092 0FD2                                        l5084 0FB4  
                                      l5076 0F96                                        l5068 0F78  
                                      l5500 0C18                                        l6204 0528  
                                      l6140 0470                                        l6132 0459  
                                      l6124 043F                                        l6116 0427  
                                      l6108 03FF                                        l6060 0343  
                                      l6052 0326                                        l6044 02ED  
                                      l6036 0299                                        l6028 0283  
                                      l5350 0E2B                                        l5342 0E1F  
                                      l5334 0E13                                        l5326 0E06  
                                      l5318 0DFA                                        l5190 07F4  
                                      l5182 07D7                                        l5158 0773  
                                      l5094 0FD4                                        l5086 0FB6  
                                      l5078 0F98                                        l5510 0C33  
                                      l5502 0C1D                                        l6206 052E  
                                      l6150 048B                                        l6142 0472  
                                      l6134 045F                                        l6126 0445  
                                      l6118 042D                                        l6070 0353  
                                      l6062 0348                                        l6054 032A  
                                      l6046 02FE                                        l6038 02AD  
                                      l5360 0E42                                        l5352 0E36  
                                      l5344 0E29                                        l5336 0E1D  
                                      l5328 0E11                                        l5600 08EF  
                                      l5184 07DD                                        l5176 07BD  
                                      l5096 0FE1                                        l5088 0FC3  
                                      l5520 0C4F                                        l5512 0C38  
                                      l5504 0C22                                        l6160 04A5  
                                      l6152 0496                                        l6144 0479  
                                      l6136 0465                                        l6128 044B  
                                      l6080 0389                                        l6072 035C  
                                      l6064 034A                                        l6056 0333  
                                      l6048 031B                                        l5290 0DD1  
                                      l5282 0DC4                                        l5274 0DB7  
                                      l5266 0DAA                                        l5258 0D9D  
                                      l5194 0D3A                                        l5450 0ECD  
                                      l5442 0EBF                                        l5434 0EB2  
                                      l5426 0EA5                                        l5418 0E98  
                                      l5610 08FD                                        l5602 08F0  
                                      l5186 07E3                                        l5178 07CA  
                                      l5098 0FE3                                        l5530 0C6D  
                                      l5522 0C55                                        l5514 0C3F  
                                      l5506 0C27                                        l6170 04D0  
                                      l6162 04AD                                        l6154 0498  
                                      l6138 046A                                        l6146 047F  
                                      l6090 03BF                                        l6074 035F  
                                      l6066 034F                                        l6058 0340  
                                      l6082 0390                                        l5284 0DCF  
                                      l5276 0DC2                                        l5268 0DB5  
                                      l5196 0D45                                        l5460 0EE4  
                                      l5452 0ED7                                        l5444 0ECA  
                                      l5436 0EBC                                        l5428 0EAF  
                                      l5620 0913                                        l5612 0903  
                                      l5604 08F5                                        l5700 17E3  
                                      l5188 07F0                                        l5532 0C72  
                                      l5524 0C5B                                        l5516 0C44  
                                      l5508 0C2D                                        l5540 0C85  
                                      l6180 04EC                                        l6172 04D6  
                                      l6164 04B6                                        l6148 0483  
                                      l6092 03C5                                        l6156 049A  
                                      l6084 039B                                        l6076 0361  
                                      l6068 0351                                        l4910 0939  
                                      l5390 0E6B                                        l5382 0E5E  
                                      l5374 0E51                                        l5366 0E44  
                                      l5358 0E38                                        l5294 0DD4  
                                      l5622 0914                                        l5614 0905  
                                      l5606 08F7                                        l5702 17E6  
                                      l5534 0C78                                        l5526 0C62  
                                      l5518 0C4A                                        l4902 0A58  
                                      l5550 065B                                        l6190 0507  
                                      l6182 04EF                                        l6174 04DC  
                                      l6166 04BB                                        l6158 049F  
                                      l6094 03CB                                        l6086 03B3  
                                      l6078 0375                                        l4920 0948  
                                      l4912 093B                                        l5384 0E69  
                                      l5376 0E5C                                        l5368 0E4F  
                                      l5296 0DDF                                        l5616 090A  
                                      l5608 08FC                                        l5536 0C7E  
                                      l5528 0C67                                        l4904 0A6E  
                                      l5560 068A                                        l5552 0660  
                                      l5640 09D7                                        l5720 0CB4  
                                      l5712 0CA3                                        l5800 05E7  
                                      l6192 0511                                        l6184 04F6  
                                      l6176 04E2                                        l6168 04C2  
                                      l6096 03D1                                        l6088 03B9  
                                      l4930 0964                                        l4922 094A  
                                      l4914 093D                                        l5490 0F11  
                                      l5482 0F03                                        l5474 0EF5  
                                      l5466 0EE7                                        l5458 0EDA  
                                      l5394 0E6E                                        l5618 090E  
                                      l5706 17E9                                        l5570 06BB  
                                      l5562 0690                                        l5554 0670  
                                      l5546 064B                                        l5650 09F8  
                                      l5642 09DE                                        l5634 09CA  
                                      l5730 0CCF                                        l5722 0CB9  
                                      l5714 0CA4                                        l5802 05EC  
                                      l6450 09BA                                        l6194 0513  
                                      l6178 04E7                                        l6186 04FC  
                                      l6098 03D7                                        l4940 0970  
                                      l4932 0966                                        l4924 094D  
                                      l4916 093F                                        l4908 0932  
                                      l5484 0F0E                                        l5476 0F00  
                                      l5468 0EF2                                        l5396 0E7A  
                                      l5628 091B                                        l5820 087F  
                                      l5900 1785                                        l6460 0730  
                                      l5580 06EC                                        l5572 06C0  
                                      l5564 0695                                        l5556 0675  
                                      l5548 0656                                        l5652 09FE  
                                      l5644 09E4                                        l5636 09CB  
                                      l5740 0CEC                                        l5732 0CD6  
                                      l5724 0CBE                                        l5716 0CA9  
                                      l6452 062C                                        l5804 05FC  
                                      l5812 0624                                        l6188 04FF  
                                      l6196 0515                                        l4950 07F6  
                                      l4942 0972                                        l4934 0968  
                                      l4926 0960                                        l4918 0946  
                                      l6470 0923                                        l5830 088F  
                                      l5822 0880                                        l5902 1789  
                                      l5910 1795                                        l6462 0C8D  
                                      l5494 0C0C                                        l5582 06FC  
                                      l5574 06D0                                        l5566 06A6  
                                      l5558 067A                                        l5646 09EB  
                                      l5638 09D1                                        l5670 0B15  
                                      l5662 0AEE                                        l6454 0D24  
                                      l5750 0D09                                        l5742 0CF2  
                                      l5734 0CDB                                        l5726 0CC4  
                                      l5718 0CAF                                        l5806 0602  
                                      l5814 0640                                        l6198 051B  
                                      l4952 07F9                                        l4944 0974  
                                      l4936 096A                                        l4928 0962  
                                      l4960 1693                                        l5832 0895  
                                      l5824 0885                                        l6464 179D  
                                      l5904 178D                                        l5496 0C0D  
                                      l5584 0701                                        l5576 06D6  
                                      l5568 06AB                                        l5592 0728  
                                      l5648 09F1                                        l5656 0A05  
                                      l6456 0B5F                                        l5680 0B47  
                                      l5672 0B1B                                        l5664 0AF9  
                                      l5752 0D0F                                        l5744 0CF9  
                                      l5736 0CE1                                        l5728 0CCA  
                                      l5808 0613                                        l6448 0BF3  
                                      l5920 00C2                                        l4954 07FA  
                                      l4970 16EE                                        l4962 16E6  
                                      l4946 0976                                        l4938 096D  
                                      l4890 168D                                        l6466 08A0  
                                      l5826 0888                                        l5906 1791  
                                      l5498 0C12                                        l5586 0711  
                                      l5578 06E7                                        l5594 0744  
                                      l6458 0A0D                                        l5674 0B2B  
                                      l5666 0AFF                                        l5754 0D15  
                                      l5746 0CFE                                        l5738 0CE6  
                                      l5770 054B                                        l5850 0991  
                                      l5842 097D                                        l5930 00E1  
                                      l5922 00C9                                        l4956 07FB  
                                      l4972 16EF                                        l4964 16E9  
                                      l4948 0978                                        l4980 171A  
                                      l6468 17F1                                        l5692 17D6  
                                      l5828 088D                                        l5836 0898  
                                      l4892 0A1C                                        l5588 0717  
                                      l5676 0B31                                        l5668 0B05  
                                      l5684 0B57                                        l5748 0D04  
                                      l5780 057B                                        l5772 055B  
                                      l5764 0536                                        l5852 0998  
                                      l5844 097E                                        l5940 00ED  
                                      l5932 00E4                                        l5924 00D4  
                                      l5916 00B1                                        l4958 07FC  
                                      l4974 16F2                                        l4966 16EA  
                                      l4990 172A                                        l4982 171C  
                                      l5694 17D7                                        l4894 0A2B  
                                      l5678 0B41                                        l5686 0B6D  
                                      l5758 0D1C                                        l5790 05AB  
                                      l5782 0580                                        l5774 0560  
                                      l5766 0541                                        l5854 099E  
                                      l5846 0984                                        l5862 09B2  
                                      l5870 0B84                                        l5950 010A  
                                      l5942 00F8                                        l5934 00E7  
                                      l5926 00DE                                        l5918 00B7  
                                      l4968 16ED                                        l4992 1731  
                                      l4984 171E                                        l4976 1715  
                                      l5696 17DD                                        l4896 0A42  
                                      l5792 05BB                                        l5784 0591  
                                      l5776 0565                                        l5768 0546  
                                      l5856 09A5                                        l5848 098B  
                                      l5880 0BB6                                        l5872 0B8A  
                                      l5960 011B                                        l5952 010C  
                                      l5944 0102                                        l5936 00E9  
                                      l5928 00E0                                        l4986 1720  
                                      l4978 1718                                        l5698 17E0  
                                      l4898 0A44                                        l4994 17AE  
                                      l5794 05C1                                        l5786 0596  
                                      l5778 0575                                        l5858 09AB  
                                      l5882 0BC6                                        l5874 0B9A  
                                      l5890 0BEB                                        l5970 0136  
                                      l5962 011E                                        l5954 0110  
                                      l5946 0105                                        l5938 00EB  
                                      l4988 1728                                        l4996 17B1  
                                      l5796 05D2                                        l5788 05A6  
                                      l5884 0BCC                                        l5876 0BA0  
                                      l5892 0C01                                        l5868 0B79  
                                      l5980 018F                                        l5972 013B  
                                      l5964 0125                                        l5956 0114  
                                      l5948 0108                                        l4998 17C1  
                                      l5798 05D7                                        l5886 0BDC  
                                      l5878 0BB0                                        l5990 01E6  
                                      l5982 01A3                                        l5974 0141  
                                      l5966 0126                                        l5958 0118  
                                      l5992 01E9                                        l5984 01AB  
                                      l5976 0167                                        l5968 0127  
                                      l5898 1784                                        l5994 01EE  
                                      l5986 01C9                                        l5978 0177  
                                      l5996 01F0                                        l5988 01DA  
                                      l5998 01FA                                        _LATA 0018  
                                      _LATB 0019                                        _LATC 001A  
                                      _LATD 001B                                        _LATE 001C  
                                      _LATF 001D                                        u5000 0E88  
                                      u5001 0E87                                        u5010 0E95  
                                      u5011 0E94                                        u5100 0F0E  
                                      u5020 0EA2                                        u5101 0F0D  
                                      u5021 0EA1                                        u5030 0EAF  
                                      u5110 0C12                                        u5031 0EAE  
                                      u5111 0C11                                        u5040 0EBC  
                                      u5200 0C67                                        u5120 0C18  
                                      u5041 0EBB                                        u5201 0C66  
                                      u5121 0C17                                 main@counter 016A  
                                      u5050 0ECA                                        u5210 0C72  
                                      u5130 0C22                                        u5051 0EC9  
                                      u5211 0C71                                        u5131 0C21  
                                      u5060 0ED7                                        u5220 0C7E  
                                      u5140 0C27                                        u5300 06AB  
                                      u6020 01C9                                        u5061 0ED6  
                                      u5221 0C7D                                        u5141 0C26  
                                      u5301 06AA                                        u6021 01C8  
                                      u6005 0194                                        u5070 0EE4  
                                      u5150 0C33                                        u5310 06C0  
                                      u5230 0652                                        u6030 01DA  
                                      u5071 0EE3                                        u5151 0C32  
                                      u5311 06BF                                        u6031 01D9  
                                      u6015 01AF                                        u4600 0816  
                                      u5080 0EF2                                        u5400 0913  
                                      u5160 0C38                                        u5320 06D6  
                                      u5240 065B                                        u6200 039B  
                                      u6120 02ED                                        u4601 0815  
                                      u5081 0EF1                                        u5401 0912  
                                      u5161 0C37                                        u5321 06D5  
                                      u5241 065A                                        u6201 039A  
                                      u6121 02EC                                        u6105 029E  
                                      u5090 0F00                                        u4610 0A94  
                                      u5410 091A                                        u5170 0C44  
                                      u4530 0A42                                        u5330 06EC  
                                      u5250 0660                                        u6130 02FE  
                                      u6050 022D                                        u5091 0EFF  
                                      u4611 0A93                                        u5411 0919  
                                      u5171 0C43                                        u4531 0A41  
                                      u5331 06EB                                        u5251 065F  
                                      u6131 02FD                                        u6115 02D3  
                                      u6051 022C                                        u4620 0AC0  
                                      u4700 07A9                                        u5180 0C4F  
                                      u4540 0A57                                        u5340 0701  
                                      u5260 0675                                        u5420 09D1  
                                      u5500 0B1B                                        u6220 03B9  
                                      _PMD0 0796                                        u4621 0ABF  
                                      u4701 07A8                                        u5181 0C4E  
                                      u4541 0A56                                        u5341 0700  
                                      u5261 0674                                        u5421 09D0  
                                      u5501 0B1A                                        u6221 03B8  
                                      u6045 020C                                        _PMD1 0797  
                                      u4710 07BC                                        u5190 0C5B  
                                      u4550 17D4                                        u5350 0717  
                                      u5270 067A                                        u5430 09D7  
                                      u5510 0B31                                        u6310 041F  
                                      u6230 03BF                                        u6150 031B  
                                      u6070 0274                                        _PMD2 0798  
                                      u4615 0A90                                        u4711 07BB  
                                      u5191 0C5A                                        u4535 0A3E  
                                      u4551 17D3                                        u5351 0716  
                                      u5271 0679                                        u5431 09D6  
                                      u5511 0B30                                        u6311 041E  
                                      u6231 03BE                                        u6215 039F  
                                      u6151 031A                                        u6071 0273  
                                      _PMD3 0799                                        u4640 082E  
                                      u4800 0D83                                        u5360 08F5  
                                      u4720 07CA                                        u4560 0855  
                                      u5280 0690                                        u5440 09E4  
                                      u5520 0B47                                        u5600 0CDB  
                                      u6400 0465                                        u6320 042D  
                                      u6240 03C5                                        u6160 0321  
                                      u6080 027A                                        _PMD4 079A  
                                      i1l17 0016                                        u4641 082D  
                                      u4801 0D82                                        u4625 0ABC  
                                      u5361 08F4                                        u4721 07C9  
                                      u4705 07A5                                        u4561 0854  
                                      u4545 0A53                                        u5281 068F  
                                      u5441 09E3                                        u5521 0B46  
                                      u5601 0CDA                                        u6401 0464  
                                      u6321 042C                                        u6305 0404  
                                      u6241 03C4                                        u6161 0320  
                                      u6145 0302                                        u6081 0279  
                                      u6065 0231                                        _PMD5 079B  
                                      u4650 0841                                        u4634 0828  
                                      u4810 0D8F                                        u5370 08FC  
                                      u5530 17DD                                        u4730 07DD  
                                      u5290 0695                                        u5450 09F1  
                                      u5610 0CE6                                        u6410 046A  
                                      u6330 0433                                        u6250 03CB  
                                      u6170 0326                                        u6090 027F  
                                      u4651 0840                                        u4635 0827  
                                      u4811 0D8E                                        u5371 08FB  
                                      u5531 17DC                                        u4731 07DC  
                                      u4715 07B8                                        u4555 17D0  
                                      u5291 0694                                        u5451 09F0  
                                      u5611 0CE5                                        u6411 0469  
                                      u6331 0432                                        u6251 03CA  
                                      u6171 0325                                        u6091 027E  
                                      u4820 0D9B                                        u4900 0E04  
                                      u5380 0903                                        u4740 07E3  
                                      u4660 0766                                        u5460 09FE  
                                      u5620 0CF2                                        u5540 0CA9  
                                      u5700 0565                                        u6500 04E7  
                                      u6420 0470                                        u6340 0439  
                                      u6260 03D1                                        u4821 0D9A  
                                      u4901 0E03                                        u5381 0902  
                                      u4741 07E2                                        u4661 0765  
                                      u5461 09FD                                        u5621 0CF1  
                                      u5541 0CA8                                        u5701 0564  
                                      u6501 04E6                                        u6421 046F  
                                      u6341 0438                                        u6261 03D0  
                                      u4830 0DA8                                        u4750 0D45  
                                      u4910 0E11                                        u5390 090A  
                                      u4670 077C                                        u4590 0874  
                                      u5470 0AF5                                        u5630 0CFE  
                                      u5550 0CAF                                        u5710 057B  
                                      u6510 04EC                                        u6430 048B  
                                      u6350 043F                                        u6270 03D7  
                                      u4831 0DA7                                        u4751 0D44  
                                      u4911 0E10                                        u5391 0909  
                                      u4671 077B                                        u4591 0873  
                                      u4575 085F                                        u5631 0CFD  
                                      u5551 0CAE                                        u5711 057A  
                                      u6511 04EB                                        u6431 048A  
                                      u6351 043E                                        u6271 03D6  
                                      u4840 0DB5                                        u4760 0D51  
                                      u4920 0E1D                                        u5800 088D  
                                      u4680 078A                                        u5480 0AFF  
                                      u5640 0D09                                        u5560 0CB9  
                                      u5720 0580                                        u6520 0507  
                                      u6440 049F                                        u6360 0445  
                                      u6280 03DD                                        u4841 0DB4  
                                      u4761 0D50                                        u4921 0E1C  
                                      u5801 088C                                        u4681 0789  
                                      u4585 0866                                        u5481 0AFE  
                                      u5641 0D08                                        u5561 0CB8  
                                      u5721 057F                                        u6521 0506  
                                      u6441 049E                                        u6361 0444  
                                      u6281 03DC                                        u6185 0366  
                                      u4850 0DC2                                        u4770 0D5D  
                                      u4930 0E29                                        u5810 0895  
                                      u4690 0794                                        u5490 0B05  
                                      u5650 0D15                                        u5570 0CBE  
                                      u5730 0596                                        u6530 0527  
                                      u6450 04A5                                        u6370 044B  
                                      u6290 03E3                                        u4851 0DC1  
                                      u4771 0D5C                                        u4931 0E28  
                                      u5811 0894                                        u4691 0793  
                                      u5491 0B04                                        u5651 0D14  
                                      u5571 0CBD                                        u5731 0595  
                                      u6531 0526                                        u6451 04A4  
                                      u6371 044A                                        u6291 03E2  
                                      u6195 037A                                        u4860 0DCF  
                                      u4780 0D6A                                        u4940 0E36  
                                      u5580 0CCA                                        u5740 05AB  
                                      u5660 053D                                        u5820 0984  
                                      u5900 0BCC                                        u6540 052E  
                                      u6460 04C2                                        u6380 0459  
                                      u4861 0DCE                                        u4781 0D69  
                                      u4941 0E35                                        u4685 0786  
                                      u5581 0CC9                                        u5741 05AA  
                                      u5821 0983                                        u5901 0BCB  
                                      u6541 052D                                        u6461 04C1  
                                      u6381 0458                                        u4790 0D76  
                                      u4950 0E42                                        u4870 0DDF  
                                      u5590 0CCF                                        u5750 05C1  
                                      u5670 0546                                        u5830 0991  
                                      u6470 04D6                                        u6390 045F  
                                      u5910 00BF                                        u4791 0D75  
                                      u4951 0E41                                        u4871 0DDE  
                                      u4695 0790                                        u6607 0F80  
                                      u5591 0CCE                                        u5751 05C0  
                                      u5671 0545                                        u5831 0990  
                                      u6471 04D5                                        u6391 045E  
                                      u4960 0E4F                                        u4880 0DEB  
                                      u5760 05D7                                        u5680 054B  
                                      u5840 099E                                        u6480 04DC  
                                      u5920 00D1                                        u4961 0E4E  
                                      u4881 0DEA                                        u6617 0F8F  
                                      u5761 05D6                                        u5681 054A  
                                      u5841 099D                                        u6481 04DB  
                                      u4970 0E5C                                        u4890 0DF8  
                                      u5770 05EC                                        u5690 0560  
                                      u5850 09AB                                        u6490 04E2  
                                      u5930 00DB                                        u6707 0844  
                                      u4971 0E5B                                        u4891 0DF7  
                                      u6627 0F9E                                        u5771 05EB  
                                      u5691 055F                                        u5851 09AA  
                                      u6491 04E1                                        u4980 0E69  
                                      u5780 0602                                        u5860 0B80  
                                      u5940 00F5                                        u6717 080D  
                                      u4981 0E68                                        u6637 0FAD  
                                      u6557 0F35                                        u5781 0601  
                                      u4990 0E7A                                        u5790 0885  
                                      u5870 0B8A                                        u5950 00FF  
                                      u4991 0E79                                        u5791 0884  
                                      u6647 0FBC                                        u6567 0F44  
                                      u5871 0B89                                        u5880 0BA0  
                                      u5960 0136                                        u6657 0FCB  
                                      u6577 0F53                                        u5881 0B9F  
                                      u5961 0135                                        u5890 0BB6  
                                      u5970 0141                                        u6667 0FDA  
                                      u6587 0F62                                        u5891 0BB5  
                                      u5971 0140                                        u5980 0177  
                                      u6677 0FE9                                        u6597 0F71  
                                      u5981 0176                                        u6687 081F  
                                      u6697 0834                                        u5995 017F  
                                      _WPUA 1F39                                        _WPUB 1F44  
                                      _WPUC 1F4F                                        _WPUD 1F5A  
                                      _WPUE 1F65                                        _WPUF 1E51  
                               main@reading 015F                                 main@phaseIs 016C  
                              _run_mainloop 01E7                                        _main 00B1  
                                      _tick 01D0                                        fsr0h 0005  
                                      fsr1h 0007                                        indf0 0000  
                                      fsr0l 0004                                        indf1 0001  
                                      fsr1l 0006                                        btemp 007E  
                                      start 0018                          flag_on_step1@phase 0074  
                ??_TMR1_SetInterruptHandler 0074            check_sequence_L1@channel_reading 0072  
                             ?_InitSoftUART 0070               __end_of_OSCILLATOR_Initialize 16F4  
                                     _ADACT 009F                                       ?_main 0070  
                              main@indexADC 026B                                       _T1CLK 0211  
                                     _T1CON 020E                                       i1l210 1714  
                                     i1l213 16E5                                       i1l223 07FF  
                                     i1l217 16D7                                       i1l342 16A6  
                                     _OSCEN 0891                                       _TMR1H 020D  
                                     _TMR1L 020C                                       _TRISA 0012  
                                     _TRISB 0013                                       _TRISC 0014  
                                     _TRISD 0015                                       _TRISE 0016  
                                     _TRISF 0017                         ___lmul@multiplicand 0076  
                              main@phaseWas 01EC                             __end_of_flag_on 08B5  
                          __end_of_TMR1_ISR 16E6                            ??_getOutputLevel 0075  
                   __end_of_TMR1_Initialize 1735                                       pclath 000A  
                              main@previous 00EA                                       status 0003  
                                     wtemp0 007E                                main@outputIs 0167  
                           _TMR1_WriteTimer 1704                    ??_relay_to_off_step1_msg 0026  
                         main@phaseExpected 0168                             __initialization 001A  
                              __end_of_main 0534                              ??_InitSoftUART 0072  
               ?_INTERRUPT_InterruptManager 0070            check_sequence_L2@channel_reading 0072  
                                    ??_main 005C                             _out_seq_pointer 01C6  
                         ??_relay_to_on_msg 0027                __end_ofgetOutputLevel@margin 1804  
                              ?_relay_to_on 0072                         getOutputLevel@index 0074  
                                    _ADCON0 009D                                      _ADCON1 009E  
                                    _ADRESH 009C                                      _ADRESL 009B  
                                    _ANSELA 1F38                                      _ANSELB 1F43  
                                    _ANSELC 1F4E                                      _ANSELD 1F59  
                                    _ANSELE 1F64                                      _ANSELF 1E50  
                                    _T1GATE 0210                                      _T1GCON 020F  
                             main@indexLoad 026C                     TMR1_WriteTimer@timerVal 0070  
                                    _ODCONA 1F3A                                      _ODCONB 1F45  
                                    _ODCONC 1F50                                      i1l3132 169B  
                                    _ODCOND 1F5B                                      _ODCONE 1F66  
                                    _ODCONF 1E52                                      i1l3240 170A  
                                    i1l3250 16CB                                      i1l3242 170C  
                                    i1l3252 16D2                                      i1l3244 170E  
                                    i1l3236 1704                                      i1l3238 1709  
                                    i1l3246 1710                                      i1l3248 1712  
                                    i1l3276 16D8                                      i1l4180 0006  
                                    i1l3278 16DA                                      i1l4182 000A  
                                    i1l4184 000F                                      i1l4186 0013  
                                    u230_20 16D2                                      u230_21 16D1  
                                    _INLVLA 1F3C                                      _INLVLB 1F47  
                                    _INLVLC 1F52                                      _INLVLD 1F5D  
                                    _INLVLE 1F68                                      _INLVLF 1E54  
                                    u229_20 1709                                      u229_21 1708  
                                    u367_20 000A                                      u367_21 0009  
                                    u368_20 000F                                      u368_21 000E  
                                    u369_20 0013                                      u369_21 0012  
                                    _OSCFRQ 0893                            __end_of_flag_off 0932  
      __end_of_TMR1_DefaultInterruptHandler 0800                _TMR1_DefaultInterruptHandler 07FF  
                                    ___lmul 0848                     ??_relay_to_on_step1_msg 0026  
                        _relay_to_off_step1 09C9                                      _millis 175B  
                                    _temp_L 01DA                                      _result 0062  
                                 ??_flag_on 0073                                      main@ch 0061  
                     main@relayOfInProgress 0165                              _PMD_Initialize 1693  
                       ?_relay_to_off_step1 0072            check_sequence_L3@channel_reading 0072  
                  ADC_GetConversion@channel 0075    TMR1_SetInterruptHandler@InterruptHandler 0072  
                   __end_of_TMR1_WriteTimer 1715                               main@outputWas 0169  
                     __end_of_TMR1_CallBack 16D8                            ?_TMR1_Initialize 0070  
                         _SYSTEM_Initialize 16F4                       __end_of_circ_bbuf_pop 0AEC  
                   __end_of__initialization 00AD                          ?_SYSTEM_Initialize 0070  
                      ??_relay_to_off_step1 0073                       __end_of_UART_Transmit 0848  
                            __pcstackCOMMON 0070                                __pidataBANK3 1735  
                              __pidataBANK4 08B5                                __pidataBANK5 16BF  
                       ??_SYSTEM_Initialize 0074                                   ?_TMR1_ISR 0070  
             ?_TMR1_DefaultInterruptHandler 0070                      __end_of_PMD_Initialize 169B  
                         ?_relay_to_off_msg 0026                   __end_of_SYSTEM_Initialize 1704  
                      __end_of_InitSoftUART 168D                                  __pbssBANK0 0062  
                                __pbssBANK2 016D                                  __pbssBANK3 01C6  
                                __pbssBANK4 0259                                  __pbssBANK5 02A0  
                                __pbssBANK6 0320                                  __pbssBANK7 03A0  
                                __pbssBANK8 0420                                  __pbssBANK9 04A0  
                        ??_relay_to_off_msg 0027                               ?_relay_to_off 0072  
                     __end_of_flag_on_step1 17AC                                  __pmaintext 00B1  
                      getOutputLevel@margin 1802                               _level_pattern 01A0  
                      relay_to_on_msg@F8766 0420                                     ?___lmul 0072  
                                ??_TMR1_ISR 0072                                  __pintentry 0004  
                         circ_bbuf_pop@data 0074                              ___lmul@product 0020  
                                   ?_millis 0024                           circ_bbuf_pop@next 0020  
                           ?_PMD_Initialize 0070                       main@relayOnInProgress 0166  
                      relay_to_on_msg@phase 0029                      _relay_to_off_step1_msg 0AEC  
                                   _OSCCON1 088D                                     _OSCCON3 088F  
                                   _OSCSTAT 0890                                     _OSCTUNE 0892  
                                   _SLRCONA 1F3B                                     _SLRCONB 1F46  
                                   _SLRCONC 1F51                                     _SLRCOND 1F5C  
                                   _SLRCONE 1F67                                     _SLRCONF 1E53  
                                 ?_flag_off 0072                         main@lastDebounceAdc 0126  
                          ?_TMR1_WriteTimer 0070                           _check_sequence_L1 0D39  
                         _check_sequence_L2 0DD3                           _check_sequence_L3 0E6D  
                          main@inc_for_2sec 0120                              ??_relay_to_off 0074  
                          main@inc_for_5sec 0150                        _ADC_InterruptHandler 01E3  
                        ?_check_sequence_L1 0070                          ?_check_sequence_L2 0070  
                        ?_check_sequence_L3 0070                             _relay_to_on_msg 0534  
                            main@relayIsOff 0144                    getOutputLevel@inputLevel 0072  
                                _initialize 0F14                                     _flag_RC 016F  
                                   _flag_UC 016D                                     _flag_VC 01E6  
                                   _flag_WC 016E                         ??_check_sequence_L1 0072  
                       ??_check_sequence_L2 0072                         ??_check_sequence_L3 0072  
                            circ_bbuf_pop@c 0072                                     _flag_on 087E  
                                   __ptext1 0B77                                     __ptext2 097C  
                                   __ptext3 0534                                     __ptext4 0CA2  
                                   __ptext5 0AEC                                     __ptext6 09C9  
                                   __ptext7 0649                                     __ptext8 17AC  
                                   __ptext9 0A1C              ??_TMR1_DefaultInterruptHandler 0070  
                                 _T1CONbits 020E                       _OSCILLATOR_Initialize 16E6  
                  ??_PIN_MANAGER_Initialize 0072                   ?_TMR1_SetInterruptHandler 0072  
                                ??_flag_off 0073                              _circ_bbuf_push 0A1C  
                                   clrloop0 16A8                        end_of_initialization 00AD  
                     relay_to_off_msg@F8757 0320                                     init_ram 16B3  
                 __end_of_check_sequence_L1 0DD3                   __end_of_check_sequence_L2 0E6D  
                 __end_of_check_sequence_L3 0F14                                     initloop 16B4  
                         __end_of_timer2ISR 16A7                              UART_Transmit@i 0074  
                     relay_to_off_msg@phase 0029                            _test_seq_pointer 01E0  
                             relay_to_off@L 0072               __end_of_relay_to_on_step1_msg 0C0B  
                                 _PORTEbits 0010                       main@lastDebounceLevel 0153  
                    __end_of_circ_bbuf_push 0A78                                  _out_seq_L1 01B9  
                                _out_seq_L2 01AC                                  _out_seq_L3 022C  
          getOutputLevel@currentOutputLevel 0026                           relay_to_off@phase 0076  
                   __end_of_relay_to_on_msg 0649                                  main@buffer 00B8  
                         relay_to_off_msg@L 0026                                  _volt_level 0220  
                              _InitSoftUART 168A                              __end_of___lmul 087E  
                               ?_initialize 0070                              _ADC_Initialize 07F6  
                    ?_OSCILLATOR_Initialize 0070                              __end_of_millis 1783  
                    UART_Transmit@DataValue 0073                      relay_to_on_step1@phase 0075  
                       start_initialization 001A                        __end_of_relay_to_off 0CA2  
                __end_of_push_string_buffer 17D5                             ?_circ_bbuf_push 0072  
                            _flag_off_step1 17D5                            ??_PMD_Initialize 0072  
                                  ??___lmul 007A                      __end_of_ADC_Initialize 07FF  
                               __pdataBANK3 01A0                                 __pdataBANK4 0220  
                               __pdataBANK5 02D0                           _relay_to_on_step1 097C  
                                  ??_millis 007A                     ?_relay_to_off_step1_msg 0070  
               relay_to_off_step1_msg@F8761 03A0                          ?_relay_to_on_step1 0072  
                               __pbssBIGRAM 2728                                 __pbssCOMMON 007A  
                                 ___latbits 0003                               __pcstackBANK0 0020  
                             __pcstackBANK1 00A0                               __pcstackBANK2 0120  
                             __pcstackBANK3 01EC                               __pcstackBANK4 026B  
                       ??_relay_to_on_step1 0073                 relay_to_off_step1_msg@phase 005A  
                    __end_of_flag_off_step1 1800                            ?_relay_to_on_msg 0026  
                                 __pnvBANK3 01E8                                   _flagL1OnR 01E5  
                    _PIN_MANAGER_Initialize 0932            __end_of_TMR1_SetInterruptHandler 1693  
                 __end_of_relay_to_on_step1 09C9              __end_of_relay_to_off_step1_msg 0B77  
                           ?_ADC_Initialize 0070                ??_INTERRUPT_InterruptManager 0072  
                                  ?_flag_on 0072                               ??_relay_to_on 0074  
                                 _current_L 01DD                             ?_flag_off_step1 0070  
                             _TMR1_CallBack 16CB                       relay_to_on_msg@buffer 002A  
                       push_string_buffer@i 0023                          circ_bbuf_push@data 0074  
                             _circ_bbuf_pop 0A78                                    _LATAbits 0018  
                                  _LATBbits 0019                                    _LATCbits 001A  
                                  _LATDbits 001B                          circ_bbuf_push@next 0078  
                                  _LATFbits 001D                                   clear_ram0 16A7  
                                  _PIE4bits 071A                               _UART_Transmit 081B  
                            _getOutputLevel 074D                                    _PIR4bits 0710  
                                 _timer2ISR 169B                                relay_to_on@L 0072  
                    _my_circ_buf_data_space 2728                      push_string_buffer@data 0025  
                                 main@F8701 0352                                   main@F8703 02B8  
                                 main@F8690 02A0                                   main@F8692 0265  
                                 main@F8686 02C4                                   main@F8688 01D4  
                                 flag_off@L 0072                                    _TMR1_ISR 16D8  
                                 _updated_L 01D7                           ??_TMR1_Initialize 0074  
                          relay_to_off@OnOf 0073                                  _ADCON0bits 009D  
                          relay_to_on@phase 0076                            relay_to_on_msg@L 0026  
                         ___lmul@multiplier 0072                       relay_to_on_step1@OnOf 0072  
                            ?_TMR1_CallBack 0070                         __end_of_relay_to_on 0D39  
                            ?_circ_bbuf_pop 0072                      __end_of_getOutputLevel 07F6  
                            ?_UART_Transmit 0070                                  ?_timer2ISR 0070  
                              _relay_to_off 0C0B                           _ADC_GetConversion 0800  
                          _relay_to_off_msg 0649                               _flag_on_step1 1783  
                   ??_OSCILLATOR_Initialize 0072                          ?_ADC_GetConversion 0072  
                              ??_initialize 0072                         _currentOutputLevels 0259  
                          ??_circ_bbuf_push 0075                                   millis@out 0028  
                  _TMR1_SetInterruptHandler 168D                       _relay_to_on_step1_msg 0B77  
                     _TMR1_InterruptHandler 01E8                         ??_ADC_GetConversion 0074  
                                  _flag_CL1 006E                                    _flag_CL2 007A  
                                  _flag_CL3 007B                                    __ptext10 0C0B  
                                  __ptext11 175B                                    __ptext20 0E6D  
                                  __ptext12 0848                                    __ptext21 0DD3  
                                  __ptext13 0F14                                    __ptext30 07F6  
                                  __ptext22 0D39                                    __ptext14 074D  
                                  _flag_off 08EE                                    __ptext31 168A  
                                  __ptext23 081B                                    __ptext15 1783  
                                  __ptext32 0800                                    __ptext24 16F4  
                                  __ptext16 087E                                    __ptext25 1715  
                                  __ptext17 17D5                                    __ptext34 16D8  
                                  __ptext26 168D                                    __ptext18 08EE  
                                  __ptext35 1704                                    __ptext27 1693  
                                  __ptext19 0A78                                    __ptext36 16CB  
                                  __ptext28 0932                                    __ptext37 07FF  
                                  __ptext29 16E6                                    __ptext38 169B  
                           circ_bbuf_push@c 0072                               flag_off@phase 0075  
                        __end_of_initialize 1000                          _push_string_buffer 17AC  
                           ?_getOutputLevel 0072                   __end_of_ADC_GetConversion 081B  
                            ?_flag_on_step1 0070                                    flag_on@L 0072  
                     push_string_buffer@len 0020                relay_to_off_step1_msg@buffer 0028  
                           relay_to_on@OnOf 0073                                    int$flags 007E  
                       ?_push_string_buffer 0020          __end_of_INTERRUPT_InterruptManager 0018  
                _INTERRUPT_InterruptManager 0004                           ??_TMR1_WriteTimer 0072  
                                  main@time 00A0                                  _INTCONbits 000B  
                                _FVRCONbits 090C                                 _relay_to_on 0CA2  
                           ??_TMR1_CallBack 0070                        ??_push_string_buffer 0022  
                           ??_circ_bbuf_pop 0075                                    intlevel1 0000  
                __end_of_relay_to_off_step1 0A1C                             ??_UART_Transmit 0072  
                   ?_PIN_MANAGER_Initialize 0070                                flag_on@phase 0075  
                               _my_circ_buf 0251                            ??_ADC_Initialize 0072  
                    relay_to_off_msg@buffer 002A                                 ??_timer2ISR 0070  
                             __pstringtext1 1800                               __pstringtext2 1802  
                    ?_relay_to_on_step1_msg 0070                 relay_to_on_step1_msg@buffer 0028  
__end_ofgetOutputLevel@numberOfLevelsOutput 1802          getOutputLevel@numberOfLevelsOutput 1800  
                relay_to_on_step1_msg@F8770 04A0                                 _testCounter 01CC  
                       main@updated_reading 013E                            ??_flag_off_step1 0072  
                relay_to_on_step1_msg@phase 005A              __end_of_PIN_MANAGER_Initialize 097C  
                               _test_seq_L1 0245                                 _test_seq_L2 0239  
                               _test_seq_L3 02D0                     relay_to_off_step1@phase 0075  
                    relay_to_off_step1@OnOf 0072                             ??_flag_on_step1 0072  
                       flag_off_step1@phase 0074                             _TMR1_Initialize 1715  
