

Microchip MPLAB XC8 Assembler V2.46 build 20240104201356 
                                                                                               Sat Jul 27 16:40:48 2024

Microchip MPLAB XC8 C Compiler v2.46 (Free license) build 20240104201356 Og1 
     1                           	processor	18F45K22
     2                           	fnconf	rparam,??,?,0
     3                           	pagewidth 120
     4                           	opt	flic
     5                           	psect	idataBANK0,global,class=CODE,delta=1,noexec
     6                           	psect	smallconst,global,reloc=2,class=SMALLCONST,delta=1,noexec
     7                           	psect	_applicationFooter_text,global,ovrld,reloc=2,class=CODE,delta=1,noexec
     8                           	psect	cinit,global,reloc=2,class=CODE,delta=1
     9                           	psect	bssCOMRAM,global,class=COMRAM,space=1,delta=1,lowdata,noexec
    10                           	psect	bssBANK0,global,class=BANK0,space=1,delta=1,lowdata,noexec
    11                           	psect	dataBANK0,global,class=BANK0,space=1,delta=1,lowdata,noexec
    12                           	psect	bssBANK1,global,class=BANK1,space=1,delta=1,lowdata,noexec
    13                           	psect	cstackBANK0,global,class=BANK0,space=1,delta=1,lowdata,noexec
    14                           	psect	cstackCOMRAM,global,class=COMRAM,space=1,delta=1,lowdata,noexec
    15                           	psect	text0,global,reloc=2,class=CODE,delta=1
    16                           	psect	text1,global,reloc=2,class=CODE,delta=1
    17                           	psect	text2,global,reloc=2,class=CODE,delta=1
    18                           	psect	text3,global,reloc=2,class=CODE,delta=1
    19                           	psect	text4,global,reloc=2,class=CODE,delta=1
    20                           	psect	text5,global,reloc=2,class=CODE,delta=1
    21                           	psect	text6,global,reloc=2,class=CODE,delta=1
    22                           	psect	text7,global,reloc=2,class=CODE,delta=1
    23                           	psect	text8,global,reloc=2,class=CODE,delta=1
    24                           	psect	text9,global,reloc=2,class=CODE,delta=1
    25                           	psect	text10,global,reloc=2,class=CODE,delta=1
    26                           	psect	text11,global,reloc=2,class=CODE,delta=1
    27                           	psect	text12,global,reloc=2,class=CODE,delta=1
    28                           	psect	text13,global,reloc=2,class=CODE,delta=1
    29                           	psect	text14,global,reloc=2,class=CODE,delta=1
    30                           	psect	text15,global,reloc=2,class=CODE,delta=1
    31                           	psect	text16,global,reloc=2,class=CODE,delta=1
    32                           	psect	text17,global,reloc=2,class=CODE,delta=1
    33                           	psect	text18,global,reloc=2,class=CODE,delta=1
    34                           	psect	text19,global,reloc=2,class=CODE,delta=1
    35                           	psect	text20,global,reloc=2,class=CODE,delta=1
    36                           	psect	text21,global,reloc=2,class=CODE,delta=1
    37                           	psect	text22,global,reloc=2,class=CODE,delta=1,group=3
    38                           	psect	text23,global,reloc=2,class=CODE,delta=1,group=1
    39                           	psect	text24,global,reloc=2,class=CODE,delta=1,group=1
    40                           	psect	text25,global,reloc=2,class=CODE,delta=1,group=3
    41                           	psect	text26,global,reloc=2,class=CODE,delta=1
    42                           	psect	text27,global,reloc=2,class=CODE,delta=1
    43                           	psect	text28,global,reloc=2,class=CODE,delta=1
    44                           	psect	text29,global,reloc=2,class=CODE,delta=1
    45                           	psect	text30,global,reloc=2,class=CODE,delta=1
    46                           	psect	text31,global,reloc=2,class=CODE,delta=1
    47                           	psect	text32,global,reloc=2,class=CODE,delta=1
    48                           	psect	text33,global,reloc=2,class=CODE,delta=1
    49                           	psect	text34,global,reloc=2,class=CODE,delta=1
    50                           	psect	text35,global,reloc=2,class=CODE,delta=1
    51                           	psect	text36,global,reloc=2,class=CODE,delta=1
    52                           	psect	text37,global,reloc=2,class=CODE,delta=1
    53                           	psect	text38,global,reloc=2,class=CODE,delta=1
    54                           	psect	text39,global,reloc=2,class=CODE,delta=1
    55                           	psect	text40,global,reloc=2,class=CODE,delta=1
    56                           	psect	text41,global,reloc=2,class=CODE,delta=1
    57                           	psect	text42,global,reloc=2,class=CODE,delta=1
    58                           	psect	text43,global,reloc=2,class=CODE,delta=1
    59                           	psect	text44,global,reloc=2,class=CODE,delta=1
    60                           	psect	text45,global,reloc=2,class=CODE,delta=1
    61                           	psect	text46,global,reloc=2,class=CODE,delta=1
    62                           	psect	text47,global,reloc=2,class=CODE,delta=1
    63                           	psect	text48,global,reloc=2,class=CODE,delta=1
    64                           	psect	text49,global,reloc=2,class=CODE,delta=1
    65                           	psect	text50,global,reloc=2,class=CODE,delta=1
    66                           	psect	text51,global,reloc=2,class=CODE,delta=1
    67                           	psect	text52,global,reloc=2,class=CODE,delta=1
    68                           	psect	text53,global,reloc=2,class=CODE,delta=1
    69                           	psect	text54,global,reloc=2,class=CODE,delta=1
    70                           	psect	text55,global,reloc=2,class=CODE,delta=1
    71                           	psect	text56,global,reloc=2,class=CODE,delta=1
    72                           	psect	text57,global,reloc=2,class=CODE,delta=1
    73                           	psect	text58,global,reloc=2,class=CODE,delta=1
    74                           	psect	text59,global,reloc=2,class=CODE,delta=1
    75                           	psect	text60,global,reloc=2,class=CODE,delta=1
    76                           	psect	text61,global,reloc=2,class=CODE,delta=1
    77                           	psect	text62,global,reloc=2,class=CODE,delta=1
    78                           	psect	text63,global,reloc=2,class=CODE,delta=1
    79                           	psect	text64,global,reloc=2,class=CODE,delta=1
    80                           	psect	text65,global,reloc=2,class=CODE,delta=1
    81                           	psect	text66,global,reloc=2,class=CODE,delta=1
    82                           	psect	text67,global,reloc=2,class=CODE,delta=1
    83                           	psect	text68,global,reloc=2,class=CODE,delta=1
    84                           	psect	text69,global,reloc=2,class=CODE,delta=1
    85                           	psect	text70,global,reloc=2,class=CODE,delta=1
    86                           	psect	text71,global,reloc=2,class=CODE,delta=1
    87                           	psect	text72,global,reloc=2,class=CODE,delta=1
    88                           	psect	text73,global,reloc=2,class=CODE,delta=1
    89                           	psect	intsave_regs,global,class=BIGRAM,space=1,delta=1,noexec
    90                           	psect	rparam,global,class=COMRAM,space=1,delta=1,noexec
    91                           	psect	config,global,abs,ovrld,class=CONFIG,space=4,delta=1,noexec
    92   000000                     
    93                           ; Generated 12/10/2023 GMT
    94                           ; 
    95                           ; Copyright © 2023, Microchip Technology Inc. and its subsidiaries ("Microchip")
    96                           ; All rights reserved.
    97                           ; 
    98                           ; This software is developed by Microchip Technology Inc. and its subsidiaries ("Microch
      +                          ip").
    99                           ; 
   100                           ; Redistribution and use in source and binary forms, with or without modification, are
   101                           ; permitted provided that the following conditions are met:
   102                           ; 
   103                           ;     1. Redistributions of source code must retain the above copyright notice, this lis
      +                          t of
   104                           ;        conditions and the following disclaimer.
   105                           ; 
   106                           ;     2. Redistributions in binary form must reproduce the above copyright notice, this 
      +                          list
   107                           ;        of conditions and the following disclaimer in the documentation and/or other
   108                           ;        materials provided with the distribution. Publication is not required when
   109                           ;        this file is used in an embedded application.
   110                           ; 
   111                           ;     3. Microchip's name may not be used to endorse or promote products derived from th
      +                          is
   112                           ;        software without specific prior written permission.
   113                           ; 
   114                           ; THIS SOFTWARE IS PROVIDED BY MICROCHIP "AS IS" AND ANY EXPRESS OR IMPLIED WARRANTIES,
   115                           ; INCLUDING, BUT NOT LIMITED TO, THE IMPLIED WARRANTIES OF MERCHANTABILITY AND FITNESS F
      +                          OR
   116                           ; PURPOSE ARE DISCLAIMED.  IN NO EVENT SHALL MICROCHIP BE LIABLE FOR ANY DIRECT, INDIREC
      +                          T,
   117                           ; INCIDENTAL, SPECIAL, EXEMPLARY, OR CONSEQUENTIAL DAMAGES (INCLUDING BUT NOT LIMITED TO
   118                           ; PROCUREMENT OF SUBSTITUTE GOODS OR SERVICES; LOSS OF USE, DATA OR PROFITS; OR BUSINESS
   119                           ; INTERRUPTION) HOWSOEVER CAUSED AND ON ANY THEORY OF LIABILITY, WHETHER IN CONTRACT, ST
      +                          RICT
   120                           ; LIABILITY, OR TORT (INCLUDING NEGLIGENCE OR OTHERWISE) ARISING IN ANY WAY OUT OF THE U
      +                          SE OF
   121                           ; THIS SOFTWARE, EVEN IF ADVISED OF THE POSSIBILITY OF SUCH DAMAGE.
   122                           ; 
   123                           ; 
   124                           ; Code-generator required, PIC18F45K22 Definitions
   125                           ; 
   126                           ; SFR Addresses
   127   000000                     
   128 ;; Function _INT0_DefaultInterruptHandler is unused but had its address taken
   129   000000                     
   130 ;; Function _INT1_DefaultInterruptHandler is unused but had its address taken
   131   000000                     
   132 ;; Function _INT2_DefaultInterruptHandler is unused but had its address taken
   133   000000                     
   134 ;; Function _EUSART1_TransmitEnable is unused but had its address taken
   135   000000                     
   136 ;; Function _EUSART1_TransmitDisable is unused but had its address taken
   137   000000                     
   138 ;; Function _EUSART1_AutoBaudSet is unused but had its address taken
   139   000000                     
   140 ;; Function _EUSART1_AutoBaudQuery is unused but had its address taken
   141   000000                     
   142 ;; Function _EUSART2_TransmitEnable is unused but had its address taken
   143   000000                     
   144 ;; Function _EUSART2_TransmitDisable is unused but had its address taken
   145   000000                     
   146 ;; Function _EUSART2_AutoBaudSet is unused but had its address taken
   147   000000                     
   148 ;; Function _EUSART2_AutoBaudQuery is unused but had its address taken
   149   000000                     
   150                           	psect	idataBANK0
   151   001F90                     __pidataBANK0:
   152                           	callstack 0
   153                           
   154                           ;initializer for BL_BootCommandProcess@F6839
   155   001F90  AA55               	dw	43605
   156   001F92  0000               	dw	0
   157   001F94  AA55               	dw	43605
   158   001F96  AA55               	dw	43605
   159                           
   160                           ;initializer for _ftpTimeoutTLVData
   161   001F98  03                 	db	3
   162   001F99  03                 	db	3
   163   001F9A  D6                 	db	low _generalCommandTimeoutData
   164                           
   165                           ;initializer for _ftpTransferParametersTLVData
   166   001F9B  02                 	db	2
   167   001F9C  03                 	db	3
   168   001F9D  DC                 	db	low _discoveryData
   169                           
   170                           ;initializer for _ftpVersionTLVData
   171   001F9E  01                 	db	1
   172   001F9F  03                 	db	3
   173   001FA0  D9                 	db	low _ftpVersionData
   174                           
   175                           ;initializer for OperationalBlockExecute@firstTime
   176   001FA1  01                 	db	1
   177                           
   178                           ;initializer for _ftpResponseSender
   179   001FA2  0000               	dw	0
   180   001FA4  0013               	dw	19
   181   001FA6  9F                 	db	low _FTP_RESPONSE_BUFFER
   182   001FA7  00                 	db	0
   183                           
   184                           ;initializer for _ftpCommandReceiver
   185   001FA8  0000               	dw	0
   186   001FAA  0049               	dw	73
   187   001FAC  20                 	db	low _FTP_RECEIVE_BUFFER
   188   001FAD  01                 	db	high _FTP_RECEIVE_BUFFER
   189                           
   190                           ;initializer for _ftpRetrySender
   191   001FAE  0000               	dw	0
   192   001FB0  0013               	dw	19
   193   001FB2  8C                 	db	low _FTP_RETRY_BUFFER
   194   001FB3  00                 	db	0
   195                           
   196                           ;initializer for _generalCommandTimeoutData
   197   001FB4  00                 	db	0
   198   001FB5  0064               	dw	100
   199                           
   200                           ;initializer for _ftpVersionData
   201   001FB7  00                 	db	0
   202   001FB8  01                 	db	1
   203   001FB9  00                 	db	0
   204                           
   205                           ;initializer for _discoveryData
   206   001FBA  0047               	dw	71
   207   001FBC  01                 	db	1
   208                           
   209                           ;initializer for _ftpSpecialCharacters
   210   001FBD  CC                 	db	204
   211   001FBE  56                 	db	86
   212   001FBF  9E                 	db	158
   213                           
   214                           	psect	smallconst
   215   000600                     __psmallconst:
   216                           	callstack 0
   217   000600  00                 	db	0
   218   000601                     _UART2:
   219                           	callstack 0
   220   000601  BE                 	db	low _EUSART2_Initialize
   221   000602  1E                 	db	high _EUSART2_Initialize
   222   000603  FE                 	db	low _EUSART2_Deinitialize
   223   000604  21                 	db	high _EUSART2_Deinitialize
   224   000605  66                 	db	low _EUSART2_Read
   225   000606  1A                 	db	high _EUSART2_Read
   226   000607  E4                 	db	low _EUSART2_Write
   227   000608  22                 	db	high _EUSART2_Write
   228   000609  28                 	db	low _EUSART2_IsRxReady
   229   00060A  22                 	db	high _EUSART2_IsRxReady
   230   00060B  64                 	db	low _EUSART2_IsTxReady
   231   00060C  20                 	db	high _EUSART2_IsTxReady
   232   00060D  50                 	db	low _EUSART2_IsTxDone
   233   00060E  22                 	db	high _EUSART2_IsTxDone
   234   00060F  00                 	db	0
   235   000610  00                 	db	0
   236   000611  00                 	db	0
   237   000612  00                 	db	0
   238   000613  00                 	db	0
   239   000614  00                 	db	0
   240   000615  00                 	db	0
   241   000616  00                 	db	0
   242   000617  00                 	db	0
   243   000618  00                 	db	0
   244   000619  00                 	db	0
   245   00061A  00                 	db	0
   246   00061B  00                 	db	0
   247   00061C  00                 	db	0
   248   00061D  00                 	db	0
   249   00061E  00                 	db	0
   250   00061F  00                 	db	0
   251   000620  00                 	db	0
   252   000621  D2                 	db	low _EUSART2_ErrorGet
   253   000622  22                 	db	high _EUSART2_ErrorGet
   254   000623  00                 	db	0
   255   000624  00                 	db	0
   256   000625  00                 	db	0
   257   000626  00                 	db	0
   258   000627  00                 	db	0
   259   000628  00                 	db	0
   260   000629  48                 	db	low _EUSART2_FramingErrorCallbackRegister
   261   00062A  21                 	db	high _EUSART2_FramingErrorCallbackRegister
   262   00062B  2C                 	db	low _EUSART2_OverrunErrorCallbackRegister
   263   00062C  21                 	db	high _EUSART2_OverrunErrorCallbackRegister
   264   00062D  00                 	db	0
   265   00062E  00                 	db	0
   266   00062F  00                 	db	0
   267   000630  00                 	db	0
   268   000631                     __end_of_UART2:
   269                           	callstack 0
   270   000631                     _UART1:
   271                           	callstack 0
   272   000631  86                 	db	low _EUSART1_Initialize
   273   000632  1E                 	db	high _EUSART1_Initialize
   274   000633  E8                 	db	low _EUSART1_Deinitialize
   275   000634  21                 	db	high _EUSART1_Deinitialize
   276   000635  DE                 	db	low _EUSART1_Read
   277   000636  19                 	db	high _EUSART1_Read
   278   000637  DC                 	db	low _EUSART1_Write
   279   000638  22                 	db	high _EUSART1_Write
   280   000639  14                 	db	low _EUSART1_IsRxReady
   281   00063A  22                 	db	high _EUSART1_IsRxReady
   282   00063B  3C                 	db	low _EUSART1_IsTxReady
   283   00063C  20                 	db	high _EUSART1_IsTxReady
   284   00063D  3C                 	db	low _EUSART1_IsTxDone
   285   00063E  22                 	db	high _EUSART1_IsTxDone
   286   00063F  00                 	db	0
   287   000640  00                 	db	0
   288   000641  00                 	db	0
   289   000642  00                 	db	0
   290   000643  00                 	db	0
   291   000644  00                 	db	0
   292   000645  00                 	db	0
   293   000646  00                 	db	0
   294   000647  00                 	db	0
   295   000648  00                 	db	0
   296   000649  00                 	db	0
   297   00064A  00                 	db	0
   298   00064B  00                 	db	0
   299   00064C  00                 	db	0
   300   00064D  00                 	db	0
   301   00064E  00                 	db	0
   302   00064F  00                 	db	0
   303   000650  00                 	db	0
   304   000651  C8                 	db	low _EUSART1_ErrorGet
   305   000652  22                 	db	high _EUSART1_ErrorGet
   306   000653  00                 	db	0
   307   000654  00                 	db	0
   308   000655  00                 	db	0
   309   000656  00                 	db	0
   310   000657  00                 	db	0
   311   000658  00                 	db	0
   312   000659  80                 	db	low _EUSART1_FramingErrorCallbackRegister
   313   00065A  21                 	db	high _EUSART1_FramingErrorCallbackRegister
   314   00065B  64                 	db	low _EUSART1_OverrunErrorCallbackRegister
   315   00065C  21                 	db	high _EUSART1_OverrunErrorCallbackRegister
   316   00065D  00                 	db	0
   317   00065E  00                 	db	0
   318   00065F  00                 	db	0
   319   000660  00                 	db	0
   320   000661                     __end_of_UART1:
   321                           	callstack 0
   322   000000                     _applicationFooter_absaddr	set	12350
   323   000000                     _applicationFooter_absaddr	set	12350
   324   000661                     STR_3:
   325   000661  53                 	db	83	;'S'
   326   000662  74                 	db	116	;'t'
   327   000663  61                 	db	97	;'a'
   328   000664  72                 	db	114	;'r'
   329   000665  74                 	db	116	;'t'
   330   000666  20                 	db	32
   331   000667  66                 	db	102	;'f'
   332   000668  6C                 	db	108	;'l'
   333   000669  61                 	db	97	;'a'
   334   00066A  73                 	db	115	;'s'
   335   00066B  68                 	db	104	;'h'
   336   00066C  0A                 	db	10
   337   00066D  0D                 	db	13
   338   00066E  00                 	db	0
   339   00066F                     STR_6:
   340   00066F  53                 	db	83	;'S'
   341   000670  74                 	db	116	;'t'
   342   000671  61                 	db	97	;'a'
   343   000672  72                 	db	114	;'r'
   344   000673  74                 	db	116	;'t'
   345   000674  20                 	db	32
   346   000675  0A                 	db	10
   347   000676  0D                 	db	13
   348   000677  00                 	db	0
   349   000678                     STR_5:
   350   000678  41                 	db	65	;'A'
   351   000679  3A                 	db	58	;':'
   352   00067A  25                 	db	37
   353   00067B  6C                 	db	108	;'l'
   354   00067C  78                 	db	120	;'x'
   355   00067D  20                 	db	32
   356   00067E  0A                 	db	10
   357   00067F  0D                 	db	13
   358   000680  00                 	db	0
   359   000681                     STR_1:
   360   000681  0A                 	db	10
   361   000682  0D                 	db	13
   362   000683  54                 	db	84	;'T'
   363   000684  46                 	db	70	;'F'
   364   000685  0A                 	db	10
   365   000686  0D                 	db	13
   366   000687  00                 	db	0
   367   000688                     STR_4:
   368   000688  45                 	db	69	;'E'
   369   000689  6E                 	db	110	;'n'
   370   00068A  64                 	db	100	;'d'
   371   00068B  0A                 	db	10
   372   00068C  0D                 	db	13
   373   00068D  00                 	db	0
   374   00068E                     STR_2:
   375   00068E  43                 	db	67	;'C'
   376   00068F  6C                 	db	108	;'l'
   377   000690  0A                 	db	10
   378   000691  0D                 	db	13
   379   000692  00                 	db	0
   380   000693  00                 	db	0	; dummy byte at the end
   381   000000                     
   382                           	psect	_applicationFooter_text
   383   00303E                     __p_applicationFooter_text:
   384                           	callstack 0
   385   00303E                     _applicationFooter:
   386                           	callstack 0
   387   00303E  AA55               	dw	43605
   388   003040                     __end_of_applicationFooter:
   389                           	callstack 0
   390   000000                     _TXREG2	set	3955
   391   000000                     _RCREG2	set	3956
   392   000000                     _SPBRG2	set	3957
   393   000000                     _TXSTA2	set	3954
   394   000000                     _RCSTA2	set	3953
   395   000000                     _TXREG1	set	4013
   396   000000                     _RCREG1	set	4014
   397   000000                     _SPBRG1	set	4015
   398   000000                     _TXSTA1	set	4012
   399   000000                     _EEDATA	set	4008
   400   000000                     _EEADR	set	4009
   401   000000                     _EECON2	set	4007
   402   000000                     _BAUDCON2bits	set	3952
   403   000000                     _TXSTA2bits	set	3954
   404   000000                     _RCSTA2bits	set	3953
   405   000000                     _BAUDCON1bits	set	4024
   406   000000                     _TXSTA1bits	set	4012
   407   000000                     _RCSTA1bits	set	4011
   408   000000                     _LATA	set	3977
   409   000000                     _WPUB	set	3937
   410   000000                     _ANSELE	set	3900
   411   000000                     _ANSELD	set	3899
   412   000000                     _ANSELC	set	3898
   413   000000                     _ANSELB	set	3897
   414   000000                     _ANSELA	set	3896
   415   000000                     _PORTAbits	set	3968
   416   000000                     _LATAbits	set	3977
   417   000000                     _TRISA	set	3986
   418   000000                     _LATE	set	3981
   419   000000                     _LATD	set	3980
   420   000000                     _LATC	set	3979
   421   000000                     _LATB	set	3978
   422   000000                     _OSCTUNE	set	3995
   423   000000                     _EECON1bits	set	4006
   424   000000                     _BSR	set	4064
   425   000000                     _STKPTR	set	4092
   426   000000                     _INTCON3bits	set	4080
   427   000000                     _INTCON2bits	set	4081
   428   000000                     _INTCONbits	set	4082
   429   000000                     _TABLAT	set	4085
   430   000000                     _TBLPTRL	set	4086
   431   000000                     _TBLPTRH	set	4087
   432   000000                     _TBLPTRU	set	4088
   433   000000                     _RCSTA1	set	4011
   434   000000                     _BAUDCON1	set	4024
   435   000000                     _RCONbits	set	4048
   436   000000                     _OSCCON2	set	4050
   437   000000                     _OSCCON	set	4051
   438   000000                     _PIR1bits	set	3998
   439   000000                     _TRISE	set	3990
   440   000000                     _TRISD	set	3989
   441   000000                     _TRISC	set	3988
   442   000000                     _TRISB	set	3987
   443   000000                     _BAUDCON2	set	3952
   444   000000                     _IOCB	set	3938
   445   000000                     _SPBRGH1	set	4016
   446   000000                     _PIR3bits	set	4004
   447   000000                     _SPBRGH2	set	3958
   448                           
   449                           ; #config settings
   450                           
   451                           	psect	cinit
   452   001CEC                     __pcinit:
   453                           	callstack 0
   454   001CEC                     start_initialization:
   455                           	callstack 0
   456   001CEC                     __initialization:
   457                           	callstack 0
   458                           
   459                           ; Initialize objects allocated to BANK0 (48 bytes)
   460                           ; load TBLPTR registers with __pidataBANK0
   461   001CEC  0E90               	movlw	low __pidataBANK0
   462   001CEE  6EF6               	movwf	tblptrl,c
   463   001CF0  0E1F               	movlw	high __pidataBANK0
   464   001CF2  6EF7               	movwf	tblptrh,c
   465   001CF4  0E00               	movlw	low (__pidataBANK0 shr (0+16))
   466   001CF6  6EF8               	movwf	tblptru,c
   467   001CF8  EE00  F0B2         	lfsr	0,__pdataBANK0
   468   001CFC  EE10 F030          	lfsr	1,48
   469   001D00                     copy_data0:
   470   001D00  0009               	tblrd		*+
   471   001D02  CFF5 FFEE          	movff	tablat,postinc0
   472   001D06  50E5               	movf	postdec1,w,c
   473   001D08  50E1               	movf	fsr1l,w,c
   474   001D0A  E1FA               	bnz	copy_data0
   475                           
   476                           ; Clear objects allocated to BANK1 (170 bytes)
   477   001D0C  EE01  F000         	lfsr	0,__pbssBANK1
   478   001D10  0EAA               	movlw	170
   479   001D12                     clear_0:
   480   001D12  6AEE               	clrf	postinc0,c
   481   001D14  06E8               	decf	wreg,f,c
   482   001D16  E1FD               	bnz	clear_0
   483                           
   484                           ; Clear objects allocated to BANK0 (82 bytes)
   485   001D18  EE00  F060         	lfsr	0,__pbssBANK0
   486   001D1C  0E52               	movlw	82
   487   001D1E                     clear_1:
   488   001D1E  6AEE               	clrf	postinc0,c
   489   001D20  06E8               	decf	wreg,f,c
   490   001D22  E1FD               	bnz	clear_1
   491                           
   492                           ; Clear objects allocated to COMRAM (2 bytes)
   493   001D24  6A5E               	clrf	(__pbssCOMRAM+1)& (0+255),c
   494   001D26  6A5D               	clrf	__pbssCOMRAM& (0+255),c
   495   001D28                     end_of_initialization:
   496                           	callstack 0
   497   001D28                     __end_of__initialization:
   498                           	callstack 0
   499   001D28  0E00               	movlw	low (__Lmediumconst shr (0+16))
   500   001D2A  6EF8               	movwf	tblptru,c
   501   001D2C  0100               	movlb	0
   502   001D2E  EF69  F010         	goto	_main	;jump to C main() function
   503                           
   504                           	psect	bssCOMRAM
   505   00005D                     __pbssCOMRAM:
   506                           	callstack 0
   507   00005D                     _unlockKeyHigh:
   508                           	callstack 0
   509   00005D                     	ds	1
   510   00005E                     _unlockKeyLow:
   511                           	callstack 0
   512   00005E                     	ds	1
   513                           
   514                           	psect	bssBANK0
   515   000060                     __pbssBANK0:
   516                           	callstack 0
   517   000060                     _ftpHelper:
   518                           	callstack 0
   519   000060                     	ds	5
   520   000065                     _width:
   521                           	callstack 0
   522   000065                     	ds	2
   523   000067                     _prec:
   524                           	callstack 0
   525   000067                     	ds	2
   526   000069                     _EUSART2_OverrunErrorHandler:
   527                           	callstack 0
   528   000069                     	ds	2
   529   00006B                     _EUSART2_FramingErrorHandler:
   530                           	callstack 0
   531   00006B                     	ds	2
   532   00006D                     _eusart2RxLastError:
   533                           	callstack 0
   534   00006D                     	ds	2
   535   00006F                     _EUSART1_OverrunErrorHandler:
   536                           	callstack 0
   537   00006F                     	ds	2
   538   000071                     _EUSART1_FramingErrorHandler:
   539                           	callstack 0
   540   000071                     	ds	2
   541   000073                     _eusart1RxLastError:
   542                           	callstack 0
   543   000073                     	ds	2
   544   000075                     _INT2_InterruptHandler:
   545                           	callstack 0
   546   000075                     	ds	2
   547   000077                     _INT1_InterruptHandler:
   548                           	callstack 0
   549   000077                     	ds	2
   550   000079                     _INT0_InterruptHandler:
   551                           	callstack 0
   552   000079                     	ds	2
   553   00007B                     _rowWriteKey:
   554                           	callstack 0
   555   00007B                     	ds	2
   556   00007D                     _byteWordWriteKey:
   557                           	callstack 0
   558   00007D                     	ds	2
   559   00007F                     _readKey:
   560                           	callstack 0
   561   00007F                     	ds	2
   562   000081                     _erasePageKey:
   563                           	callstack 0
   564   000081                     	ds	2
   565   000083                     _MaxBufferLength:
   566                           	callstack 0
   567   000083                     	ds	2
   568   000085                     _flags:
   569                           	callstack 0
   570   000085                     	ds	1
   571   000086                     _firstTimeIn:
   572                           	callstack 0
   573   000086                     	ds	1
   574   000087                     _bootloaderCoreUnlocked:
   575                           	callstack 0
   576   000087                     	ds	1
   577   000088                     	ds	1
   578   000089                     COM_FrameTransfer@isEscapedByte:
   579                           	callstack 0
   580   000089                     	ds	1
   581   00008A                     COM_FrameTransfer@isReceiveWindowOpen:
   582                           	callstack 0
   583   00008A                     	ds	1
   584   00008B                     _BootState:
   585                           	callstack 0
   586   00008B                     	ds	1
   587   00008C                     _FTP_RETRY_BUFFER:
   588                           	callstack 0
   589   00008C                     	ds	19
   590   00009F                     _FTP_RESPONSE_BUFFER:
   591                           	callstack 0
   592   00009F                     	ds	19
   593                           
   594                           	psect	dataBANK0
   595   0000B2                     __pdataBANK0:
   596                           	callstack 0
   597   0000B2                     BL_BootCommandProcess@F6839:
   598                           	callstack 0
   599   0000B2                     	ds	8
   600   0000BA                     	ds	3
   601   0000BD                     	ds	3
   602   0000C0                     	ds	3
   603   0000C3                     	ds	1
   604   0000C4                     _ftpResponseSender:
   605                           	callstack 0
   606   0000C4                     	ds	6
   607   0000CA                     _ftpCommandReceiver:
   608                           	callstack 0
   609   0000CA                     	ds	6
   610   0000D0                     _ftpRetrySender:
   611                           	callstack 0
   612   0000D0                     	ds	6
   613   0000D6                     _generalCommandTimeoutData:
   614                           	callstack 0
   615   0000D6                     	ds	3
   616   0000D9                     _ftpVersionData:
   617                           	callstack 0
   618   0000D9                     	ds	3
   619   0000DC                     _discoveryData:
   620                           	callstack 0
   621   0000DC                     	ds	3
   622   0000DF                     _ftpSpecialCharacters:
   623                           	callstack 0
   624   0000DF                     	ds	3
   625                           
   626                           	psect	bssBANK1
   627   000100                     __pbssBANK1:
   628                           	callstack 0
   629   000100                     _dbuf:
   630                           	callstack 0
   631   000100                     	ds	32
   632   000120                     _FTP_RECEIVE_BUFFER:
   633                           	callstack 0
   634   000120                     	ds	74
   635   00016A                     _writeBuffer:
   636                           	callstack 0
   637   00016A                     	ds	64
   638                           
   639                           	psect	cstackBANK0
   640   0000E2                     __pcstackBANK0:
   641                           	callstack 0
   642   0000E2                     FTP_Task@transportCode:
   643                           	callstack 0
   644                           
   645                           ; 1 bytes @ 0x0
   646   0000E2                     	ds	1
   647   0000E3                     FTP_Task@processResult:
   648                           	callstack 0
   649                           
   650                           ; 1 bytes @ 0x1
   651   0000E3                     	ds	1
   652   0000E4                     FTP_Task@comResult:
   653                           	callstack 0
   654                           
   655                           ; 1 bytes @ 0x2
   656   0000E4                     	ds	1
   657   0000E5                     ??_BL_Example:
   658                           
   659                           ; 1 bytes @ 0x3
   660   0000E5                     	ds	2
   661                           
   662                           	psect	cstackCOMRAM
   663   000001                     __pcstackCOMRAM:
   664                           	callstack 0
   665   000001                     ??_TransportFailureCodeGet:
   666   000001                     ??_AbortCodeGet:
   667   000001                     ?_DeviceID_Read:
   668                           	callstack 0
   669   000001                     ?_FLASH_PageOffsetGet:
   670                           	callstack 0
   671   000001                     ?_EUSART1_ErrorGet:
   672                           	callstack 0
   673   000001                     ?_EUSART2_ErrorGet:
   674                           	callstack 0
   675   000001                     ?_FLASH_PageAddressGet:
   676                           	callstack 0
   677   000001                     ForcedEntryCheck@result:
   678                           	callstack 0
   679   000001                     ResponseSet@responseData:
   680                           	callstack 0
   681   000001                     ClientInfoResponseSet@responseData:
   682                           	callstack 0
   683   000001                     _NVM_IsBusy$1007:
   684                           	callstack 0
   685   000001                     _EUSART1_IsTxReady$1936:
   686                           	callstack 0
   687   000001                     EUSART1_Write@txData:
   688                           	callstack 0
   689   000001                     _EUSART2_IsTxReady$2462:
   690                           	callstack 0
   691   000001                     EUSART2_Write@txData:
   692                           	callstack 0
   693   000001                     FrameCheckCalculate@ftpData:
   694                           	callstack 0
   695   000001                     COM_Initialize@maximumBufferLength:
   696                           	callstack 0
   697   000001                     ParserDataReset@i:
   698                           	callstack 0
   699   000001                     NVM_UnlockKeySet@unlockKey:
   700                           	callstack 0
   701   000001                     INT0_SetInterruptHandler@InterruptHandler:
   702                           	callstack 0
   703   000001                     INT1_SetInterruptHandler@InterruptHandler:
   704                           	callstack 0
   705   000001                     INT2_SetInterruptHandler@InterruptHandler:
   706                           	callstack 0
   707   000001                     EUSART1_FramingErrorCallbackRegister@callbackHandler:
   708                           	callstack 0
   709   000001                     EUSART1_OverrunErrorCallbackRegister@callbackHandler:
   710                           	callstack 0
   711   000001                     EUSART2_FramingErrorCallbackRegister@callbackHandler:
   712                           	callstack 0
   713   000001                     EUSART2_OverrunErrorCallbackRegister@callbackHandler:
   714                           	callstack 0
   715   000001                     DeviceID_Read@address:
   716                           	callstack 0
   717   000001                     FLASH_Read@address:
   718                           	callstack 0
   719   000001                     FLASH_RowWrite@address:
   720                           	callstack 0
   721   000001                     FLASH_PageErase@address:
   722                           	callstack 0
   723   000001                     FLASH_PageAddressGet@address:
   724                           	callstack 0
   725   000001                     FLASH_PageOffsetGet@address:
   726                           	callstack 0
   727   000001                     BL_MemoryUnlockKeysInit@keys:
   728                           	callstack 0
   729                           
   730                           ; 8 bytes @ 0x0
   731   000001                     	ds	1
   732   000002                     ??_ClientInfoResponseSet:
   733   000002                     ForcedEntryCheck@i:
   734                           	callstack 0
   735   000002                     putch@txData:
   736                           	callstack 0
   737   000002                     ResponseSet@responsePayload:
   738                           	callstack 0
   739                           
   740                           ; 2 bytes @ 0x1
   741   000002                     	ds	1
   742   000003                     FrameCheckCalculate@bufferLength:
   743                           	callstack 0
   744   000003                     DataSend@data:
   745                           	callstack 0
   746   000003                     DataReceive@data:
   747                           	callstack 0
   748   000003                     COM_Initialize@result:
   749                           	callstack 0
   750   000003                     AbortCodeGet@targetStatus:
   751                           	callstack 0
   752   000003                     TransportFailureCodeGet@targetStatus:
   753                           	callstack 0
   754   000003                     fputc@c:
   755                           	callstack 0
   756                           
   757                           ; 2 bytes @ 0x2
   758   000003                     	ds	1
   759   000004                     ??_DeviceID_Read:
   760   000004                     FrameCheckCalculate@checksum:
   761                           	callstack 0
   762   000004                     AbortCodeGet@abortCode:
   763                           	callstack 0
   764   000004                     TransportFailureCodeGet@transportCode:
   765                           	callstack 0
   766   000004                     ResponseSet@responseStatus:
   767                           	callstack 0
   768   000004                     FTP_Initialize@comInitStatus:
   769                           	callstack 0
   770   000004                     DataSend@length:
   771                           	callstack 0
   772   000004                     DataReceive@length:
   773                           	callstack 0
   774                           
   775                           ; 2 bytes @ 0x3
   776   000004                     	ds	1
   777   000005                     ??_FLASH_PageErase:
   778   000005                     ??_FLASH_Read:
   779   000005                     ??_FLASH_PageAddressGet:
   780   000005                     BL_ExampleInitialize@initStatus:
   781                           	callstack 0
   782   000005                     FrameCheckCalculate@numBytesChecksummed:
   783                           	callstack 0
   784   000005                     ResponseSet@responsePayloadLength:
   785                           	callstack 0
   786   000005                     FLASH_RowWrite@dataBuffer:
   787                           	callstack 0
   788   000005                     fputc@fp:
   789                           	callstack 0
   790                           
   791                           ; 2 bytes @ 0x4
   792   000005                     	ds	1
   793   000006                     DataSend@status:
   794                           	callstack 0
   795   000006                     DataReceive@status:
   796                           	callstack 0
   797                           
   798                           ; 1 bytes @ 0x5
   799   000006                     	ds	1
   800   000007                     ??_ResponseSet:
   801   000007                     ??_fputc:
   802   000007                     FLASH_RowWrite@globalInterruptBitValue:
   803                           	callstack 0
   804   000007                     DataSend@byteIndex:
   805                           	callstack 0
   806   000007                     DataReceive@byteIndex:
   807                           	callstack 0
   808                           
   809                           ; 2 bytes @ 0x6
   810   000007                     	ds	1
   811   000008                     FLASH_RowWrite@flashDataCount:
   812                           	callstack 0
   813                           
   814                           ; 1 bytes @ 0x7
   815   000008                     	ds	1
   816   000009                     ResponseSet@i:
   817                           	callstack 0
   818   000009                     COM_FrameTransfer@receiveBufferPtr:
   819                           	callstack 0
   820   000009                     COM_FrameSet@responseBufferPtr:
   821                           	callstack 0
   822                           
   823                           ; 2 bytes @ 0x8
   824   000009                     	ds	2
   825   00000B                     COM_FrameTransfer@receiveIndexPtr:
   826                           	callstack 0
   827   00000B                     COM_FrameSet@responseLength:
   828                           	callstack 0
   829                           
   830                           ; 2 bytes @ 0xA
   831   00000B                     	ds	1
   832   00000C                     ??_COM_FrameTransfer:
   833   00000C                     vfpfcnvrt@fp:
   834                           	callstack 0
   835                           
   836                           ; 2 bytes @ 0xB
   837   00000C                     	ds	1
   838   00000D                     ??_COM_FrameSet:
   839                           
   840                           ; 1 bytes @ 0xC
   841   00000D                     	ds	1
   842   00000E                     vfpfcnvrt@fmt:
   843                           	callstack 0
   844                           
   845                           ; 1 bytes @ 0xD
   846   00000E                     	ds	1
   847   00000F                     vfpfcnvrt@ap:
   848                           	callstack 0
   849   00000F                     COM_FrameSet@frameCheck:
   850                           	callstack 0
   851                           
   852                           ; 2 bytes @ 0xE
   853   00000F                     	ds	1
   854   000010                     ??_vfpfcnvrt:
   855   000010                     COM_FrameTransfer@workPtr:
   856                           	callstack 0
   857   000010                     DeviceID_Read@deivceID:
   858                           	callstack 0
   859                           
   860                           ; 2 bytes @ 0xF
   861   000010                     	ds	1
   862   000011                     FLASH_PageErase@globalInterruptBitValue:
   863                           	callstack 0
   864   000011                     COM_FrameSet@sentByteCount:
   865                           	callstack 0
   866   000011                     FLASH_Read@tablePointer:
   867                           	callstack 0
   868                           
   869                           ; 4 bytes @ 0x10
   870   000011                     	ds	1
   871   000012                     COM_FrameTransfer@fcs:
   872                           	callstack 0
   873   000012                     FLASH_PageErase@tablePointer:
   874                           	callstack 0
   875   000012                     DeviceID_Read@tablePointer:
   876                           	callstack 0
   877   000012                     vfpfcnvrt@convarg:
   878                           	callstack 0
   879                           
   880                           ; 4 bytes @ 0x11
   881   000012                     	ds	1
   882   000013                     COM_FrameTransfer@lowByte:
   883                           	callstack 0
   884   000013                     COM_FrameSet@processResult:
   885                           	callstack 0
   886                           
   887                           ; 1 bytes @ 0x12
   888   000013                     	ds	1
   889   000014                     COM_FrameTransfer@frameCheckSequence:
   890                           	callstack 0
   891   000014                     COM_FrameSet@nextByte:
   892                           	callstack 0
   893                           
   894                           ; 1 bytes @ 0x13
   895   000014                     	ds	1
   896   000015                     COM_FrameTransfer@startOfWord:
   897                           	callstack 0
   898                           
   899                           ; 2 bytes @ 0x14
   900   000015                     	ds	1
   901   000016                     vfpfcnvrt@x:
   902                           	callstack 0
   903   000016                     DownloadAreaErase@startAddress:
   904                           	callstack 0
   905   000016                     BL_FlashWrite@address:
   906                           	callstack 0
   907                           
   908                           ; 4 bytes @ 0x15
   909   000016                     	ds	1
   910   000017                     COM_FrameTransfer@processResult:
   911                           	callstack 0
   912   000017                     vfpfcnvrt@cp:
   913                           	callstack 0
   914                           
   915                           ; 1 bytes @ 0x16
   916   000017                     	ds	1
   917   000018                     COM_FrameTransfer@nextByte:
   918                           	callstack 0
   919   000018                     vfpfcnvrt@c:
   920                           	callstack 0
   921                           
   922                           ; 1 bytes @ 0x17
   923   000018                     	ds	1
   924   000019                     ?_vfprintf:
   925                           	callstack 0
   926   000019                     vfprintf@fp:
   927                           	callstack 0
   928                           
   929                           ; 2 bytes @ 0x18
   930   000019                     	ds	1
   931   00001A                     DownloadAreaErase@pageEraseUnlockKey:
   932                           	callstack 0
   933   00001A                     BL_FlashWrite@buffer:
   934                           	callstack 0
   935                           
   936                           ; 2 bytes @ 0x19
   937   00001A                     	ds	1
   938   00001B                     vfprintf@fmt:
   939                           	callstack 0
   940                           
   941                           ; 1 bytes @ 0x1A
   942   00001B                     	ds	1
   943   00001C                     vfprintf@ap:
   944                           	callstack 0
   945   00001C                     DownloadAreaErase@unlockKey:
   946                           	callstack 0
   947   00001C                     BL_FlashWrite@length:
   948                           	callstack 0
   949                           
   950                           ; 2 bytes @ 0x1B
   951   00001C                     	ds	1
   952   00001D                     vfprintf@cfmt:
   953                           	callstack 0
   954                           
   955                           ; 1 bytes @ 0x1C
   956   00001D                     	ds	1
   957   00001E                     ??_BL_FlashWrite:
   958   00001E                     ?_printf:
   959                           	callstack 0
   960   00001E                     DownloadAreaErase@errorStatus:
   961                           	callstack 0
   962   00001E                     printf@fmt:
   963                           	callstack 0
   964                           
   965                           ; 1 bytes @ 0x1D
   966   00001E                     	ds	1
   967   00001F                     DownloadAreaErase@address:
   968                           	callstack 0
   969                           
   970                           ; 4 bytes @ 0x1E
   971   00001F                     	ds	3
   972   000022                     BL_FlashWrite@offset:
   973                           	callstack 0
   974                           
   975                           ; 2 bytes @ 0x21
   976   000022                     	ds	1
   977   000023                     printf@ap:
   978                           	callstack 0
   979   000023                     BootloaderProcessorUnlock@bufferPtr:
   980                           	callstack 0
   981                           
   982                           ; 2 bytes @ 0x22
   983   000023                     	ds	1
   984   000024                     BL_FlashWrite@counter:
   985                           	callstack 0
   986                           
   987                           ; 2 bytes @ 0x23
   988   000024                     	ds	1
   989   000025                     ??_BootloaderProcessorUnlock:
   990                           
   991                           ; 1 bytes @ 0x24
   992   000025                     	ds	1
   993   000026                     BL_FlashWrite@index:
   994                           	callstack 0
   995                           
   996                           ; 2 bytes @ 0x25
   997   000026                     	ds	2
   998   000028                     BL_FlashWrite@pageStartAddress:
   999                           	callstack 0
  1000                           
  1001                           ; 4 bytes @ 0x27
  1002   000028                     	ds	4
  1003   00002C                     BL_FlashWrite@result:
  1004                           	callstack 0
  1005                           
  1006                           ; 1 bytes @ 0x2B
  1007   00002C                     	ds	9
  1008   000035                     BootloaderProcessorUnlock@startAddress:
  1009                           	callstack 0
  1010                           
  1011                           ; 4 bytes @ 0x34
  1012   000035                     	ds	4
  1013   000039                     BL_BootCommandProcess@bootDataPtr:
  1014                           	callstack 0
  1015                           
  1016                           ; 2 bytes @ 0x38
  1017   000039                     	ds	2
  1018   00003B                     BL_BootCommandProcess@bufferLength:
  1019                           	callstack 0
  1020                           
  1021                           ; 2 bytes @ 0x3A
  1022   00003B                     	ds	2
  1023   00003D                     ??_BL_BootCommandProcess:
  1024                           
  1025                           ; 1 bytes @ 0x3C
  1026   00003D                     	ds	16
  1027   00004D                     BL_BootCommandProcess@userProvidedKeys:
  1028                           	callstack 0
  1029                           
  1030                           ; 8 bytes @ 0x4C
  1031   00004D                     	ds	8
  1032   000055                     BL_BootCommandProcess@memoryStatus:
  1033                           	callstack 0
  1034                           
  1035                           ; 1 bytes @ 0x54
  1036   000055                     	ds	1
  1037   000056                     BL_BootCommandProcess@bootCommandStatus:
  1038                           	callstack 0
  1039                           
  1040                           ; 1 bytes @ 0x55
  1041   000056                     	ds	1
  1042   000057                     BL_BootCommandProcess@commandHeader:
  1043                           	callstack 0
  1044                           
  1045                           ; 4 bytes @ 0x56
  1046   000057                     	ds	4
  1047   00005B                     OperationalBlockExecute@abortCode:
  1048                           	callstack 0
  1049                           
  1050                           ; 1 bytes @ 0x5A
  1051   00005B                     	ds	1
  1052   00005C                     OperationalBlockExecute@processResult:
  1053                           	callstack 0
  1054                           
  1055                           ; 1 bytes @ 0x5B
  1056   00005C                     	ds	1
  1057   00005D                     
  1058                           ; 1 bytes @ 0x5C
  1059 ;;
  1060 ;;Main: autosize = 0, tempsize = 0, incstack = 0, save=0
  1061 ;;
  1062 ;; *************** function _main *****************
  1063 ;; Defined at:
  1064 ;;		line 164 in file "main.c"
  1065 ;; Parameters:    Size  Location     Type
  1066 ;;		None
  1067 ;; Auto vars:     Size  Location     Type
  1068 ;;		None
  1069 ;; Return value:  Size  Location     Type
  1070 ;;                  2  1045[None  ] int 
  1071 ;; Registers used:
  1072 ;;		wreg, fsr0l, fsr0h, fsr1l, fsr1h, fsr2l, fsr2h, status,2, status,0, pcl, pclath, pclatu, tosl, tblptrl, tblptrh, tbl
      +ptru, cstack
  1073 ;; Tracked objects:
  1074 ;;		On entry : 0/0
  1075 ;;		On exit  : 0/0
  1076 ;;		Unchanged: 0/0
  1077 ;; Data sizes:     COMRAM   BANK0   BANK1   BANK2   BANK3   BANK4   BANK5
  1078 ;;      Params:         0       0       0       0       0       0       0
  1079 ;;      Locals:         0       0       0       0       0       0       0
  1080 ;;      Temps:          0       0       0       0       0       0       0
  1081 ;;      Totals:         0       0       0       0       0       0       0
  1082 ;;Total ram usage:        0 bytes
  1083 ;; Hardware stack levels required when called: 10
  1084 ;; This function calls:
  1085 ;;		_BL_Example
  1086 ;;		_BL_ExampleInitialize
  1087 ;;		_SYSTEM_Initialize
  1088 ;;		_printf
  1089 ;; This function is called by:
  1090 ;;		Startup code after reset
  1091 ;; This function uses a non-reentrant model
  1092 ;;
  1093                           
  1094                           	psect	text0
  1095   0020D2                     __ptext0:
  1096                           	callstack 0
  1097   0020D2                     _main:
  1098                           	callstack 21
  1099   0020D2                     
  1100                           ;main.c: 166:     SYSTEM_Initialize();
  1101   0020D2  EC78  F010         	call	_SYSTEM_Initialize
  1102   0020D6                     
  1103                           ;main.c: 177:     (INTCONbits.GIE = 1);
  1104   0020D6  8EF2               	bsf	242,7,c	;volatile
  1105   0020D8                     
  1106                           ;main.c: 188:     printf("Start \n\r");
  1107   0020D8  0E6F               	movlw	low STR_6
  1108   0020DA  6E1E               	movwf	printf@fmt^0,c
  1109   0020DC  ECCE  F010         	call	_printf	;wreg free
  1110   0020E0                     
  1111                           ;main.c: 189:     BL_ExampleInitialize();
  1112   0020E0  ECDF  F00E         	call	_BL_ExampleInitialize	;wreg free
  1113   0020E4                     l5615:
  1114                           
  1115                           ;main.c: 225:     {;main.c: 226:         BL_Example();
  1116   0020E4  ECBC  F00E         	call	_BL_Example	;wreg free
  1117   0020E8  EF72  F010         	goto	l5615
  1118   0020EC  EF00  F000         	goto	start
  1119   0020F0                     __end_of_main:
  1120                           	callstack 0
  1121                           
  1122 ;; *************** function _SYSTEM_Initialize *****************
  1123 ;; Defined at:
  1124 ;;		line 39 in file "mcc_generated_files/system/src/system.c"
  1125 ;; Parameters:    Size  Location     Type
  1126 ;;		None
  1127 ;; Auto vars:     Size  Location     Type
  1128 ;;		None
  1129 ;; Return value:  Size  Location     Type
  1130 ;;                  1    wreg      void 
  1131 ;; Registers used:
  1132 ;;		wreg, status,2, status,0, cstack
  1133 ;; Tracked objects:
  1134 ;;		On entry : 0/0
  1135 ;;		On exit  : 0/0
  1136 ;;		Unchanged: 0/0
  1137 ;; Data sizes:     COMRAM   BANK0   BANK1   BANK2   BANK3   BANK4   BANK5
  1138 ;;      Params:         0       0       0       0       0       0       0
  1139 ;;      Locals:         0       0       0       0       0       0       0
  1140 ;;      Temps:          0       0       0       0       0       0       0
  1141 ;;      Totals:         0       0       0       0       0       0       0
  1142 ;;Total ram usage:        0 bytes
  1143 ;; Hardware stack levels used: 1
  1144 ;; Hardware stack levels required when called: 2
  1145 ;; This function calls:
  1146 ;;		_BL_Initialize
  1147 ;;		_CLOCK_Initialize
  1148 ;;		_EUSART1_Initialize
  1149 ;;		_EUSART2_Initialize
  1150 ;;		_INTERRUPT_Initialize
  1151 ;;		_NVM_Initialize
  1152 ;;		_PIN_MANAGER_Initialize
  1153 ;; This function is called by:
  1154 ;;		_main
  1155 ;; This function uses a non-reentrant model
  1156 ;;
  1157                           
  1158                           	psect	text1
  1159   0020F0                     __ptext1:
  1160                           	callstack 0
  1161   0020F0                     _SYSTEM_Initialize:
  1162                           	callstack 28
  1163   0020F0                     
  1164                           ;mcc_generated_files/system/src/system.c: 41:     CLOCK_Initialize();
  1165   0020F0  EC32  F011         	call	_CLOCK_Initialize	;wreg free
  1166                           
  1167                           ;mcc_generated_files/system/src/system.c: 42:     PIN_MANAGER_Initialize();
  1168   0020F4  EC99  F00E         	call	_PIN_MANAGER_Initialize	;wreg free
  1169   0020F8                     
  1170                           ;mcc_generated_files/system/src/system.c: 43:     EUSART1_Initialize();
  1171   0020F8  EC43  F00F         	call	_EUSART1_Initialize	;wreg free
  1172   0020FC                     
  1173                           ;mcc_generated_files/system/src/system.c: 44:     EUSART2_Initialize();
  1174   0020FC  EC5F  F00F         	call	_EUSART2_Initialize	;wreg free
  1175   002100                     
  1176                           ;mcc_generated_files/system/src/system.c: 45:     NVM_Initialize();
  1177   002100  EC76  F011         	call	_NVM_Initialize	;wreg free
  1178   002104                     
  1179                           ;mcc_generated_files/system/src/system.c: 46:     INTERRUPT_Initialize();
  1180   002104  EC7B  F00F         	call	_INTERRUPT_Initialize	;wreg free
  1181   002108                     
  1182                           ;mcc_generated_files/system/src/system.c: 47:     BL_Initialize();
  1183   002108  EC40  F011         	call	_BL_Initialize	;wreg free
  1184   00210C  0012               	return		;funcret
  1185   00210E                     __end_of_SYSTEM_Initialize:
  1186                           	callstack 0
  1187                           
  1188 ;; *************** function _PIN_MANAGER_Initialize *****************
  1189 ;; Defined at:
  1190 ;;		line 38 in file "mcc_generated_files/system/src/pins.c"
  1191 ;; Parameters:    Size  Location     Type
  1192 ;;		None
  1193 ;; Auto vars:     Size  Location     Type
  1194 ;;		None
  1195 ;; Return value:  Size  Location     Type
  1196 ;;                  1    wreg      void 
  1197 ;; Registers used:
  1198 ;;		wreg, status,2
  1199 ;; Tracked objects:
  1200 ;;		On entry : 0/0
  1201 ;;		On exit  : 0/0
  1202 ;;		Unchanged: 0/0
  1203 ;; Data sizes:     COMRAM   BANK0   BANK1   BANK2   BANK3   BANK4   BANK5
  1204 ;;      Params:         0       0       0       0       0       0       0
  1205 ;;      Locals:         0       0       0       0       0       0       0
  1206 ;;      Temps:          0       0       0       0       0       0       0
  1207 ;;      Totals:         0       0       0       0       0       0       0
  1208 ;;Total ram usage:        0 bytes
  1209 ;; Hardware stack levels used: 1
  1210 ;; This function calls:
  1211 ;;		Nothing
  1212 ;; This function is called by:
  1213 ;;		_SYSTEM_Initialize
  1214 ;; This function uses a non-reentrant model
  1215 ;;
  1216                           
  1217                           	psect	text2
  1218   001D32                     __ptext2:
  1219                           	callstack 0
  1220   001D32                     _PIN_MANAGER_Initialize:
  1221                           	callstack 29
  1222   001D32                     
  1223                           ;mcc_generated_files/system/src/pins.c: 43:     LATA = 0x2;
  1224   001D32  0E02               	movlw	2
  1225   001D34  6E89               	movwf	137,c	;volatile
  1226                           
  1227                           ;mcc_generated_files/system/src/pins.c: 44:     LATB = 0x0;
  1228   001D36  0E00               	movlw	0
  1229   001D38  6E8A               	movwf	138,c	;volatile
  1230                           
  1231                           ;mcc_generated_files/system/src/pins.c: 45:     LATC = 0x0;
  1232   001D3A  0E00               	movlw	0
  1233   001D3C  6E8B               	movwf	139,c	;volatile
  1234                           
  1235                           ;mcc_generated_files/system/src/pins.c: 46:     LATD = 0x0;
  1236   001D3E  0E00               	movlw	0
  1237   001D40  6E8C               	movwf	140,c	;volatile
  1238                           
  1239                           ;mcc_generated_files/system/src/pins.c: 47:     LATE = 0x0;
  1240   001D42  0E00               	movlw	0
  1241   001D44  6E8D               	movwf	141,c	;volatile
  1242                           
  1243                           ;mcc_generated_files/system/src/pins.c: 52:     TRISA = 0xFD;
  1244   001D46  0EFD               	movlw	253
  1245   001D48  6E92               	movwf	146,c	;volatile
  1246   001D4A                     
  1247                           ;mcc_generated_files/system/src/pins.c: 53:     TRISB = 0xFF;
  1248   001D4A  6893               	setf	147,c	;volatile
  1249                           
  1250                           ;mcc_generated_files/system/src/pins.c: 54:     TRISC = 0xBF;
  1251   001D4C  0EBF               	movlw	191
  1252   001D4E  6E94               	movwf	148,c	;volatile
  1253                           
  1254                           ;mcc_generated_files/system/src/pins.c: 55:     TRISD = 0xBF;
  1255   001D50  0EBF               	movlw	191
  1256   001D52  6E95               	movwf	149,c	;volatile
  1257                           
  1258                           ;mcc_generated_files/system/src/pins.c: 56:     TRISE = 0x87;
  1259   001D54  0E87               	movlw	135
  1260   001D56  6E96               	movwf	150,c	;volatile
  1261                           
  1262                           ;mcc_generated_files/system/src/pins.c: 61:     ANSELA = 0x2C;
  1263   001D58  0E2C               	movlw	44
  1264   001D5A  010F               	movlb	15	; () banked
  1265   001D5C  6F38               	movwf	56,b	;volatile
  1266                           
  1267                           ;mcc_generated_files/system/src/pins.c: 62:     ANSELB = 0x3F;
  1268   001D5E  0E3F               	movlw	63
  1269   001D60  6F39               	movwf	57,b	;volatile
  1270                           
  1271                           ;mcc_generated_files/system/src/pins.c: 63:     ANSELC = 0x3C;
  1272   001D62  0E3C               	movlw	60
  1273   001D64  6F3A               	movwf	58,b	;volatile
  1274                           
  1275                           ;mcc_generated_files/system/src/pins.c: 64:     ANSELD = 0x7F;
  1276   001D66  0E7F               	movlw	127
  1277   001D68  6F3B               	movwf	59,b	;volatile
  1278                           
  1279                           ;mcc_generated_files/system/src/pins.c: 65:     ANSELE = 0x7;
  1280   001D6A  0E07               	movlw	7
  1281   001D6C  6F3C               	movwf	60,b	;volatile
  1282   001D6E                     
  1283                           ; BSR set to: 15
  1284                           ;mcc_generated_files/system/src/pins.c: 70:     WPUB = 0xFF;
  1285   001D6E  6861               	setf	97,c	;volatile
  1286                           
  1287                           ;mcc_generated_files/system/src/pins.c: 94:     IOCB = 0xF0;
  1288   001D70  0EF0               	movlw	240
  1289   001D72  6E62               	movwf	98,c	;volatile
  1290   001D74                     
  1291                           ; BSR set to: 15
  1292                           ;mcc_generated_files/system/src/pins.c: 98:     INTCONbits.RBIE = 1;
  1293   001D74  86F2               	bsf	242,3,c	;volatile
  1294   001D76                     
  1295                           ; BSR set to: 15
  1296   001D76  0012               	return		;funcret
  1297   001D78                     __end_of_PIN_MANAGER_Initialize:
  1298                           	callstack 0
  1299                           
  1300 ;; *************** function _NVM_Initialize *****************
  1301 ;; Defined at:
  1302 ;;		line 42 in file "mcc_generated_files/nvm/src/nvm.c"
  1303 ;; Parameters:    Size  Location     Type
  1304 ;;		None
  1305 ;; Auto vars:     Size  Location     Type
  1306 ;;		None
  1307 ;; Return value:  Size  Location     Type
  1308 ;;                  1    wreg      void 
  1309 ;; Registers used:
  1310 ;;		cstack
  1311 ;; Tracked objects:
  1312 ;;		On entry : 0/0
  1313 ;;		On exit  : 0/0
  1314 ;;		Unchanged: 0/0
  1315 ;; Data sizes:     COMRAM   BANK0   BANK1   BANK2   BANK3   BANK4   BANK5
  1316 ;;      Params:         0       0       0       0       0       0       0
  1317 ;;      Locals:         0       0       0       0       0       0       0
  1318 ;;      Temps:          0       0       0       0       0       0       0
  1319 ;;      Totals:         0       0       0       0       0       0       0
  1320 ;;Total ram usage:        0 bytes
  1321 ;; Hardware stack levels used: 1
  1322 ;; Hardware stack levels required when called: 1
  1323 ;; This function calls:
  1324 ;;		_NVM_StatusClear
  1325 ;; This function is called by:
  1326 ;;		_SYSTEM_Initialize
  1327 ;; This function uses a non-reentrant model
  1328 ;;
  1329                           
  1330                           	psect	text3
  1331   0022EC                     __ptext3:
  1332                           	callstack 0
  1333   0022EC                     _NVM_Initialize:
  1334                           	callstack 28
  1335   0022EC                     
  1336                           ;mcc_generated_files/nvm/src/nvm.c: 44:     NVM_StatusClear();
  1337   0022EC  EC7F  F011         	call	_NVM_StatusClear	;wreg free
  1338   0022F0  0012               	return		;funcret
  1339   0022F2                     __end_of_NVM_Initialize:
  1340                           	callstack 0
  1341                           
  1342 ;; *************** function _INTERRUPT_Initialize *****************
  1343 ;; Defined at:
  1344 ;;		line 42 in file "mcc_generated_files/system/src/interrupt.c"
  1345 ;; Parameters:    Size  Location     Type
  1346 ;;		None
  1347 ;; Auto vars:     Size  Location     Type
  1348 ;;		None
  1349 ;; Return value:  Size  Location     Type
  1350 ;;                  1    wreg      void 
  1351 ;; Registers used:
  1352 ;;		wreg, status,2, status,0, cstack
  1353 ;; Tracked objects:
  1354 ;;		On entry : 0/0
  1355 ;;		On exit  : 0/0
  1356 ;;		Unchanged: 0/0
  1357 ;; Data sizes:     COMRAM   BANK0   BANK1   BANK2   BANK3   BANK4   BANK5
  1358 ;;      Params:         0       0       0       0       0       0       0
  1359 ;;      Locals:         0       0       0       0       0       0       0
  1360 ;;      Temps:          0       0       0       0       0       0       0
  1361 ;;      Totals:         0       0       0       0       0       0       0
  1362 ;;Total ram usage:        0 bytes
  1363 ;; Hardware stack levels used: 1
  1364 ;; Hardware stack levels required when called: 1
  1365 ;; This function calls:
  1366 ;;		_INT0_SetInterruptHandler
  1367 ;;		_INT1_SetInterruptHandler
  1368 ;;		_INT2_SetInterruptHandler
  1369 ;; This function is called by:
  1370 ;;		_SYSTEM_Initialize
  1371 ;; This function uses a non-reentrant model
  1372 ;;
  1373                           
  1374                           	psect	text4
  1375   001EF6                     __ptext4:
  1376                           	callstack 0
  1377   001EF6                     _INTERRUPT_Initialize:
  1378                           	callstack 28
  1379   001EF6                     
  1380                           ;mcc_generated_files/system/src/interrupt.c: 45:     RCONbits.IPEN = 0;
  1381   001EF6  9ED0               	bcf	208,7,c	;volatile
  1382                           
  1383                           ;mcc_generated_files/system/src/interrupt.c: 49:     (INTCONbits.INT0IF = 0);
  1384   001EF8  92F2               	bcf	242,1,c	;volatile
  1385                           
  1386                           ;mcc_generated_files/system/src/interrupt.c: 50:     (INTCON2bits.INTEDG0 = 1);
  1387   001EFA  8CF1               	bsf	241,6,c	;volatile
  1388   001EFC                     
  1389                           ;mcc_generated_files/system/src/interrupt.c: 52:     INT0_SetInterruptHandler(INT0_Defau
      +                          ltInterruptHandler);
  1390   001EFC  0E00               	movlw	0
  1391   001EFE  6E01               	movwf	INT0_SetInterruptHandler@InterruptHandler^0,c
  1392   001F00  0E00               	movlw	0
  1393   001F02  6E02               	movwf	(INT0_SetInterruptHandler@InterruptHandler+1)^0,c
  1394   001F04  EC50  F011         	call	_INT0_SetInterruptHandler	;wreg free
  1395   001F08                     
  1396                           ;mcc_generated_files/system/src/interrupt.c: 57:     (INTCON3bits.INT1IF = 0);
  1397   001F08  90F0               	bcf	240,0,c	;volatile
  1398   001F0A                     
  1399                           ;mcc_generated_files/system/src/interrupt.c: 58:     (INTCON2bits.INTEDG1 = 1);
  1400   001F0A  8AF1               	bsf	241,5,c	;volatile
  1401                           
  1402                           ;mcc_generated_files/system/src/interrupt.c: 60:     INT1_SetInterruptHandler(INT1_Defau
      +                          ltInterruptHandler);
  1403   001F0C  0E00               	movlw	0
  1404   001F0E  6E01               	movwf	INT1_SetInterruptHandler@InterruptHandler^0,c
  1405   001F10  0E00               	movlw	0
  1406   001F12  6E02               	movwf	(INT1_SetInterruptHandler@InterruptHandler+1)^0,c
  1407   001F14  EC4B  F011         	call	_INT1_SetInterruptHandler	;wreg free
  1408   001F18                     
  1409                           ;mcc_generated_files/system/src/interrupt.c: 65:     (INTCON3bits.INT2IF = 0);
  1410   001F18  92F0               	bcf	240,1,c	;volatile
  1411   001F1A                     
  1412                           ;mcc_generated_files/system/src/interrupt.c: 66:     (INTCON2bits.INTEDG2 = 1);
  1413   001F1A  88F1               	bsf	241,4,c	;volatile
  1414                           
  1415                           ;mcc_generated_files/system/src/interrupt.c: 68:     INT2_SetInterruptHandler(INT2_Defau
      +                          ltInterruptHandler);
  1416   001F1C  0E00               	movlw	0
  1417   001F1E  6E01               	movwf	INT2_SetInterruptHandler@InterruptHandler^0,c
  1418   001F20  0E00               	movlw	0
  1419   001F22  6E02               	movwf	(INT2_SetInterruptHandler@InterruptHandler+1)^0,c
  1420   001F24  EC46  F011         	call	_INT2_SetInterruptHandler	;wreg free
  1421   001F28  0012               	return		;funcret
  1422   001F2A                     __end_of_INTERRUPT_Initialize:
  1423                           	callstack 0
  1424                           
  1425 ;; *************** function _INT2_SetInterruptHandler *****************
  1426 ;; Defined at:
  1427 ;;		line 144 in file "mcc_generated_files/system/src/interrupt.c"
  1428 ;; Parameters:    Size  Location     Type
  1429 ;;  InterruptHan    2    0[COMRAM] PTR FTN()void 
  1430 ;;		 -> INT2_DefaultInterruptHandler(1), 
  1431 ;; Auto vars:     Size  Location     Type
  1432 ;;		None
  1433 ;; Return value:  Size  Location     Type
  1434 ;;                  1    wreg      void 
  1435 ;; Registers used:
  1436 ;;		wreg, status,2, status,0
  1437 ;; Tracked objects:
  1438 ;;		On entry : 0/0
  1439 ;;		On exit  : 0/0
  1440 ;;		Unchanged: 0/0
  1441 ;; Data sizes:     COMRAM   BANK0   BANK1   BANK2   BANK3   BANK4   BANK5
  1442 ;;      Params:         2       0       0       0       0       0       0
  1443 ;;      Locals:         0       0       0       0       0       0       0
  1444 ;;      Temps:          0       0       0       0       0       0       0
  1445 ;;      Totals:         2       0       0       0       0       0       0
  1446 ;;Total ram usage:        2 bytes
  1447 ;; Hardware stack levels used: 1
  1448 ;; This function calls:
  1449 ;;		Nothing
  1450 ;; This function is called by:
  1451 ;;		_INTERRUPT_Initialize
  1452 ;; This function uses a non-reentrant model
  1453 ;;
  1454                           
  1455                           	psect	text5
  1456   00228C                     __ptext5:
  1457                           	callstack 0
  1458   00228C                     _INT2_SetInterruptHandler:
  1459                           	callstack 28
  1460   00228C                     
  1461                           ;mcc_generated_files/system/src/interrupt.c: 145:     INT2_InterruptHandler = InterruptH
      +                          andler;
  1462   00228C  C001  F075         	movff	INT2_SetInterruptHandler@InterruptHandler,_INT2_InterruptHandler
  1463   002290  C002  F076         	movff	INT2_SetInterruptHandler@InterruptHandler+1,_INT2_InterruptHandler+1
  1464   002294  0012               	return		;funcret
  1465   002296                     __end_of_INT2_SetInterruptHandler:
  1466                           	callstack 0
  1467                           
  1468 ;; *************** function _INT1_SetInterruptHandler *****************
  1469 ;; Defined at:
  1470 ;;		line 118 in file "mcc_generated_files/system/src/interrupt.c"
  1471 ;; Parameters:    Size  Location     Type
  1472 ;;  InterruptHan    2    0[COMRAM] PTR FTN()void 
  1473 ;;		 -> INT1_DefaultInterruptHandler(1), 
  1474 ;; Auto vars:     Size  Location     Type
  1475 ;;		None
  1476 ;; Return value:  Size  Location     Type
  1477 ;;                  1    wreg      void 
  1478 ;; Registers used:
  1479 ;;		wreg, status,2, status,0
  1480 ;; Tracked objects:
  1481 ;;		On entry : 0/0
  1482 ;;		On exit  : 0/0
  1483 ;;		Unchanged: 0/0
  1484 ;; Data sizes:     COMRAM   BANK0   BANK1   BANK2   BANK3   BANK4   BANK5
  1485 ;;      Params:         2       0       0       0       0       0       0
  1486 ;;      Locals:         0       0       0       0       0       0       0
  1487 ;;      Temps:          0       0       0       0       0       0       0
  1488 ;;      Totals:         2       0       0       0       0       0       0
  1489 ;;Total ram usage:        2 bytes
  1490 ;; Hardware stack levels used: 1
  1491 ;; This function calls:
  1492 ;;		Nothing
  1493 ;; This function is called by:
  1494 ;;		_INTERRUPT_Initialize
  1495 ;; This function uses a non-reentrant model
  1496 ;;
  1497                           
  1498                           	psect	text6
  1499   002296                     __ptext6:
  1500                           	callstack 0
  1501   002296                     _INT1_SetInterruptHandler:
  1502                           	callstack 28
  1503   002296                     
  1504                           ;mcc_generated_files/system/src/interrupt.c: 119:     INT1_InterruptHandler = InterruptH
      +                          andler;
  1505   002296  C001  F077         	movff	INT1_SetInterruptHandler@InterruptHandler,_INT1_InterruptHandler
  1506   00229A  C002  F078         	movff	INT1_SetInterruptHandler@InterruptHandler+1,_INT1_InterruptHandler+1
  1507   00229E  0012               	return		;funcret
  1508   0022A0                     __end_of_INT1_SetInterruptHandler:
  1509                           	callstack 0
  1510                           
  1511 ;; *************** function _INT0_SetInterruptHandler *****************
  1512 ;; Defined at:
  1513 ;;		line 92 in file "mcc_generated_files/system/src/interrupt.c"
  1514 ;; Parameters:    Size  Location     Type
  1515 ;;  InterruptHan    2    0[COMRAM] PTR FTN()void 
  1516 ;;		 -> INT0_DefaultInterruptHandler(1), 
  1517 ;; Auto vars:     Size  Location     Type
  1518 ;;		None
  1519 ;; Return value:  Size  Location     Type
  1520 ;;                  1    wreg      void 
  1521 ;; Registers used:
  1522 ;;		wreg, status,2, status,0
  1523 ;; Tracked objects:
  1524 ;;		On entry : 0/0
  1525 ;;		On exit  : 0/0
  1526 ;;		Unchanged: 0/0
  1527 ;; Data sizes:     COMRAM   BANK0   BANK1   BANK2   BANK3   BANK4   BANK5
  1528 ;;      Params:         2       0       0       0       0       0       0
  1529 ;;      Locals:         0       0       0       0       0       0       0
  1530 ;;      Temps:          0       0       0       0       0       0       0
  1531 ;;      Totals:         2       0       0       0       0       0       0
  1532 ;;Total ram usage:        2 bytes
  1533 ;; Hardware stack levels used: 1
  1534 ;; This function calls:
  1535 ;;		Nothing
  1536 ;; This function is called by:
  1537 ;;		_INTERRUPT_Initialize
  1538 ;; This function uses a non-reentrant model
  1539 ;;
  1540                           
  1541                           	psect	text7
  1542   0022A0                     __ptext7:
  1543                           	callstack 0
  1544   0022A0                     _INT0_SetInterruptHandler:
  1545                           	callstack 28
  1546   0022A0                     
  1547                           ;mcc_generated_files/system/src/interrupt.c: 93:     INT0_InterruptHandler = InterruptHa
      +                          ndler;
  1548   0022A0  C001  F079         	movff	INT0_SetInterruptHandler@InterruptHandler,_INT0_InterruptHandler
  1549   0022A4  C002  F07A         	movff	INT0_SetInterruptHandler@InterruptHandler+1,_INT0_InterruptHandler+1
  1550   0022A8  0012               	return		;funcret
  1551   0022AA                     __end_of_INT0_SetInterruptHandler:
  1552                           	callstack 0
  1553                           
  1554 ;; *************** function _CLOCK_Initialize *****************
  1555 ;; Defined at:
  1556 ;;		line 37 in file "mcc_generated_files/system/src/clock.c"
  1557 ;; Parameters:    Size  Location     Type
  1558 ;;		None
  1559 ;; Auto vars:     Size  Location     Type
  1560 ;;		None
  1561 ;; Return value:  Size  Location     Type
  1562 ;;                  1    wreg      void 
  1563 ;; Registers used:
  1564 ;;		wreg, status,2
  1565 ;; Tracked objects:
  1566 ;;		On entry : 0/0
  1567 ;;		On exit  : 0/0
  1568 ;;		Unchanged: 0/0
  1569 ;; Data sizes:     COMRAM   BANK0   BANK1   BANK2   BANK3   BANK4   BANK5
  1570 ;;      Params:         0       0       0       0       0       0       0
  1571 ;;      Locals:         0       0       0       0       0       0       0
  1572 ;;      Temps:          0       0       0       0       0       0       0
  1573 ;;      Totals:         0       0       0       0       0       0       0
  1574 ;;Total ram usage:        0 bytes
  1575 ;; Hardware stack levels used: 1
  1576 ;; This function calls:
  1577 ;;		Nothing
  1578 ;; This function is called by:
  1579 ;;		_SYSTEM_Initialize
  1580 ;; This function uses a non-reentrant model
  1581 ;;
  1582                           
  1583                           	psect	text8
  1584   002264                     __ptext8:
  1585                           	callstack 0
  1586   002264                     _CLOCK_Initialize:
  1587                           	callstack 29
  1588   002264                     
  1589                           ;mcc_generated_files/system/src/clock.c: 41:     OSCCON = 0x70;
  1590   002264  0E70               	movlw	112
  1591   002266  6ED3               	movwf	211,c	;volatile
  1592                           
  1593                           ;mcc_generated_files/system/src/clock.c: 43:     OSCCON2 = 0x4;
  1594   002268  0E04               	movlw	4
  1595   00226A  6ED2               	movwf	210,c	;volatile
  1596                           
  1597                           ;mcc_generated_files/system/src/clock.c: 45:     OSCTUNE = 0x0;
  1598   00226C  0E00               	movlw	0
  1599   00226E  6E9B               	movwf	155,c	;volatile
  1600   002270  0012               	return		;funcret
  1601   002272                     __end_of_CLOCK_Initialize:
  1602                           	callstack 0
  1603                           
  1604 ;; *************** function _BL_ExampleInitialize *****************
  1605 ;; Defined at:
  1606 ;;		line 108 in file "mcc_generated_files/bootloader/example/bl_example.c"
  1607 ;; Parameters:    Size  Location     Type
  1608 ;;		None
  1609 ;; Auto vars:     Size  Location     Type
  1610 ;;  initStatus      1    4[COMRAM] enum E36
  1611 ;; Return value:  Size  Location     Type
  1612 ;;                  1    wreg      enum E6241
  1613 ;; Registers used:
  1614 ;;		wreg, status,2, status,0, cstack
  1615 ;; Tracked objects:
  1616 ;;		On entry : 0/0
  1617 ;;		On exit  : 0/0
  1618 ;;		Unchanged: 0/0
  1619 ;; Data sizes:     COMRAM   BANK0   BANK1   BANK2   BANK3   BANK4   BANK5
  1620 ;;      Params:         0       0       0       0       0       0       0
  1621 ;;      Locals:         1       0       0       0       0       0       0
  1622 ;;      Temps:          0       0       0       0       0       0       0
  1623 ;;      Totals:         1       0       0       0       0       0       0
  1624 ;;Total ram usage:        1 bytes
  1625 ;; Hardware stack levels used: 1
  1626 ;; Hardware stack levels required when called: 2
  1627 ;; This function calls:
  1628 ;;		_FTP_Initialize
  1629 ;;		_ForcedEntryCheck
  1630 ;; This function is called by:
  1631 ;;		_main
  1632 ;; This function uses a non-reentrant model
  1633 ;;
  1634                           
  1635                           	psect	text9
  1636   001DBE                     __ptext9:
  1637                           	callstack 0
  1638   001DBE                     _BL_ExampleInitialize:
  1639                           	callstack 28
  1640   001DBE                     
  1641                           ;mcc_generated_files/bootloader/example/bl_example.c: 111:     bl_result_t initStatus = 
      +                          FTP_Initialize();
  1642   001DBE  ECE0  F00F         	call	_FTP_Initialize	;wreg free
  1643   001DC2  6E05               	movwf	BL_ExampleInitialize@initStatus^0,c
  1644   001DC4                     
  1645                           ;mcc_generated_files/bootloader/example/bl_example.c: 113:     if(initStatus == BL_PASS)
  1646   001DC4  0E81               	movlw	129
  1647   001DC6  1805               	xorwf	BL_ExampleInitialize@initStatus^0,w,c
  1648   001DC8  A4D8               	btfss	status,2,c
  1649   001DCA  EFE9  F00E         	goto	u3011
  1650   001DCE  EFEB  F00E         	goto	u3010
  1651   001DD2                     u3011:
  1652   001DD2  EFFD  F00E         	goto	l4273
  1653   001DD6                     u3010:
  1654   001DD6                     
  1655                           ;mcc_generated_files/bootloader/example/bl_example.c: 114:     {;mcc_generated_files/boo
      +                          tloader/example/bl_example.c: 117:         BootState = BOOTLOADER;
  1656   001DD6  0E00               	movlw	0
  1657   001DD8  0100               	movlb	0	; () banked
  1658   001DDA  6F8B               	movwf	_BootState& (0+255),b
  1659   001DDC                     
  1660                           ; BSR set to: 0
  1661                           ;mcc_generated_files/bootloader/example/bl_example.c: 123:         if (ForcedEntryCheck(
      +                          ) == 0)
  1662   001DDC  ECAF  F00F         	call	_ForcedEntryCheck	;wreg free
  1663   001DE0  0900               	iorlw	0
  1664   001DE2  A4D8               	btfss	status,2,c
  1665   001DE4  EFF6  F00E         	goto	u3021
  1666   001DE8  EFF8  F00E         	goto	u3020
  1667   001DEC                     u3021:
  1668   001DEC  EF00  F00F         	goto	l33
  1669   001DF0                     u3020:
  1670   001DF0                     
  1671                           ;mcc_generated_files/bootloader/example/bl_example.c: 124:         {;mcc_generated_files
      +                          /bootloader/example/bl_example.c: 126:             BootState = APPLICATION;
  1672   001DF0  0E01               	movlw	1
  1673   001DF2  0100               	movlb	0	; () banked
  1674   001DF4  6F8B               	movwf	_BootState& (0+255),b
  1675   001DF6  EF00  F00F         	goto	l33
  1676   001DFA                     l4273:
  1677                           
  1678                           ;mcc_generated_files/bootloader/example/bl_example.c: 130:     {;mcc_generated_files/boo
      +                          tloader/example/bl_example.c: 131:         BootState = ERROR_STATE;
  1679   001DFA  0E02               	movlw	2
  1680   001DFC  0100               	movlb	0	; () banked
  1681   001DFE  6F8B               	movwf	_BootState& (0+255),b
  1682   001E00                     l33:
  1683   001E00  0012               	return		;funcret
  1684   001E02                     __end_of_BL_ExampleInitialize:
  1685                           	callstack 0
  1686                           
  1687 ;; *************** function _ForcedEntryCheck *****************
  1688 ;; Defined at:
  1689 ;;		line 136 in file "mcc_generated_files/bootloader/example/bl_example.c"
  1690 ;; Parameters:    Size  Location     Type
  1691 ;;		None
  1692 ;; Auto vars:     Size  Location     Type
  1693 ;;  i               1    1[COMRAM] unsigned char 
  1694 ;;  result          1    0[COMRAM] _Bool 
  1695 ;; Return value:  Size  Location     Type
  1696 ;;                  1    wreg      _Bool 
  1697 ;; Registers used:
  1698 ;;		wreg, status,2, status,0
  1699 ;; Tracked objects:
  1700 ;;		On entry : 0/0
  1701 ;;		On exit  : 0/0
  1702 ;;		Unchanged: 0/0
  1703 ;; Data sizes:     COMRAM   BANK0   BANK1   BANK2   BANK3   BANK4   BANK5
  1704 ;;      Params:         0       0       0       0       0       0       0
  1705 ;;      Locals:         2       0       0       0       0       0       0
  1706 ;;      Temps:          0       0       0       0       0       0       0
  1707 ;;      Totals:         2       0       0       0       0       0       0
  1708 ;;Total ram usage:        2 bytes
  1709 ;; Hardware stack levels used: 1
  1710 ;; This function calls:
  1711 ;;		Nothing
  1712 ;; This function is called by:
  1713 ;;		_BL_ExampleInitialize
  1714 ;; This function uses a non-reentrant model
  1715 ;;
  1716                           
  1717                           	psect	text10
  1718   001F5E                     __ptext10:
  1719                           	callstack 0
  1720   001F5E                     _ForcedEntryCheck:
  1721                           	callstack 29
  1722   001F5E                     
  1723                           ;mcc_generated_files/bootloader/example/bl_example.c: 138:     _Bool result = 0;
  1724   001F5E  0E00               	movlw	0
  1725   001F60  6E01               	movwf	ForcedEntryCheck@result^0,c
  1726                           
  1727                           ;mcc_generated_files/bootloader/example/bl_example.c: 140:     for (uint8_t i = 0U; i !=
      +                           0xFFU; i++)
  1728   001F62  0E00               	movlw	0
  1729   001F64  6E02               	movwf	ForcedEntryCheck@i^0,c
  1730   001F66                     l36:
  1731   001F66  0000               	nop		;# 
  1732   001F68                     
  1733                           ;mcc_generated_files/bootloader/example/bl_example.c: 143:     }
  1734   001F68  2A02               	incf	ForcedEntryCheck@i^0,f,c
  1735   001F6A  2802               	incf	ForcedEntryCheck@i^0,w,c
  1736   001F6C  A4D8               	btfss	status,2,c
  1737   001F6E  EFBB  F00F         	goto	u2981
  1738   001F72  EFBD  F00F         	goto	u2980
  1739   001F76                     u2981:
  1740   001F76  EFB3  F00F         	goto	l36
  1741   001F7A                     u2980:
  1742   001F7A                     
  1743                           ;mcc_generated_files/bootloader/example/bl_example.c: 146:     if (PORTAbits.RA0 == (0))
  1744   001F7A  B080               	btfsc	128,0,c	;volatile
  1745   001F7C  EFC2  F00F         	goto	u2991
  1746   001F80  EFC4  F00F         	goto	u2990
  1747   001F84                     u2991:
  1748   001F84  EFC6  F00F         	goto	l38
  1749   001F88                     u2990:
  1750   001F88                     
  1751                           ;mcc_generated_files/bootloader/example/bl_example.c: 147:     {;mcc_generated_files/boo
      +                          tloader/example/bl_example.c: 148:         result = 1;
  1752   001F88  0E01               	movlw	1
  1753   001F8A  6E01               	movwf	ForcedEntryCheck@result^0,c
  1754   001F8C                     l38:
  1755                           
  1756                           ;mcc_generated_files/bootloader/example/bl_example.c: 150:     return result;
  1757   001F8C  5001               	movf	ForcedEntryCheck@result^0,w,c
  1758   001F8E  0012               	return		;funcret
  1759   001F90                     __end_of_ForcedEntryCheck:
  1760                           	callstack 0
  1761                           
  1762 ;; *************** function _FTP_Initialize *****************
  1763 ;; Defined at:
  1764 ;;		line 617 in file "mcc_generated_files/bootloader/library/core/ftp/bl_ftp.c"
  1765 ;; Parameters:    Size  Location     Type
  1766 ;;		None
  1767 ;; Auto vars:     Size  Location     Type
  1768 ;;  comInitStatu    1    3[COMRAM] enum E6779
  1769 ;; Return value:  Size  Location     Type
  1770 ;;                  1    wreg      enum E36
  1771 ;; Registers used:
  1772 ;;		wreg, status,2, status,0, cstack
  1773 ;; Tracked objects:
  1774 ;;		On entry : 0/0
  1775 ;;		On exit  : 0/0
  1776 ;;		Unchanged: 0/0
  1777 ;; Data sizes:     COMRAM   BANK0   BANK1   BANK2   BANK3   BANK4   BANK5
  1778 ;;      Params:         0       0       0       0       0       0       0
  1779 ;;      Locals:         1       0       0       0       0       0       0
  1780 ;;      Temps:          0       0       0       0       0       0       0
  1781 ;;      Totals:         1       0       0       0       0       0       0
  1782 ;;Total ram usage:        1 bytes
  1783 ;; Hardware stack levels used: 1
  1784 ;; Hardware stack levels required when called: 1
  1785 ;; This function calls:
  1786 ;;		_COM_Initialize
  1787 ;; This function is called by:
  1788 ;;		_BL_ExampleInitialize
  1789 ;; This function uses a non-reentrant model
  1790 ;;
  1791                           
  1792                           	psect	text11
  1793   001FC0                     __ptext11:
  1794                           	callstack 0
  1795   001FC0                     _FTP_Initialize:
  1796                           	callstack 28
  1797   001FC0                     
  1798                           ;mcc_generated_files/bootloader/library/core/ftp/bl_ftp.c: 620:     com_adapter_result_t
      +                           comInitStatus = COM_Initialize(((((uint16_t)sizeof (bl_block_header_t)) + ((uint16_t)si
      +                          zeof (bl_command_header_t)) + ((uint16_t) (64U))) + (1U) + ((1U))));
  1799   001FC0  0E00               	movlw	0
  1800   001FC2  6E02               	movwf	(COM_Initialize@maximumBufferLength+1)^0,c
  1801   001FC4  0E49               	movlw	73
  1802   001FC6  6E01               	movwf	COM_Initialize@maximumBufferLength^0,c
  1803   001FC8  ECF5  F00F         	call	_COM_Initialize	;wreg free
  1804   001FCC  6E04               	movwf	FTP_Initialize@comInitStatus^0,c
  1805   001FCE                     
  1806                           ;mcc_generated_files/bootloader/library/core/ftp/bl_ftp.c: 621:     return (comInitStatu
      +                          s == COM_PASS) ? BL_PASS: BL_FAIL;
  1807   001FCE  0EE7               	movlw	231
  1808   001FD0  1804               	xorwf	FTP_Initialize@comInitStatus^0,w,c
  1809   001FD2  B4D8               	btfsc	status,2,c
  1810   001FD4  EFEE  F00F         	goto	u2971
  1811   001FD8  EFF0  F00F         	goto	u2970
  1812   001FDC                     u2971:
  1813   001FDC  EFF3  F00F         	goto	l4203
  1814   001FE0                     u2970:
  1815   001FE0  0EC3               	movlw	195
  1816   001FE2  EFF4  F00F         	goto	l281
  1817   001FE6                     l4203:
  1818   001FE6  0E81               	movlw	129
  1819   001FE8                     l281:
  1820   001FE8  0012               	return		;funcret
  1821   001FEA                     __end_of_FTP_Initialize:
  1822                           	callstack 0
  1823                           
  1824 ;; *************** function _COM_Initialize *****************
  1825 ;; Defined at:
  1826 ;;		line 349 in file "mcc_generated_files/bootloader/library/com_adapter/com_adapter.c"
  1827 ;; Parameters:    Size  Location     Type
  1828 ;;  maximumBuffe    2    0[COMRAM] unsigned short 
  1829 ;; Auto vars:     Size  Location     Type
  1830 ;;  result          1    2[COMRAM] enum E6610
  1831 ;; Return value:  Size  Location     Type
  1832 ;;                  1    wreg      enum E6610
  1833 ;; Registers used:
  1834 ;;		wreg, status,2, status,0
  1835 ;; Tracked objects:
  1836 ;;		On entry : 0/0
  1837 ;;		On exit  : 0/0
  1838 ;;		Unchanged: 0/0
  1839 ;; Data sizes:     COMRAM   BANK0   BANK1   BANK2   BANK3   BANK4   BANK5
  1840 ;;      Params:         2       0       0       0       0       0       0
  1841 ;;      Locals:         1       0       0       0       0       0       0
  1842 ;;      Temps:          0       0       0       0       0       0       0
  1843 ;;      Totals:         3       0       0       0       0       0       0
  1844 ;;Total ram usage:        3 bytes
  1845 ;; Hardware stack levels used: 1
  1846 ;; This function calls:
  1847 ;;		Nothing
  1848 ;; This function is called by:
  1849 ;;		_FTP_Initialize
  1850 ;; This function uses a non-reentrant model
  1851 ;;
  1852                           
  1853                           	psect	text12
  1854   001FEA                     __ptext12:
  1855                           	callstack 0
  1856   001FEA                     _COM_Initialize:
  1857                           	callstack 28
  1858   001FEA                     
  1859                           ;mcc_generated_files/bootloader/library/com_adapter/com_adapter.c: 352:     if(maximumBu
      +                          fferLength != 0U)
  1860   001FEA  5001               	movf	COM_Initialize@maximumBufferLength^0,w,c
  1861   001FEC  1002               	iorwf	(COM_Initialize@maximumBufferLength+1)^0,w,c
  1862   001FEE  B4D8               	btfsc	status,2,c
  1863   001FF0  EFFC  F00F         	goto	u2861
  1864   001FF4  EFFE  F00F         	goto	u2860
  1865   001FF8                     u2861:
  1866   001FF8  EF06  F010         	goto	l4055
  1867   001FFC                     u2860:
  1868   001FFC                     
  1869                           ;mcc_generated_files/bootloader/library/com_adapter/com_adapter.c: 353:     {;mcc_genera
      +                          ted_files/bootloader/library/com_adapter/com_adapter.c: 354:         MaxBufferLength = m
      +                          aximumBufferLength;
  1870   001FFC  C001  F083         	movff	COM_Initialize@maximumBufferLength,_MaxBufferLength
  1871   002000  C002  F084         	movff	COM_Initialize@maximumBufferLength+1,_MaxBufferLength+1
  1872   002004                     
  1873                           ;mcc_generated_files/bootloader/library/com_adapter/com_adapter.c: 355:         result =
      +                           COM_PASS;
  1874   002004  0EE7               	movlw	231
  1875   002006  6E03               	movwf	COM_Initialize@result^0,c
  1876                           
  1877                           ;mcc_generated_files/bootloader/library/com_adapter/com_adapter.c: 356:     }
  1878   002008  EF08  F010         	goto	l133
  1879   00200C                     l4055:
  1880                           
  1881                           ;mcc_generated_files/bootloader/library/com_adapter/com_adapter.c: 358:     {;mcc_genera
      +                          ted_files/bootloader/library/com_adapter/com_adapter.c: 359:         result = COM_INVALI
      +                          D_ARG;
  1882   00200C  0E96               	movlw	150
  1883   00200E  6E03               	movwf	COM_Initialize@result^0,c
  1884   002010                     l133:
  1885                           
  1886                           ;mcc_generated_files/bootloader/library/com_adapter/com_adapter.c: 362:     return resul
      +                          t;
  1887   002010  5003               	movf	COM_Initialize@result^0,w,c
  1888   002012  0012               	return		;funcret
  1889   002014                     __end_of_COM_Initialize:
  1890                           	callstack 0
  1891                           
  1892 ;; *************** function _BL_Example *****************
  1893 ;; Defined at:
  1894 ;;		line 81 in file "mcc_generated_files/bootloader/example/bl_example.c"
  1895 ;; Parameters:    Size  Location     Type
  1896 ;;		None
  1897 ;; Auto vars:     Size  Location     Type
  1898 ;;  result          1    0        enum E36
  1899 ;; Return value:  Size  Location     Type
  1900 ;;                  1    wreg      void 
  1901 ;; Registers used:
  1902 ;;		wreg, fsr0l, fsr0h, fsr1l, fsr1h, fsr2l, fsr2h, status,2, status,0, pcl, pclath, pclatu, tosl, tblptrl, tblptrh, tbl
      +ptru, cstack
  1903 ;; Tracked objects:
  1904 ;;		On entry : 0/0
  1905 ;;		On exit  : 0/0
  1906 ;;		Unchanged: 0/0
  1907 ;; Data sizes:     COMRAM   BANK0   BANK1   BANK2   BANK3   BANK4   BANK5
  1908 ;;      Params:         0       0       0       0       0       0       0
  1909 ;;      Locals:         0       0       0       0       0       0       0
  1910 ;;      Temps:          0       2       0       0       0       0       0
  1911 ;;      Totals:         0       2       0       0       0       0       0
  1912 ;;Total ram usage:        2 bytes
  1913 ;; Hardware stack levels used: 1
  1914 ;; Hardware stack levels required when called: 9
  1915 ;; This function calls:
  1916 ;;		_BL_ApplicationStart
  1917 ;;		_FTP_Task
  1918 ;; This function is called by:
  1919 ;;		_main
  1920 ;; This function uses a non-reentrant model
  1921 ;;
  1922                           
  1923                           	psect	text13
  1924   001D78                     __ptext13:
  1925                           	callstack 0
  1926   001D78                     _BL_Example:
  1927                           	callstack 21
  1928   001D78                     
  1929                           ;mcc_generated_files/bootloader/example/bl_example.c: 85:     bl_result_t result;;mcc_ge
      +                          nerated_files/bootloader/example/bl_example.c: 87:     switch (BootState)
  1930   001D78  EFC8  F00E         	goto	l5493
  1931   001D7C                     l19:
  1932                           
  1933                           ; BSR set to: 0
  1934   001D7C  8289               	bsf	137,1,c	;volatile
  1935   001D7E                     
  1936                           ; BSR set to: 0
  1937                           ;mcc_generated_files/bootloader/example/bl_example.c: 91:         BL_ApplicationStart();
  1938   001D7E  EC39  F011         	call	_BL_ApplicationStart	;wreg free
  1939                           
  1940                           ;mcc_generated_files/bootloader/example/bl_example.c: 92:         break;
  1941   001D82  EFDE  F00E         	goto	l27
  1942   001D86                     l23:
  1943                           
  1944                           ; BSR set to: 0
  1945   001D86  9289               	bcf	137,1,c	;volatile
  1946   001D88                     
  1947                           ; BSR set to: 0
  1948   001D88  EC46  F008         	call	_FTP_Task	;wreg free
  1949                           
  1950                           ;mcc_generated_files/bootloader/example/bl_example.c: 96:         break;
  1951   001D8C  EFDE  F00E         	goto	l27
  1952   001D90                     l5493:
  1953   001D90  0100               	movlb	0	; () banked
  1954   001D92  518B               	movf	_BootState& (0+255),w,b
  1955   001D94  6FE5               	movwf	??_BL_Example& (0+255),b
  1956   001D96  6BE6               	clrf	(??_BL_Example+1)& (0+255),b
  1957                           
  1958                           ; Switch on 2 bytes has been partitioned into a top level switch of size 1, and 1 sub-sw
      +                          itches
  1959                           ; Switch size 1, requested type "simple"
  1960                           ; Number of cases is 1, Range of values is 0 to 0
  1961                           ; switch strategies available:
  1962                           ; Name         Instructions Cycles
  1963                           ; simple_byte            4     3 (average)
  1964                           ;	Chosen strategy is simple_byte
  1965   001D98  51E6               	movf	(??_BL_Example+1)& (0+255),w,b
  1966   001D9A  0A00               	xorlw	0	; case 0
  1967   001D9C  B4D8               	btfsc	status,2,c
  1968   001D9E  EFD3  F00E         	goto	l5687
  1969   001DA2  EFDE  F00E         	goto	l5495
  1970   001DA6                     l5687:
  1971                           
  1972                           ; BSR set to: 0
  1973                           ; Switch size 1, requested type "simple"
  1974                           ; Number of cases is 2, Range of values is 0 to 1
  1975                           ; switch strategies available:
  1976                           ; Name         Instructions Cycles
  1977                           ; simple_byte            7     4 (average)
  1978                           ;	Chosen strategy is simple_byte
  1979   001DA6  51E5               	movf	??_BL_Example& (0+255),w,b
  1980   001DA8  0A00               	xorlw	0	; case 0
  1981   001DAA  B4D8               	btfsc	status,2,c
  1982   001DAC  EFC3  F00E         	goto	l23
  1983   001DB0  0A01               	xorlw	1	; case 1
  1984   001DB2  B4D8               	btfsc	status,2,c
  1985   001DB4  EFBE  F00E         	goto	l19
  1986   001DB8  EFDE  F00E         	goto	l5495
  1987   001DBC                     l5495:
  1988   001DBC                     l27:
  1989   001DBC  0012               	return		;funcret
  1990   001DBE                     __end_of_BL_Example:
  1991                           	callstack 0
  1992                           
  1993 ;; *************** function _FTP_Task *****************
  1994 ;; Defined at:
  1995 ;;		line 300 in file "mcc_generated_files/bootloader/library/core/ftp/bl_ftp.c"
  1996 ;; Parameters:    Size  Location     Type
  1997 ;;		None
  1998 ;; Auto vars:     Size  Location     Type
  1999 ;;  transportCod    1    0[BANK0 ] enum E6824
  2000 ;;  comResult       1    2[BANK0 ] enum E6779
  2001 ;;  processResul    1    1[BANK0 ] enum E6172
  2002 ;; Return value:  Size  Location     Type
  2003 ;;                  1    wreg      enum E36
  2004 ;; Registers used:
  2005 ;;		wreg, fsr0l, fsr0h, fsr1l, fsr1h, fsr2l, fsr2h, status,2, status,0, pcl, pclath, pclatu, tosl, tblptrl, tblptrh, tbl
      +ptru, cstack
  2006 ;; Tracked objects:
  2007 ;;		On entry : 0/0
  2008 ;;		On exit  : 0/0
  2009 ;;		Unchanged: 0/0
  2010 ;; Data sizes:     COMRAM   BANK0   BANK1   BANK2   BANK3   BANK4   BANK5
  2011 ;;      Params:         0       0       0       0       0       0       0
  2012 ;;      Locals:         0       3       0       0       0       0       0
  2013 ;;      Temps:          0       0       0       0       0       0       0
  2014 ;;      Totals:         0       3       0       0       0       0       0
  2015 ;;Total ram usage:        3 bytes
  2016 ;; Hardware stack levels used: 1
  2017 ;; Hardware stack levels required when called: 8
  2018 ;; This function calls:
  2019 ;;		_COM_FrameSet
  2020 ;;		_COM_FrameTransfer
  2021 ;;		_OperationalBlockExecute
  2022 ;;		_ParserDataReset
  2023 ;;		_ResponseSet
  2024 ;;		_TransportFailureCodeGet
  2025 ;;		_printf
  2026 ;; This function is called by:
  2027 ;;		_BL_Example
  2028 ;; This function uses a non-reentrant model
  2029 ;;
  2030                           
  2031                           	psect	text14
  2032   00108C                     __ptext14:
  2033                           	callstack 0
  2034   00108C                     _FTP_Task:
  2035                           	callstack 21
  2036   00108C                     
  2037                           ;mcc_generated_files/bootloader/library/core/ftp/bl_ftp.c: 305:     com_adapter_result_t
      +                           comResult = COM_FAIL;
  2038   00108C  0EC3               	movlw	195
  2039   00108E  0100               	movlb	0	; () banked
  2040   001090  6FE4               	movwf	FTP_Task@comResult& (0+255),b
  2041   001092                     
  2042                           ; BSR set to: 0
  2043                           ;mcc_generated_files/bootloader/library/core/ftp/bl_ftp.c: 308:     comResult = COM_Fram
      +                          eTransfer((uint8_t *)&ftpCommandReceiver.bufferPtr[0], &(ftpCommandReceiver.receiveIndex
      +                          ));
  2044   001092  C0CE  F009         	movff	_ftpCommandReceiver+4,COM_FrameTransfer@receiveBufferPtr
  2045   001096  C0CF  F00A         	movff	_ftpCommandReceiver+5,COM_FrameTransfer@receiveBufferPtr+1
  2046   00109A  0ECA               	movlw	low _ftpCommandReceiver
  2047   00109C  6E0B               	movwf	COM_FrameTransfer@receiveIndexPtr^0,c
  2048   00109E  ECDC  F005         	call	_COM_FrameTransfer	;wreg free
  2049   0010A2  0100               	movlb	0	; () banked
  2050   0010A4  6FE4               	movwf	FTP_Task@comResult& (0+255),b
  2051   0010A6                     
  2052                           ; BSR set to: 0
  2053                           ;mcc_generated_files/bootloader/library/core/ftp/bl_ftp.c: 310:     if (comResult == COM
      +                          _BUFFER_ERROR)
  2054   0010A6  0E69               	movlw	105
  2055   0010A8  19E4               	xorwf	FTP_Task@comResult& (0+255),w,b
  2056   0010AA  A4D8               	btfss	status,2,c
  2057   0010AC  EF5A  F008         	goto	u4511
  2058   0010B0  EF5C  F008         	goto	u4510
  2059   0010B4                     u4511:
  2060   0010B4  EF64  F008         	goto	l5431
  2061   0010B8                     u4510:
  2062   0010B8                     
  2063                           ; BSR set to: 0
  2064                           ;mcc_generated_files/bootloader/library/core/ftp/bl_ftp.c: 311:     {;mcc_generated_file
      +                          s/bootloader/library/core/ftp/bl_ftp.c: 312:         processResult = BL_ERROR_BUFFER_OVE
      +                          RLOAD;
  2065   0010B8  0EBD               	movlw	189
  2066   0010BA  6FE3               	movwf	FTP_Task@processResult& (0+255),b
  2067                           
  2068                           ;mcc_generated_files/bootloader/library/core/ftp/bl_ftp.c: 313:         ftpHelper.resend
      +                          Required = 1;
  2069   0010BC  0E01               	movlw	1
  2070   0010BE  6F64               	movwf	(_ftpHelper+4)& (0+255),b
  2071   0010C0                     
  2072                           ; BSR set to: 0
  2073                           ;mcc_generated_files/bootloader/library/core/ftp/bl_ftp.c: 314:         ParserDataReset(
      +                          );
  2074   0010C0  EC01  F00F         	call	_ParserDataReset	;wreg free
  2075                           
  2076                           ;mcc_generated_files/bootloader/library/core/ftp/bl_ftp.c: 315:     }
  2077   0010C4  EF97  F008         	goto	l196
  2078   0010C8                     l5431:
  2079                           
  2080                           ; BSR set to: 0
  2081   0010C8  0EE7               	movlw	231
  2082   0010CA  19E4               	xorwf	FTP_Task@comResult& (0+255),w,b
  2083   0010CC  A4D8               	btfss	status,2,c
  2084   0010CE  EF6B  F008         	goto	u4521
  2085   0010D2  EF6D  F008         	goto	u4520
  2086   0010D6                     u4521:
  2087   0010D6  EF75  F008         	goto	l5437
  2088   0010DA                     u4520:
  2089   0010DA                     
  2090                           ; BSR set to: 0
  2091                           ;mcc_generated_files/bootloader/library/core/ftp/bl_ftp.c: 317:     {;mcc_generated_file
      +                          s/bootloader/library/core/ftp/bl_ftp.c: 320:         {;mcc_generated_files/bootloader/li
      +                          brary/core/ftp/bl_ftp.c: 323:             processResult = OperationalBlockExecute();
  2092   0010DA  EC9A  F009         	call	_OperationalBlockExecute	;wreg free
  2093   0010DE  0100               	movlb	0	; () banked
  2094   0010E0  6FE3               	movwf	FTP_Task@processResult& (0+255),b
  2095   0010E2                     
  2096                           ; BSR set to: 0
  2097                           ;mcc_generated_files/bootloader/library/core/ftp/bl_ftp.c: 324:             ftpHelper.re
      +                          sponseRequired = 1;
  2098   0010E2  0E01               	movlw	1
  2099   0010E4  6F63               	movwf	(_ftpHelper+3)& (0+255),b
  2100                           
  2101                           ;mcc_generated_files/bootloader/library/core/ftp/bl_ftp.c: 325:         };mcc_generated_
      +                          files/bootloader/library/core/ftp/bl_ftp.c: 333:     }
  2102   0010E6  EF97  F008         	goto	l196
  2103   0010EA                     l5437:
  2104                           
  2105                           ; BSR set to: 0
  2106   0010EA  0E3C               	movlw	60
  2107   0010EC  19E4               	xorwf	FTP_Task@comResult& (0+255),w,b
  2108   0010EE  A4D8               	btfss	status,2,c
  2109   0010F0  EF7C  F008         	goto	u4531
  2110   0010F4  EF7E  F008         	goto	u4530
  2111   0010F8                     u4531:
  2112   0010F8  EF88  F008         	goto	l5445
  2113   0010FC                     u4530:
  2114   0010FC                     
  2115                           ; BSR set to: 0
  2116                           ;mcc_generated_files/bootloader/library/core/ftp/bl_ftp.c: 335:     {;mcc_generated_file
      +                          s/bootloader/library/core/ftp/bl_ftp.c: 337:         printf("\n\rTF\n\r");
  2117   0010FC  0E81               	movlw	low STR_1
  2118   0010FE  6E1E               	movwf	printf@fmt^0,c
  2119   001100  ECCE  F010         	call	_printf	;wreg free
  2120   001104                     
  2121                           ;mcc_generated_files/bootloader/library/core/ftp/bl_ftp.c: 338:         processResult = 
      +                          BL_ERROR_FRAME_VALIDATION_FAIL;
  2122   001104  0100               	movlb	0	; () banked
  2123   001106  69E3               	setf	FTP_Task@processResult& (0+255),b
  2124   001108                     
  2125                           ; BSR set to: 0
  2126                           ;mcc_generated_files/bootloader/library/core/ftp/bl_ftp.c: 340:         ftpHelper.resend
      +                          Required = 1;
  2127   001108  0E01               	movlw	1
  2128   00110A  6F64               	movwf	(_ftpHelper+4)& (0+255),b
  2129                           
  2130                           ;mcc_generated_files/bootloader/library/core/ftp/bl_ftp.c: 341:     }
  2131   00110C  EF97  F008         	goto	l196
  2132   001110                     l5445:
  2133                           
  2134                           ; BSR set to: 0
  2135   001110  0E18               	movlw	24
  2136   001112  19E4               	xorwf	FTP_Task@comResult& (0+255),w,b
  2137   001114  A4D8               	btfss	status,2,c
  2138   001116  EF8F  F008         	goto	u4541
  2139   00111A  EF91  F008         	goto	u4540
  2140   00111E                     u4541:
  2141   00111E  EF95  F008         	goto	l5449
  2142   001122                     u4540:
  2143   001122                     
  2144                           ; BSR set to: 0
  2145                           ;mcc_generated_files/bootloader/library/core/ftp/bl_ftp.c: 343:     {;mcc_generated_file
      +                          s/bootloader/library/core/ftp/bl_ftp.c: 347:         processResult = BL_BUSY;
  2146   001122  0E3C               	movlw	60
  2147   001124  6FE3               	movwf	FTP_Task@processResult& (0+255),b
  2148                           
  2149                           ;mcc_generated_files/bootloader/library/core/ftp/bl_ftp.c: 348:     }
  2150   001126  EF97  F008         	goto	l196
  2151   00112A                     l5449:
  2152                           
  2153                           ; BSR set to: 0
  2154                           ;mcc_generated_files/bootloader/library/core/ftp/bl_ftp.c: 350:     {;mcc_generated_file
      +                          s/bootloader/library/core/ftp/bl_ftp.c: 353:         processResult = BL_ERROR_COMMUNICAT
      +                          ION_FAIL;
  2155   00112A  0E18               	movlw	24
  2156   00112C  6FE3               	movwf	FTP_Task@processResult& (0+255),b
  2157   00112E                     l196:
  2158                           
  2159                           ;mcc_generated_files/bootloader/library/core/ftp/bl_ftp.c: 356:     if (ftpHelper.resend
      +                          Required)
  2160   00112E  0100               	movlb	0	; () banked
  2161   001130  5164               	movf	(_ftpHelper+4)& (0+255),w,b
  2162   001132  B4D8               	btfsc	status,2,c
  2163   001134  EF9E  F008         	goto	u4551
  2164   001138  EFA0  F008         	goto	u4550
  2165   00113C                     u4551:
  2166   00113C  EFCD  F008         	goto	l5461
  2167   001140                     u4550:
  2168   001140                     
  2169                           ; BSR set to: 0
  2170                           ;mcc_generated_files/bootloader/library/core/ftp/bl_ftp.c: 357:     {;mcc_generated_file
      +                          s/bootloader/library/core/ftp/bl_ftp.c: 358:         ftp_transport_failure_code_t transp
      +                          ortCode = TransportFailureCodeGet(processResult);
  2171   001140  51E3               	movf	FTP_Task@processResult& (0+255),w,b
  2172   001142  EC52  F00E         	call	_TransportFailureCodeGet
  2173   001146  0100               	movlb	0	; () banked
  2174   001148  6FE2               	movwf	FTP_Task@transportCode& (0+255),b
  2175   00114A                     
  2176                           ; BSR set to: 0
  2177                           ;mcc_generated_files/bootloader/library/core/ftp/bl_ftp.c: 359:         ResponseSet(&ftp
      +                          RetrySender, (uint8_t *) & transportCode, FTP_TRANSPORT_FAILURE, 1U);
  2178   00114A  0ED0               	movlw	low _ftpRetrySender
  2179   00114C  6E01               	movwf	ResponseSet@responseData^0,c
  2180   00114E  0EE2               	movlw	low FTP_Task@transportCode
  2181   001150  6E02               	movwf	ResponseSet@responsePayload^0,c
  2182   001152  6A03               	clrf	(ResponseSet@responsePayload+1)^0,c
  2183   001154  0E04               	movlw	4
  2184   001156  6E04               	movwf	ResponseSet@responseStatus^0,c
  2185   001158  0E00               	movlw	0
  2186   00115A  6E06               	movwf	(ResponseSet@responsePayloadLength+1)^0,c
  2187   00115C  0E01               	movlw	1
  2188   00115E  6E05               	movwf	ResponseSet@responsePayloadLength^0,c
  2189   001160  ECA4  F00C         	call	_ResponseSet	;wreg free
  2190   001164                     
  2191                           ;mcc_generated_files/bootloader/library/core/ftp/bl_ftp.c: 361:         comResult = COM_
      +                          FrameSet((uint8_t *) & ftpRetrySender.bufferPtr[0], ftpRetrySender.receiveIndex);
  2192   001164  C0D4  F009         	movff	_ftpRetrySender+4,COM_FrameSet@responseBufferPtr
  2193   001168  C0D5  F00A         	movff	_ftpRetrySender+5,COM_FrameSet@responseBufferPtr+1
  2194   00116C  C0D0  F00B         	movff	_ftpRetrySender,COM_FrameSet@responseLength
  2195   001170  C0D1  F00C         	movff	_ftpRetrySender+1,COM_FrameSet@responseLength+1
  2196   001174  EC92  F007         	call	_COM_FrameSet	;wreg free
  2197   001178  0100               	movlb	0	; () banked
  2198   00117A  6FE4               	movwf	FTP_Task@comResult& (0+255),b
  2199   00117C                     
  2200                           ; BSR set to: 0
  2201                           ;mcc_generated_files/bootloader/library/core/ftp/bl_ftp.c: 363:         if (COM_PASS != 
      +                          comResult)
  2202   00117C  0EE7               	movlw	231
  2203   00117E  19E4               	xorwf	FTP_Task@comResult& (0+255),w,b
  2204   001180  B4D8               	btfsc	status,2,c
  2205   001182  EFC5  F008         	goto	u4561
  2206   001186  EFC7  F008         	goto	u4560
  2207   00118A                     u4561:
  2208   00118A  EFC9  F008         	goto	l204
  2209   00118E                     u4560:
  2210   00118E                     
  2211                           ; BSR set to: 0
  2212                           ;mcc_generated_files/bootloader/library/core/ftp/bl_ftp.c: 364:         {;mcc_generated_
      +                          files/bootloader/library/core/ftp/bl_ftp.c: 365:             processResult = BL_ERROR_CO
      +                          MMUNICATION_FAIL;
  2213   00118E  0E18               	movlw	24
  2214   001190  6FE3               	movwf	FTP_Task@processResult& (0+255),b
  2215   001192                     l204:
  2216                           
  2217                           ; BSR set to: 0
  2218                           ;mcc_generated_files/bootloader/library/core/ftp/bl_ftp.c: 367:         ftpHelper.resend
      +                          Required = 0;
  2219   001192  0E00               	movlw	0
  2220   001194  6F64               	movwf	(_ftpHelper+4)& (0+255),b
  2221                           
  2222                           ;mcc_generated_files/bootloader/library/core/ftp/bl_ftp.c: 368:     }
  2223   001196  EFEE  F008         	goto	l5469
  2224   00119A                     l5461:
  2225                           
  2226                           ; BSR set to: 0
  2227   00119A  5163               	movf	(_ftpHelper+3)& (0+255),w,b
  2228   00119C  B4D8               	btfsc	status,2,c
  2229   00119E  EFD3  F008         	goto	u4571
  2230   0011A2  EFD5  F008         	goto	u4570
  2231   0011A6                     u4571:
  2232   0011A6  EFEE  F008         	goto	l5469
  2233   0011AA                     u4570:
  2234   0011AA                     
  2235                           ; BSR set to: 0
  2236                           ;mcc_generated_files/bootloader/library/core/ftp/bl_ftp.c: 370:     {;mcc_generated_file
      +                          s/bootloader/library/core/ftp/bl_ftp.c: 371:         comResult = COM_FrameSet((uint8_t *
      +                          ) & ftpResponseSender.bufferPtr[0], ftpResponseSender.receiveIndex);
  2237   0011AA  C0C8  F009         	movff	_ftpResponseSender+4,COM_FrameSet@responseBufferPtr
  2238   0011AE  C0C9  F00A         	movff	_ftpResponseSender+5,COM_FrameSet@responseBufferPtr+1
  2239   0011B2  C0C4  F00B         	movff	_ftpResponseSender,COM_FrameSet@responseLength
  2240   0011B6  C0C5  F00C         	movff	_ftpResponseSender+1,COM_FrameSet@responseLength+1
  2241   0011BA  EC92  F007         	call	_COM_FrameSet	;wreg free
  2242   0011BE  0100               	movlb	0	; () banked
  2243   0011C0  6FE4               	movwf	FTP_Task@comResult& (0+255),b
  2244   0011C2                     
  2245                           ; BSR set to: 0
  2246                           ;mcc_generated_files/bootloader/library/core/ftp/bl_ftp.c: 373:         if (COM_PASS != 
      +                          comResult)
  2247   0011C2  0EE7               	movlw	231
  2248   0011C4  19E4               	xorwf	FTP_Task@comResult& (0+255),w,b
  2249   0011C6  B4D8               	btfsc	status,2,c
  2250   0011C8  EFE8  F008         	goto	u4581
  2251   0011CC  EFEA  F008         	goto	u4580
  2252   0011D0                     u4581:
  2253   0011D0  EFEC  F008         	goto	l207
  2254   0011D4                     u4580:
  2255   0011D4                     
  2256                           ; BSR set to: 0
  2257                           ;mcc_generated_files/bootloader/library/core/ftp/bl_ftp.c: 374:         {;mcc_generated_
      +                          files/bootloader/library/core/ftp/bl_ftp.c: 375:             processResult = BL_ERROR_CO
      +                          MMUNICATION_FAIL;
  2258   0011D4  0E18               	movlw	24
  2259   0011D6  6FE3               	movwf	FTP_Task@processResult& (0+255),b
  2260   0011D8                     l207:
  2261                           
  2262                           ; BSR set to: 0
  2263                           ;mcc_generated_files/bootloader/library/core/ftp/bl_ftp.c: 377:         ftpHelper.respon
      +                          seRequired = 0;
  2264   0011D8  0E00               	movlw	0
  2265   0011DA  6F63               	movwf	(_ftpHelper+3)& (0+255),b
  2266   0011DC                     l5469:
  2267                           
  2268                           ; BSR set to: 0
  2269                           ;mcc_generated_files/bootloader/library/core/ftp/bl_ftp.c: 384:     return processResult
      +                          ;
  2270   0011DC  51E3               	movf	FTP_Task@processResult& (0+255),w,b
  2271   0011DE                     
  2272                           ; BSR set to: 0
  2273   0011DE  0012               	return		;funcret
  2274   0011E0                     __end_of_FTP_Task:
  2275                           	callstack 0
  2276                           
  2277 ;; *************** function _TransportFailureCodeGet *****************
  2278 ;; Defined at:
  2279 ;;		line 507 in file "mcc_generated_files/bootloader/library/core/ftp/bl_ftp.c"
  2280 ;; Parameters:    Size  Location     Type
  2281 ;;  targetStatus    1    wreg     enum E6172
  2282 ;; Auto vars:     Size  Location     Type
  2283 ;;  targetStatus    1    2[COMRAM] enum E6172
  2284 ;;  transportCod    1    3[COMRAM] enum E6824
  2285 ;; Return value:  Size  Location     Type
  2286 ;;                  1    wreg      enum E6824
  2287 ;; Registers used:
  2288 ;;		wreg, status,2, status,0
  2289 ;; Tracked objects:
  2290 ;;		On entry : 0/0
  2291 ;;		On exit  : 0/0
  2292 ;;		Unchanged: 0/0
  2293 ;; Data sizes:     COMRAM   BANK0   BANK1   BANK2   BANK3   BANK4   BANK5
  2294 ;;      Params:         0       0       0       0       0       0       0
  2295 ;;      Locals:         2       0       0       0       0       0       0
  2296 ;;      Temps:          2       0       0       0       0       0       0
  2297 ;;      Totals:         4       0       0       0       0       0       0
  2298 ;;Total ram usage:        4 bytes
  2299 ;; Hardware stack levels used: 1
  2300 ;; This function calls:
  2301 ;;		Nothing
  2302 ;; This function is called by:
  2303 ;;		_FTP_Task
  2304 ;; This function uses a non-reentrant model
  2305 ;;
  2306                           
  2307                           	psect	text15
  2308   001CA4                     __ptext15:
  2309                           	callstack 0
  2310   001CA4                     _TransportFailureCodeGet:
  2311                           	callstack 28
  2312                           
  2313                           ; BSR set to: 0
  2314                           ;incstack = 0
  2315                           ;TransportFailureCodeGet@targetStatus stored from wreg
  2316   001CA4  6E03               	movwf	TransportFailureCodeGet@targetStatus^0,c
  2317   001CA6                     
  2318                           ;mcc_generated_files/bootloader/library/core/ftp/bl_ftp.c: 507: static ftp_transport_fai
      +                          lure_code_t TransportFailureCodeGet(bl_result_t targetStatus);mcc_generated_files/bootlo
      +                          ader/library/core/ftp/bl_ftp.c: 508: {;mcc_generated_files/bootloader/library/core/ftp/b
      +                          l_ftp.c: 509:     ftp_transport_failure_code_t transportCode = FTP_INTEGRITY_CHECK_ERROR
      +                          ;
  2319   001CA6  0E00               	movlw	0
  2320   001CA8  6E04               	movwf	TransportFailureCodeGet@transportCode^0,c
  2321                           
  2322                           ;mcc_generated_files/bootloader/library/core/ftp/bl_ftp.c: 511:     switch (targetStatus
      +                          )
  2323   001CAA  EF5F  F00E         	goto	l5411
  2324   001CAE                     l5405:
  2325                           
  2326                           ;mcc_generated_files/bootloader/library/core/ftp/bl_ftp.c: 514:         transportCode = 
      +                          FTP_INTEGRITY_CHECK_ERROR;
  2327   001CAE  0E00               	movlw	0
  2328   001CB0  6E04               	movwf	TransportFailureCodeGet@transportCode^0,c
  2329                           
  2330                           ;mcc_generated_files/bootloader/library/core/ftp/bl_ftp.c: 515:         break;
  2331   001CB2  EF74  F00E         	goto	l5413
  2332   001CB6                     l5407:
  2333                           
  2334                           ;mcc_generated_files/bootloader/library/core/ftp/bl_ftp.c: 517:         transportCode = 
      +                          FTP_COMMAND_TOO_LONG_ERROR;
  2335   001CB6  0E01               	movlw	1
  2336   001CB8  6E04               	movwf	TransportFailureCodeGet@transportCode^0,c
  2337                           
  2338                           ;mcc_generated_files/bootloader/library/core/ftp/bl_ftp.c: 518:         break;
  2339   001CBA  EF74  F00E         	goto	l5413
  2340   001CBE                     l5411:
  2341   001CBE  5003               	movf	TransportFailureCodeGet@targetStatus^0,w,c
  2342   001CC0  6E01               	movwf	??_TransportFailureCodeGet^0,c
  2343   001CC2  6A02               	clrf	(??_TransportFailureCodeGet+1)^0,c
  2344                           
  2345                           ; Switch on 2 bytes has been partitioned into a top level switch of size 1, and 1 sub-sw
      +                          itches
  2346                           ; Switch size 1, requested type "simple"
  2347                           ; Number of cases is 1, Range of values is 0 to 0
  2348                           ; switch strategies available:
  2349                           ; Name         Instructions Cycles
  2350                           ; simple_byte            4     3 (average)
  2351                           ;	Chosen strategy is simple_byte
  2352   001CC4  5002               	movf	(??_TransportFailureCodeGet+1)^0,w,c
  2353   001CC6  0A00               	xorlw	0	; case 0
  2354   001CC8  B4D8               	btfsc	status,2,c
  2355   001CCA  EF69  F00E         	goto	l5689
  2356   001CCE  EF74  F00E         	goto	l5413
  2357   001CD2                     l5689:
  2358                           
  2359                           ; Switch size 1, requested type "simple"
  2360                           ; Number of cases is 2, Range of values is 189 to 255
  2361                           ; switch strategies available:
  2362                           ; Name         Instructions Cycles
  2363                           ; simple_byte            7     4 (average)
  2364                           ;	Chosen strategy is simple_byte
  2365   001CD2  5001               	movf	??_TransportFailureCodeGet^0,w,c
  2366   001CD4  0ABD               	xorlw	189	; case 189
  2367   001CD6  B4D8               	btfsc	status,2,c
  2368   001CD8  EF5B  F00E         	goto	l5407
  2369   001CDC  0A42               	xorlw	66	; case 255
  2370   001CDE  B4D8               	btfsc	status,2,c
  2371   001CE0  EF57  F00E         	goto	l5405
  2372   001CE4  EF74  F00E         	goto	l5413
  2373   001CE8                     l5413:
  2374                           
  2375                           ;mcc_generated_files/bootloader/library/core/ftp/bl_ftp.c: 522:     return transportCode
      +                          ;
  2376   001CE8  5004               	movf	TransportFailureCodeGet@transportCode^0,w,c
  2377   001CEA  0012               	return		;funcret
  2378   001CEC                     __end_of_TransportFailureCodeGet:
  2379                           	callstack 0
  2380                           
  2381 ;; *************** function _ParserDataReset *****************
  2382 ;; Defined at:
  2383 ;;		line 525 in file "mcc_generated_files/bootloader/library/core/ftp/bl_ftp.c"
  2384 ;; Parameters:    Size  Location     Type
  2385 ;;		None
  2386 ;; Auto vars:     Size  Location     Type
  2387 ;;  i               2    0[COMRAM] unsigned short 
  2388 ;; Return value:  Size  Location     Type
  2389 ;;                  1    wreg      void 
  2390 ;; Registers used:
  2391 ;;		wreg, fsr2l, fsr2h, status,2, status,0
  2392 ;; Tracked objects:
  2393 ;;		On entry : 0/0
  2394 ;;		On exit  : 0/0
  2395 ;;		Unchanged: 0/0
  2396 ;; Data sizes:     COMRAM   BANK0   BANK1   BANK2   BANK3   BANK4   BANK5
  2397 ;;      Params:         0       0       0       0       0       0       0
  2398 ;;      Locals:         2       0       0       0       0       0       0
  2399 ;;      Temps:          0       0       0       0       0       0       0
  2400 ;;      Totals:         2       0       0       0       0       0       0
  2401 ;;Total ram usage:        2 bytes
  2402 ;; Hardware stack levels used: 1
  2403 ;; This function calls:
  2404 ;;		Nothing
  2405 ;; This function is called by:
  2406 ;;		_FTP_Task
  2407 ;; This function uses a non-reentrant model
  2408 ;;
  2409                           
  2410                           	psect	text16
  2411   001E02                     __ptext16:
  2412                           	callstack 0
  2413   001E02                     _ParserDataReset:
  2414                           	callstack 28
  2415   001E02                     
  2416                           ;mcc_generated_files/bootloader/library/core/ftp/bl_ftp.c: 527:     uint16_t i = 0;
  2417   001E02  0E00               	movlw	0
  2418   001E04  6E02               	movwf	(ParserDataReset@i+1)^0,c
  2419   001E06  0E00               	movlw	0
  2420   001E08  6E01               	movwf	ParserDataReset@i^0,c
  2421                           
  2422                           ;mcc_generated_files/bootloader/library/core/ftp/bl_ftp.c: 528:     ftpCommandReceiver.r
      +                          eceiveIndex = 0;
  2423   001E0A  0E00               	movlw	0
  2424   001E0C  0100               	movlb	0	; () banked
  2425   001E0E  6FCB               	movwf	(_ftpCommandReceiver+1)& (0+255),b
  2426   001E10  0E00               	movlw	0
  2427   001E12  6FCA               	movwf	_ftpCommandReceiver& (0+255),b
  2428                           
  2429                           ;mcc_generated_files/bootloader/library/core/ftp/bl_ftp.c: 531:     for (i = 0; i != (((
      +                          (uint16_t)sizeof (bl_block_header_t)) + ((uint16_t)sizeof (bl_command_header_t)) + ((uin
      +                          t16_t) (64U))) + (1U) + ((1U))); i++)
  2430   001E14  0E00               	movlw	0
  2431   001E16  6E02               	movwf	(ParserDataReset@i+1)^0,c
  2432   001E18  0E00               	movlw	0
  2433   001E1A  6E01               	movwf	ParserDataReset@i^0,c
  2434   001E1C                     l5349:
  2435                           
  2436                           ; BSR set to: 0
  2437                           ;mcc_generated_files/bootloader/library/core/ftp/bl_ftp.c: 532:     {;mcc_generated_file
      +                          s/bootloader/library/core/ftp/bl_ftp.c: 533:         ftpCommandReceiver.bufferPtr[i] = 0
      +                          x00U;
  2438   001E1C  5001               	movf	ParserDataReset@i^0,w,c
  2439   001E1E  25CE               	addwf	(_ftpCommandReceiver+4)& (0+255),w,b
  2440   001E20  6ED9               	movwf	fsr2l,c
  2441   001E22  5002               	movf	(ParserDataReset@i+1)^0,w,c
  2442   001E24  21CF               	addwfc	(_ftpCommandReceiver+5)& (0+255),w,b
  2443   001E26  6EDA               	movwf	fsr2h,c
  2444   001E28  6ADF               	clrf	indf2,c
  2445   001E2A                     
  2446                           ; BSR set to: 0
  2447                           ;mcc_generated_files/bootloader/library/core/ftp/bl_ftp.c: 534:     }
  2448   001E2A  4A01               	infsnz	ParserDataReset@i^0,f,c
  2449   001E2C  2A02               	incf	(ParserDataReset@i+1)^0,f,c
  2450   001E2E                     
  2451                           ; BSR set to: 0
  2452   001E2E  0E49               	movlw	73
  2453   001E30  1801               	xorwf	ParserDataReset@i^0,w,c
  2454   001E32  1002               	iorwf	(ParserDataReset@i+1)^0,w,c
  2455   001E34  A4D8               	btfss	status,2,c
  2456   001E36  EF1F  F00F         	goto	u4491
  2457   001E3A  EF21  F00F         	goto	u4490
  2458   001E3E                     u4491:
  2459   001E3E  EF0E  F00F         	goto	l5349
  2460   001E42                     u4490:
  2461   001E42                     
  2462                           ; BSR set to: 0
  2463   001E42  0012               	return		;funcret
  2464   001E44                     __end_of_ParserDataReset:
  2465                           	callstack 0
  2466                           
  2467 ;; *************** function _OperationalBlockExecute *****************
  2468 ;; Defined at:
  2469 ;;		line 426 in file "mcc_generated_files/bootloader/library/core/ftp/bl_ftp.c"
  2470 ;; Parameters:    Size  Location     Type
  2471 ;;		None
  2472 ;; Auto vars:     Size  Location     Type
  2473 ;;  abortCode       1   90[COMRAM] enum E6814
  2474 ;;  processResul    1   91[COMRAM] enum E6172
  2475 ;; Return value:  Size  Location     Type
  2476 ;;                  1    wreg      enum E6172
  2477 ;; Registers used:
  2478 ;;		wreg, fsr0l, fsr0h, fsr1l, fsr1h, fsr2l, fsr2h, status,2, status,0, tblptrl, tblptrh, tblptru, cstack
  2479 ;; Tracked objects:
  2480 ;;		On entry : 0/0
  2481 ;;		On exit  : 0/0
  2482 ;;		Unchanged: 0/0
  2483 ;; Data sizes:     COMRAM   BANK0   BANK1   BANK2   BANK3   BANK4   BANK5
  2484 ;;      Params:         0       0       0       0       0       0       0
  2485 ;;      Locals:         2       0       0       0       0       0       0
  2486 ;;      Temps:          0       0       0       0       0       0       0
  2487 ;;      Totals:         2       0       0       0       0       0       0
  2488 ;;Total ram usage:        2 bytes
  2489 ;; Hardware stack levels used: 1
  2490 ;; Hardware stack levels required when called: 7
  2491 ;; This function calls:
  2492 ;;		_AbortCodeGet
  2493 ;;		_BL_BootCommandProcess
  2494 ;;		_BL_Initialize
  2495 ;;		_ClientInfoResponseSet
  2496 ;;		_ResponseSet
  2497 ;;		_printf
  2498 ;; This function is called by:
  2499 ;;		_FTP_Task
  2500 ;; This function uses a non-reentrant model
  2501 ;;
  2502                           
  2503                           	psect	text17
  2504   001334                     __ptext17:
  2505                           	callstack 0
  2506   001334                     _OperationalBlockExecute:
  2507                           	callstack 21
  2508   001334                     
  2509                           ;mcc_generated_files/bootloader/library/core/ftp/bl_ftp.c: 429:     static uint8_t first
      +                          Time = 1;;mcc_generated_files/bootloader/library/core/ftp/bl_ftp.c: 430:     switch (ftp
      +                          CommandReceiver.bufferPtr[(0U)])
  2510   001334  EF26  F00A         	goto	l5397
  2511   001338                     l5357:
  2512                           
  2513                           ;mcc_generated_files/bootloader/library/core/ftp/bl_ftp.c: 433:         ClientInfoRespon
      +                          seSet(&ftpResponseSender);
  2514   001338  0EC4               	movlw	low _ftpResponseSender
  2515   00133A  6E01               	movwf	ClientInfoResponseSet@responseData^0,c
  2516   00133C  ECF1  F00D         	call	_ClientInfoResponseSet	;wreg free
  2517   001340                     
  2518                           ;mcc_generated_files/bootloader/library/core/ftp/bl_ftp.c: 434:         printf("Cl\n\r")
      +                          ;
  2519   001340  0E8E               	movlw	low STR_2
  2520   001342  6E1E               	movwf	printf@fmt^0,c
  2521   001344  ECCE  F010         	call	_printf	;wreg free
  2522   001348                     l5361:
  2523                           
  2524                           ;mcc_generated_files/bootloader/library/core/ftp/bl_ftp.c: 435:         processResult = 
      +                          BL_PASS;
  2525   001348  0E81               	movlw	129
  2526   00134A  6E5C               	movwf	OperationalBlockExecute@processResult^0,c
  2527                           
  2528                           ;mcc_generated_files/bootloader/library/core/ftp/bl_ftp.c: 436:         break;
  2529   00134C  EF3D  F00A         	goto	l5399
  2530   001350                     l5363:
  2531                           
  2532                           ;mcc_generated_files/bootloader/library/core/ftp/bl_ftp.c: 445:         processResult = 
      +                          BL_PASS;
  2533   001350  0E81               	movlw	129
  2534   001352  6E5C               	movwf	OperationalBlockExecute@processResult^0,c
  2535   001354                     
  2536                           ;mcc_generated_files/bootloader/library/core/ftp/bl_ftp.c: 446:         (void) BL_Initia
      +                          lize();
  2537   001354  EC40  F011         	call	_BL_Initialize	;wreg free
  2538   001358                     
  2539                           ;mcc_generated_files/bootloader/library/core/ftp/bl_ftp.c: 447:         ResponseSet(&ftp
      +                          ResponseSender, ((void*)0), FTP_COMMAND_SUCCESS, 0U);
  2540   001358  0EC4               	movlw	low _ftpResponseSender
  2541   00135A  6E01               	movwf	ResponseSet@responseData^0,c
  2542   00135C  0E00               	movlw	0
  2543   00135E  6E02               	movwf	ResponseSet@responsePayload^0,c
  2544   001360  0E00               	movlw	0
  2545   001362  6E03               	movwf	(ResponseSet@responsePayload+1)^0,c
  2546   001364  0E01               	movlw	1
  2547   001366  6E04               	movwf	ResponseSet@responseStatus^0,c
  2548   001368  0E00               	movlw	0
  2549   00136A  6E06               	movwf	(ResponseSet@responsePayloadLength+1)^0,c
  2550   00136C  0E00               	movlw	0
  2551   00136E  6E05               	movwf	ResponseSet@responsePayloadLength^0,c
  2552   001370  ECA4  F00C         	call	_ResponseSet	;wreg free
  2553   001374                     
  2554                           ;mcc_generated_files/bootloader/library/core/ftp/bl_ftp.c: 448:         printf("Start fl
      +                          ash\n\r");
  2555   001374  0E61               	movlw	low STR_3
  2556   001376  6E1E               	movwf	printf@fmt^0,c
  2557   001378  ECCE  F010         	call	_printf	;wreg free
  2558                           
  2559                           ;mcc_generated_files/bootloader/library/core/ftp/bl_ftp.c: 449:         break;
  2560   00137C  EF3D  F00A         	goto	l5399
  2561   001380                     l5371:
  2562                           
  2563                           ;mcc_generated_files/bootloader/library/core/ftp/bl_ftp.c: 453:         processResult = 
      +                          BL_BootCommandProcess(&(ftpCommandReceiver.bufferPtr[((1U))]), ftpCommandReceiver.receiv
      +                          eIndex);
  2564   001380  0E01               	movlw	1
  2565   001382  0100               	movlb	0	; () banked
  2566   001384  25CE               	addwf	(_ftpCommandReceiver+4)& (0+255),w,b
  2567   001386  6E39               	movwf	BL_BootCommandProcess@bootDataPtr^0,c
  2568   001388  0E00               	movlw	0
  2569   00138A  21CF               	addwfc	(_ftpCommandReceiver+5)& (0+255),w,b
  2570   00138C  6E3A               	movwf	(BL_BootCommandProcess@bootDataPtr+1)^0,c
  2571   00138E  C0CA  F03B         	movff	_ftpCommandReceiver,BL_BootCommandProcess@bufferLength
  2572   001392  C0CB  F03C         	movff	_ftpCommandReceiver+1,BL_BootCommandProcess@bufferLength+1
  2573   001396  ECDE  F006         	call	_BL_BootCommandProcess	;wreg free
  2574   00139A  6E5C               	movwf	OperationalBlockExecute@processResult^0,c
  2575   00139C                     
  2576                           ;mcc_generated_files/bootloader/library/core/ftp/bl_ftp.c: 454:         if (processResul
      +                          t == BL_PASS)
  2577   00139C  0E81               	movlw	129
  2578   00139E  185C               	xorwf	OperationalBlockExecute@processResult^0,w,c
  2579   0013A0  A4D8               	btfss	status,2,c
  2580   0013A2  EFD5  F009         	goto	u4501
  2581   0013A6  EFD7  F009         	goto	u4500
  2582   0013AA                     u4501:
  2583   0013AA  EFE7  F009         	goto	l5377
  2584   0013AE                     u4500:
  2585   0013AE                     
  2586                           ;mcc_generated_files/bootloader/library/core/ftp/bl_ftp.c: 455:         {;mcc_generated_
      +                          files/bootloader/library/core/ftp/bl_ftp.c: 456:             ResponseSet(&ftpResponseSen
      +                          der, ((void*)0), FTP_COMMAND_SUCCESS, 0U);
  2587   0013AE  0EC4               	movlw	low _ftpResponseSender
  2588   0013B0  6E01               	movwf	ResponseSet@responseData^0,c
  2589   0013B2  0E00               	movlw	0
  2590   0013B4  6E02               	movwf	ResponseSet@responsePayload^0,c
  2591   0013B6  0E00               	movlw	0
  2592   0013B8  6E03               	movwf	(ResponseSet@responsePayload+1)^0,c
  2593   0013BA  0E01               	movlw	1
  2594   0013BC  6E04               	movwf	ResponseSet@responseStatus^0,c
  2595   0013BE  0E00               	movlw	0
  2596   0013C0  6E06               	movwf	(ResponseSet@responsePayloadLength+1)^0,c
  2597   0013C2  0E00               	movlw	0
  2598   0013C4  6E05               	movwf	ResponseSet@responsePayloadLength^0,c
  2599   0013C6  ECA4  F00C         	call	_ResponseSet	;wreg free
  2600                           
  2601                           ;mcc_generated_files/bootloader/library/core/ftp/bl_ftp.c: 457:         }
  2602   0013CA  EF3D  F00A         	goto	l5399
  2603   0013CE                     l5377:
  2604                           
  2605                           ;mcc_generated_files/bootloader/library/core/ftp/bl_ftp.c: 459:         {;mcc_generated_
      +                          files/bootloader/library/core/ftp/bl_ftp.c: 460:             ftp_abort_code_t abortCode 
      +                          = AbortCodeGet(processResult);
  2606   0013CE  505C               	movf	OperationalBlockExecute@processResult^0,w,c
  2607   0013D0  EC22  F00E         	call	_AbortCodeGet
  2608   0013D4  6E5B               	movwf	OperationalBlockExecute@abortCode^0,c
  2609   0013D6                     
  2610                           ;mcc_generated_files/bootloader/library/core/ftp/bl_ftp.c: 461:             ResponseSet(
      +                          &ftpResponseSender, (uint8_t *)&abortCode, FTP_ABORT_TRANSFER, 1U);
  2611   0013D6  0EC4               	movlw	low _ftpResponseSender
  2612   0013D8  6E01               	movwf	ResponseSet@responseData^0,c
  2613   0013DA  0E5B               	movlw	low OperationalBlockExecute@abortCode
  2614   0013DC  6E02               	movwf	ResponseSet@responsePayload^0,c
  2615   0013DE  6A03               	clrf	(ResponseSet@responsePayload+1)^0,c
  2616   0013E0  0E05               	movlw	5
  2617   0013E2  6E04               	movwf	ResponseSet@responseStatus^0,c
  2618   0013E4  0E00               	movlw	0
  2619   0013E6  6E06               	movwf	(ResponseSet@responsePayloadLength+1)^0,c
  2620   0013E8  0E01               	movlw	1
  2621   0013EA  6E05               	movwf	ResponseSet@responsePayloadLength^0,c
  2622   0013EC  ECA4  F00C         	call	_ResponseSet	;wreg free
  2623   0013F0  EF3D  F00A         	goto	l5399
  2624   0013F4                     l5381:
  2625                           
  2626                           ;mcc_generated_files/bootloader/library/core/ftp/bl_ftp.c: 466:         ResponseSet(&ftp
      +                          ResponseSender, ((void*)0), FTP_COMMAND_SUCCESS, 0U);
  2627   0013F4  0EC4               	movlw	low _ftpResponseSender
  2628   0013F6  6E01               	movwf	ResponseSet@responseData^0,c
  2629   0013F8  0E00               	movlw	0
  2630   0013FA  6E02               	movwf	ResponseSet@responsePayload^0,c
  2631   0013FC  0E00               	movlw	0
  2632   0013FE  6E03               	movwf	(ResponseSet@responsePayload+1)^0,c
  2633   001400  0E01               	movlw	1
  2634   001402  6E04               	movwf	ResponseSet@responseStatus^0,c
  2635   001404  0E00               	movlw	0
  2636   001406  6E06               	movwf	(ResponseSet@responsePayloadLength+1)^0,c
  2637   001408  0E00               	movlw	0
  2638   00140A  6E05               	movwf	ResponseSet@responsePayloadLength^0,c
  2639   00140C  ECA4  F00C         	call	_ResponseSet	;wreg free
  2640   001410                     
  2641                           ;mcc_generated_files/bootloader/library/core/ftp/bl_ftp.c: 467:         printf("End\n\r"
      +                          );
  2642   001410  0E88               	movlw	low STR_4
  2643   001412  6E1E               	movwf	printf@fmt^0,c
  2644   001414  ECCE  F010         	call	_printf	;wreg free
  2645   001418                     
  2646                           ;mcc_generated_files/bootloader/library/core/ftp/bl_ftp.c: 468:         STKPTR = 0x00U;
  2647   001418  0E00               	movlw	0
  2648   00141A  6EFC               	movwf	252,c	;volatile
  2649   00141C                     
  2650                           ;mcc_generated_files/bootloader/library/core/ftp/bl_ftp.c: 469:         BSR = 0x00U;
  2651   00141C  0E00               	movlw	0
  2652   00141E  6EE0               	movwf	224,c	;volatile
  2653   001420  EF00 F018          	goto	12288	;# 
  2654   001424  EFA4  F009         	goto	l5361
  2655   001428                     l5391:
  2656                           
  2657                           ;mcc_generated_files/bootloader/library/core/ftp/bl_ftp.c: 476:         processResult = 
      +                          BL_ERROR_UNKNOWN_COMMAND;
  2658   001428  0E42               	movlw	66
  2659   00142A  6E5C               	movwf	OperationalBlockExecute@processResult^0,c
  2660   00142C                     
  2661                           ;mcc_generated_files/bootloader/library/core/ftp/bl_ftp.c: 477:         ResponseSet(&ftp
      +                          ResponseSender, ((void*)0), FTP_COMMAND_NOT_SUPPORTED, 0U);
  2662   00142C  0EC4               	movlw	low _ftpResponseSender
  2663   00142E  6E01               	movwf	ResponseSet@responseData^0,c
  2664   001430  0E00               	movlw	0
  2665   001432  6E02               	movwf	ResponseSet@responsePayload^0,c
  2666   001434  0E00               	movlw	0
  2667   001436  6E03               	movwf	(ResponseSet@responsePayload+1)^0,c
  2668   001438  0E02               	movlw	2
  2669   00143A  6E04               	movwf	ResponseSet@responseStatus^0,c
  2670   00143C  0E00               	movlw	0
  2671   00143E  6E06               	movwf	(ResponseSet@responsePayloadLength+1)^0,c
  2672   001440  0E00               	movlw	0
  2673   001442  6E05               	movwf	ResponseSet@responsePayloadLength^0,c
  2674   001444  ECA4  F00C         	call	_ResponseSet	;wreg free
  2675                           
  2676                           ;mcc_generated_files/bootloader/library/core/ftp/bl_ftp.c: 478:         break;
  2677   001448  EF3D  F00A         	goto	l5399
  2678   00144C                     l5397:
  2679   00144C  C0CE  FFD9         	movff	_ftpCommandReceiver+4,fsr2l
  2680   001450  C0CF  FFDA         	movff	_ftpCommandReceiver+5,fsr2h
  2681   001454  50DF               	movf	indf2,w,c
  2682                           
  2683                           ; Switch size 1, requested type "simple"
  2684                           ; Number of cases is 4, Range of values is 1 to 5
  2685                           ; switch strategies available:
  2686                           ; Name         Instructions Cycles
  2687                           ; simple_byte           13     7 (average)
  2688                           ;	Chosen strategy is simple_byte
  2689   001456  0A01               	xorlw	1	; case 1
  2690   001458  B4D8               	btfsc	status,2,c
  2691   00145A  EF9C  F009         	goto	l5357
  2692   00145E  0A03               	xorlw	3	; case 2
  2693   001460  B4D8               	btfsc	status,2,c
  2694   001462  EFA8  F009         	goto	l5363
  2695   001466  0A01               	xorlw	1	; case 3
  2696   001468  B4D8               	btfsc	status,2,c
  2697   00146A  EFC0  F009         	goto	l5371
  2698   00146E  0A06               	xorlw	6	; case 5
  2699   001470  B4D8               	btfsc	status,2,c
  2700   001472  EFFA  F009         	goto	l5381
  2701   001476  EF14  F00A         	goto	l5391
  2702   00147A                     l5399:
  2703                           
  2704                           ;mcc_generated_files/bootloader/library/core/ftp/bl_ftp.c: 481:     return processResult
      +                          ;
  2705   00147A  505C               	movf	OperationalBlockExecute@processResult^0,w,c
  2706   00147C  0012               	return		;funcret
  2707   00147E                     __end_of_OperationalBlockExecute:
  2708                           	callstack 0
  2709                           
  2710 ;; *************** function _ResponseSet *****************
  2711 ;; Defined at:
  2712 ;;		line 550 in file "mcc_generated_files/bootloader/library/core/ftp/bl_ftp.c"
  2713 ;; Parameters:    Size  Location     Type
  2714 ;;  responseData    1    0[COMRAM] PTR struct .
  2715 ;;		 -> ftpResponseSender(6), ftpRetrySender(6), 
  2716 ;;  responsePayl    2    1[COMRAM] PTR unsigned char 
  2717 ;;		 -> OperationalBlockExecute@abortCode(1), FTP_Task@transportCode(1), NULL(0), 
  2718 ;;  responseStat    1    3[COMRAM] enum E6807
  2719 ;;  responsePayl    2    4[COMRAM] unsigned short 
  2720 ;; Auto vars:     Size  Location     Type
  2721 ;;  i               1    8[COMRAM] unsigned char 
  2722 ;; Return value:  Size  Location     Type
  2723 ;;                  1    wreg      void 
  2724 ;; Registers used:
  2725 ;;		wreg, fsr1l, fsr1h, fsr2l, fsr2h, status,2, status,0
  2726 ;; Tracked objects:
  2727 ;;		On entry : 0/0
  2728 ;;		On exit  : 0/0
  2729 ;;		Unchanged: 0/0
  2730 ;; Data sizes:     COMRAM   BANK0   BANK1   BANK2   BANK3   BANK4   BANK5
  2731 ;;      Params:         6       0       0       0       0       0       0
  2732 ;;      Locals:         1       0       0       0       0       0       0
  2733 ;;      Temps:          2       0       0       0       0       0       0
  2734 ;;      Totals:         9       0       0       0       0       0       0
  2735 ;;Total ram usage:        9 bytes
  2736 ;; Hardware stack levels used: 1
  2737 ;; This function calls:
  2738 ;;		Nothing
  2739 ;; This function is called by:
  2740 ;;		_FTP_Task
  2741 ;;		_OperationalBlockExecute
  2742 ;; This function uses a non-reentrant model
  2743 ;;
  2744                           
  2745                           	psect	text18
  2746   001948                     __ptext18:
  2747                           	callstack 0
  2748   001948                     _ResponseSet:
  2749                           	callstack 28
  2750   001948                     
  2751                           ;mcc_generated_files/bootloader/library/core/ftp/bl_ftp.c: 550: static void ResponseSet(
      +                          ftp_process_frame_t * responseData, uint8_t * responsePayload, ftp_response_status_t res
      +                          ponseStatus, uint16_t responsePayloadLength);mcc_generated_files/bootloader/library/core
      +                          /ftp/bl_ftp.c: 551: {;mcc_generated_files/bootloader/library/core/ftp/bl_ftp.c: 554:    
      +                           responseData->receiveIndex = (responsePayloadLength + (1U));
  2752   001948  0E01               	movlw	1
  2753   00194A  2405               	addwf	ResponseSet@responsePayloadLength^0,w,c
  2754   00194C  6E07               	movwf	??_ResponseSet^0,c
  2755   00194E  0E00               	movlw	0
  2756   001950  2006               	addwfc	(ResponseSet@responsePayloadLength+1)^0,w,c
  2757   001952  6E08               	movwf	(??_ResponseSet+1)^0,c
  2758   001954  5001               	movf	ResponseSet@responseData^0,w,c
  2759   001956  6ED9               	movwf	fsr2l,c
  2760   001958  6ADA               	clrf	fsr2h,c
  2761   00195A  C007  FFDE         	movff	??_ResponseSet,postinc2
  2762   00195E  C008  FFDD         	movff	??_ResponseSet+1,postdec2
  2763                           
  2764                           ;mcc_generated_files/bootloader/library/core/ftp/bl_ftp.c: 560:     responseData->buffer
      +                          Ptr[(0U)] = responseStatus;
  2765   001962  5001               	movf	ResponseSet@responseData^0,w,c
  2766   001964  6ED9               	movwf	fsr2l,c
  2767   001966  6ADA               	clrf	fsr2h,c
  2768   001968  0E04               	movlw	4
  2769   00196A  26D9               	addwf	fsr2l,f,c
  2770   00196C  CFDE F007          	movff	postinc2,??_ResponseSet
  2771   001970  CFDD F008          	movff	postdec2,??_ResponseSet+1
  2772   001974  C007  FFD9         	movff	??_ResponseSet,fsr2l
  2773   001978  C008  FFDA         	movff	??_ResponseSet+1,fsr2h
  2774   00197C  C004  FFDF         	movff	ResponseSet@responseStatus,indf2
  2775   001980                     
  2776                           ;mcc_generated_files/bootloader/library/core/ftp/bl_ftp.c: 563:     for (uint8_t i = 0; 
      +                          i < responsePayloadLength; i++)
  2777   001980  0E00               	movlw	0
  2778   001982  6E09               	movwf	ResponseSet@i^0,c
  2779   001984  EFE0  F00C         	goto	l5149
  2780   001988                     l5145:
  2781                           
  2782                           ;mcc_generated_files/bootloader/library/core/ftp/bl_ftp.c: 564:     {;mcc_generated_file
      +                          s/bootloader/library/core/ftp/bl_ftp.c: 565:         responseData->bufferPtr[(((1U)) + i
      +                          )] = responsePayload[i];
  2783   001988  5009               	movf	ResponseSet@i^0,w,c
  2784   00198A  2402               	addwf	ResponseSet@responsePayload^0,w,c
  2785   00198C  6ED9               	movwf	fsr2l,c
  2786   00198E  0E00               	movlw	0
  2787   001990  2003               	addwfc	(ResponseSet@responsePayload+1)^0,w,c
  2788   001992  6EDA               	movwf	fsr2h,c
  2789   001994  5001               	movf	ResponseSet@responseData^0,w,c
  2790   001996  6EE1               	movwf	fsr1l,c
  2791   001998  6AE2               	clrf	fsr1h,c
  2792   00199A  0E04               	movlw	4
  2793   00199C  26E1               	addwf	fsr1l,f,c
  2794   00199E  CFE6 F007          	movff	postinc1,??_ResponseSet
  2795   0019A2  CFE5 F008          	movff	postdec1,??_ResponseSet+1
  2796   0019A6  5009               	movf	ResponseSet@i^0,w,c
  2797   0019A8  2607               	addwf	??_ResponseSet^0,f,c
  2798   0019AA  0E00               	movlw	0
  2799   0019AC  2208               	addwfc	(??_ResponseSet+1)^0,f,c
  2800   0019AE  0E01               	movlw	1
  2801   0019B0  2407               	addwf	??_ResponseSet^0,w,c
  2802   0019B2  6EE1               	movwf	fsr1l,c
  2803   0019B4  0E00               	movlw	0
  2804   0019B6  2008               	addwfc	(??_ResponseSet+1)^0,w,c
  2805   0019B8  6EE2               	movwf	fsr1h,c
  2806   0019BA  CFDF FFE7          	movff	indf2,indf1
  2807   0019BE                     
  2808                           ;mcc_generated_files/bootloader/library/core/ftp/bl_ftp.c: 566:     }
  2809   0019BE  2A09               	incf	ResponseSet@i^0,f,c
  2810   0019C0                     l5149:
  2811   0019C0  5009               	movf	ResponseSet@i^0,w,c
  2812   0019C2  6E07               	movwf	??_ResponseSet^0,c
  2813   0019C4  6A08               	clrf	(??_ResponseSet+1)^0,c
  2814   0019C6  5005               	movf	ResponseSet@responsePayloadLength^0,w,c
  2815   0019C8  5C07               	subwf	??_ResponseSet^0,w,c
  2816   0019CA  5006               	movf	(ResponseSet@responsePayloadLength+1)^0,w,c
  2817   0019CC  5808               	subwfb	(??_ResponseSet+1)^0,w,c
  2818   0019CE  A0D8               	btfss	status,0,c
  2819   0019D0  EFEC  F00C         	goto	u4201
  2820   0019D4  EFEE  F00C         	goto	u4200
  2821   0019D8                     u4201:
  2822   0019D8  EFC4  F00C         	goto	l5145
  2823   0019DC                     u4200:
  2824   0019DC  0012               	return		;funcret
  2825   0019DE                     __end_of_ResponseSet:
  2826                           	callstack 0
  2827                           
  2828 ;; *************** function _ClientInfoResponseSet *****************
  2829 ;; Defined at:
  2830 ;;		line 583 in file "mcc_generated_files/bootloader/library/core/ftp/bl_ftp.c"
  2831 ;; Parameters:    Size  Location     Type
  2832 ;;  responseData    1    0[COMRAM] PTR struct .
  2833 ;;		 -> ftpResponseSender(6), 
  2834 ;; Auto vars:     Size  Location     Type
  2835 ;;		None
  2836 ;; Return value:  Size  Location     Type
  2837 ;;                  1    wreg      void 
  2838 ;; Registers used:
  2839 ;;		wreg, fsr1l, fsr1h, fsr2l, fsr2h, status,2, status,0
  2840 ;; Tracked objects:
  2841 ;;		On entry : 0/0
  2842 ;;		On exit  : 0/0
  2843 ;;		Unchanged: 0/0
  2844 ;; Data sizes:     COMRAM   BANK0   BANK1   BANK2   BANK3   BANK4   BANK5
  2845 ;;      Params:         1       0       0       0       0       0       0
  2846 ;;      Locals:         0       0       0       0       0       0       0
  2847 ;;      Temps:          2       0       0       0       0       0       0
  2848 ;;      Totals:         3       0       0       0       0       0       0
  2849 ;;Total ram usage:        3 bytes
  2850 ;; Hardware stack levels used: 1
  2851 ;; This function calls:
  2852 ;;		Nothing
  2853 ;; This function is called by:
  2854 ;;		_OperationalBlockExecute
  2855 ;; This function uses a non-reentrant model
  2856 ;;
  2857                           
  2858                           	psect	text19
  2859   001BE2                     __ptext19:
  2860                           	callstack 0
  2861   001BE2                     _ClientInfoResponseSet:
  2862                           	callstack 27
  2863   001BE2                     
  2864                           ;mcc_generated_files/bootloader/library/core/ftp/bl_ftp.c: 583: static void ClientInfoRe
      +                          sponseSet(ftp_process_frame_t * responseData);mcc_generated_files/bootloader/library/cor
      +                          e/ftp/bl_ftp.c: 584: {;mcc_generated_files/bootloader/library/core/ftp/bl_ftp.c: 593:   
      +                            responseData->receiveIndex = (
  2865   001BE2  5001               	movf	ClientInfoResponseSet@responseData^0,w,c
  2866   001BE4  6ED9               	movwf	fsr2l,c
  2867   001BE6  6ADA               	clrf	fsr2h,c
  2868   001BE8  0E03               	movlw	3
  2869   001BEA  6EDE               	movwf	postinc2,c
  2870   001BEC  0E00               	movlw	0
  2871   001BEE  6EDD               	movwf	postdec2,c
  2872   001BF0                     
  2873                           ;mcc_generated_files/bootloader/library/core/ftp/bl_ftp.c: 601:     responseData->buffer
      +                          Ptr[(0U)] = FTP_COMMAND_SUCCESS;
  2874   001BF0  5001               	movf	ClientInfoResponseSet@responseData^0,w,c
  2875   001BF2  6ED9               	movwf	fsr2l,c
  2876   001BF4  6ADA               	clrf	fsr2h,c
  2877   001BF6  0E04               	movlw	4
  2878   001BF8  26D9               	addwf	fsr2l,f,c
  2879   001BFA  CFDE F002          	movff	postinc2,??_ClientInfoResponseSet
  2880   001BFE  CFDD F003          	movff	postdec2,??_ClientInfoResponseSet+1
  2881   001C02  C002  FFD9         	movff	??_ClientInfoResponseSet,fsr2l
  2882   001C06  C003  FFDA         	movff	??_ClientInfoResponseSet+1,fsr2h
  2883   001C0A  0E01               	movlw	1
  2884   001C0C  6EDF               	movwf	indf2,c
  2885   001C0E                     
  2886                           ;mcc_generated_files/bootloader/library/core/ftp/bl_ftp.c: 604:     responseData->buffer
      +                          Ptr[((1U))] = 0x02;
  2887   001C0E  5001               	movf	ClientInfoResponseSet@responseData^0,w,c
  2888   001C10  6ED9               	movwf	fsr2l,c
  2889   001C12  6ADA               	clrf	fsr2h,c
  2890   001C14  0E04               	movlw	4
  2891   001C16  26D9               	addwf	fsr2l,f,c
  2892   001C18  EE10 F001          	lfsr	1,1
  2893   001C1C  50DE               	movf	postinc2,w,c
  2894   001C1E  26E1               	addwf	fsr1l,f,c
  2895   001C20  50DD               	movf	postdec2,w,c
  2896   001C22  22E2               	addwfc	fsr1h,f,c
  2897   001C24  0E02               	movlw	2
  2898   001C26  6EE7               	movwf	indf1,c
  2899   001C28                     
  2900                           ;mcc_generated_files/bootloader/library/core/ftp/bl_ftp.c: 605:     responseData->buffer
      +                          Ptr[((1U))+1] = 0xA9;
  2901   001C28  5001               	movf	ClientInfoResponseSet@responseData^0,w,c
  2902   001C2A  6ED9               	movwf	fsr2l,c
  2903   001C2C  6ADA               	clrf	fsr2h,c
  2904   001C2E  0E04               	movlw	4
  2905   001C30  26D9               	addwf	fsr2l,f,c
  2906   001C32  EE10 F002          	lfsr	1,2
  2907   001C36  50DE               	movf	postinc2,w,c
  2908   001C38  26E1               	addwf	fsr1l,f,c
  2909   001C3A  50DD               	movf	postdec2,w,c
  2910   001C3C  22E2               	addwfc	fsr1h,f,c
  2911   001C3E  0EA9               	movlw	169
  2912   001C40  6EE7               	movwf	indf1,c
  2913   001C42  0012               	return		;funcret
  2914   001C44                     __end_of_ClientInfoResponseSet:
  2915                           	callstack 0
  2916                           
  2917 ;; *************** function _BL_Initialize *****************
  2918 ;; Defined at:
  2919 ;;		line 174 in file "mcc_generated_files/bootloader/library/core/bl_core.c"
  2920 ;; Parameters:    Size  Location     Type
  2921 ;;		None
  2922 ;; Auto vars:     Size  Location     Type
  2923 ;;  initResult      1    0        enum E36
  2924 ;; Return value:  Size  Location     Type
  2925 ;;                  1    wreg      enum E6172
  2926 ;; Registers used:
  2927 ;;		wreg, status,2
  2928 ;; Tracked objects:
  2929 ;;		On entry : 0/0
  2930 ;;		On exit  : 0/0
  2931 ;;		Unchanged: 0/0
  2932 ;; Data sizes:     COMRAM   BANK0   BANK1   BANK2   BANK3   BANK4   BANK5
  2933 ;;      Params:         0       0       0       0       0       0       0
  2934 ;;      Locals:         0       0       0       0       0       0       0
  2935 ;;      Temps:          0       0       0       0       0       0       0
  2936 ;;      Totals:         0       0       0       0       0       0       0
  2937 ;;Total ram usage:        0 bytes
  2938 ;; Hardware stack levels used: 1
  2939 ;; This function calls:
  2940 ;;		Nothing
  2941 ;; This function is called by:
  2942 ;;		_OperationalBlockExecute
  2943 ;;		_SYSTEM_Initialize
  2944 ;; This function uses a non-reentrant model
  2945 ;;
  2946                           
  2947                           	psect	text20
  2948   002280                     __ptext20:
  2949                           	callstack 0
  2950   002280                     _BL_Initialize:
  2951                           	callstack 29
  2952   002280                     
  2953                           ;mcc_generated_files/bootloader/library/core/bl_core.c: 178:     bootloaderCoreUnlocked 
      +                          = 0;
  2954   002280  0E00               	movlw	0
  2955   002282  0100               	movlb	0	; () banked
  2956   002284  6F87               	movwf	_bootloaderCoreUnlocked& (0+255),b
  2957                           
  2958                           ;mcc_generated_files/bootloader/library/core/bl_core.c: 179:     firstTimeIn = 1;
  2959   002286  0E01               	movlw	1
  2960   002288  6F86               	movwf	_firstTimeIn& (0+255),b
  2961   00228A                     
  2962                           ; BSR set to: 0
  2963   00228A  0012               	return		;funcret
  2964   00228C                     __end_of_BL_Initialize:
  2965                           	callstack 0
  2966                           
  2967 ;; *************** function _BL_BootCommandProcess *****************
  2968 ;; Defined at:
  2969 ;;		line 110 in file "mcc_generated_files/bootloader/library/core/bl_core.c"
  2970 ;; Parameters:    Size  Location     Type
  2971 ;;  bootDataPtr     2   56[COMRAM] PTR unsigned char 
  2972 ;;		 -> FTP_RESPONSE_BUFFER(19), FTP_RECEIVE_BUFFER(74), FTP_RETRY_BUFFER(19), 
  2973 ;;  bufferLength    2   58[COMRAM] unsigned short 
  2974 ;; Auto vars:     Size  Location     Type
  2975 ;;  memoryStatus    1   84[COMRAM] enum E6078
  2976 ;;  userProvided    8   76[COMRAM] struct .
  2977 ;;  commandHeade    4   86[COMRAM] struct .
  2978 ;;  bootCommandS    1   85[COMRAM] enum E36
  2979 ;; Return value:  Size  Location     Type
  2980 ;;                  1    wreg      enum E6172
  2981 ;; Registers used:
  2982 ;;		wreg, fsr0l, fsr0h, fsr1l, fsr1h, fsr2l, fsr2h, status,2, status,0, tblptrl, tblptrh, tblptru, cstack
  2983 ;; Tracked objects:
  2984 ;;		On entry : 0/0
  2985 ;;		On exit  : 0/0
  2986 ;;		Unchanged: 0/0
  2987 ;; Data sizes:     COMRAM   BANK0   BANK1   BANK2   BANK3   BANK4   BANK5
  2988 ;;      Params:         4       0       0       0       0       0       0
  2989 ;;      Locals:        14       0       0       0       0       0       0
  2990 ;;      Temps:         16       0       0       0       0       0       0
  2991 ;;      Totals:        34       0       0       0       0       0       0
  2992 ;;Total ram usage:       34 bytes
  2993 ;; Hardware stack levels used: 1
  2994 ;; Hardware stack levels required when called: 6
  2995 ;; This function calls:
  2996 ;;		_BL_FlashWrite
  2997 ;;		_BL_MemoryUnlockKeysClear
  2998 ;;		_BL_MemoryUnlockKeysInit
  2999 ;;		_BootloaderProcessorUnlock
  3000 ;;		_printf
  3001 ;; This function is called by:
  3002 ;;		_OperationalBlockExecute
  3003 ;; This function uses a non-reentrant model
  3004 ;;
  3005                           
  3006                           	psect	text21
  3007   000DBC                     __ptext21:
  3008                           	callstack 0
  3009   000DBC                     _BL_BootCommandProcess:
  3010                           	callstack 21
  3011   000DBC                     
  3012                           ;mcc_generated_files/bootloader/library/core/bl_core.c: 114:     bl_command_header_t com
      +                          mandHeader;;mcc_generated_files/bootloader/library/core/bl_core.c: 116:     commandHeade
      +                          r.startAddress = bootDataPtr[0] + bootDataPtr[1]*256 + bootDataPtr[2]*256*256 + bootData
      +                          Ptr[3]*256*256*256;
  3013   000DBC  EE20 F003          	lfsr	2,3
  3014   000DC0  5039               	movf	BL_BootCommandProcess@bootDataPtr^0,w,c
  3015   000DC2  26D9               	addwf	fsr2l,f,c
  3016   000DC4  503A               	movf	(BL_BootCommandProcess@bootDataPtr+1)^0,w,c
  3017   000DC6  22DA               	addwfc	fsr2h,f,c
  3018   000DC8  50DF               	movf	indf2,w,c
  3019   000DCA  6E3D               	movwf	??_BL_BootCommandProcess^0,c
  3020   000DCC  503D               	movf	??_BL_BootCommandProcess^0,w,c
  3021   000DCE  6E3F               	movwf	(??_BL_BootCommandProcess+2)^0,c
  3022   000DD0  6A3E               	clrf	(??_BL_BootCommandProcess+1)^0,c
  3023   000DD2  C03E  F03F         	movff	??_BL_BootCommandProcess+1,??_BL_BootCommandProcess+2
  3024   000DD6  6A3E               	clrf	(??_BL_BootCommandProcess+1)^0,c
  3025   000DD8  C03E  F03F         	movff	??_BL_BootCommandProcess+1,??_BL_BootCommandProcess+2
  3026   000DDC  6A3E               	clrf	(??_BL_BootCommandProcess+1)^0,c
  3027   000DDE  EE20 F002          	lfsr	2,2
  3028   000DE2  5039               	movf	BL_BootCommandProcess@bootDataPtr^0,w,c
  3029   000DE4  26D9               	addwf	fsr2l,f,c
  3030   000DE6  503A               	movf	(BL_BootCommandProcess@bootDataPtr+1)^0,w,c
  3031   000DE8  22DA               	addwfc	fsr2h,f,c
  3032   000DEA  50DF               	movf	indf2,w,c
  3033   000DEC  6E40               	movwf	(??_BL_BootCommandProcess+3)^0,c
  3034   000DEE  5040               	movf	(??_BL_BootCommandProcess+3)^0,w,c
  3035   000DF0  6E42               	movwf	(??_BL_BootCommandProcess+5)^0,c
  3036   000DF2  6A41               	clrf	(??_BL_BootCommandProcess+4)^0,c
  3037   000DF4  C041  F042         	movff	??_BL_BootCommandProcess+4,??_BL_BootCommandProcess+5
  3038   000DF8  6A41               	clrf	(??_BL_BootCommandProcess+4)^0,c
  3039   000DFA  EE20 F001          	lfsr	2,1
  3040   000DFE  5039               	movf	BL_BootCommandProcess@bootDataPtr^0,w,c
  3041   000E00  26D9               	addwf	fsr2l,f,c
  3042   000E02  503A               	movf	(BL_BootCommandProcess@bootDataPtr+1)^0,w,c
  3043   000E04  22DA               	addwfc	fsr2h,f,c
  3044   000E06  50DF               	movf	indf2,w,c
  3045   000E08  6E43               	movwf	(??_BL_BootCommandProcess+6)^0,c
  3046   000E0A  5043               	movf	(??_BL_BootCommandProcess+6)^0,w,c
  3047   000E0C  6E45               	movwf	(??_BL_BootCommandProcess+8)^0,c
  3048   000E0E  6A44               	clrf	(??_BL_BootCommandProcess+7)^0,c
  3049   000E10  C039  FFD9         	movff	BL_BootCommandProcess@bootDataPtr,fsr2l
  3050   000E14  C03A  FFDA         	movff	BL_BootCommandProcess@bootDataPtr+1,fsr2h
  3051   000E18  50DF               	movf	indf2,w,c
  3052   000E1A  6E46               	movwf	(??_BL_BootCommandProcess+9)^0,c
  3053   000E1C  5046               	movf	(??_BL_BootCommandProcess+9)^0,w,c
  3054   000E1E  2444               	addwf	(??_BL_BootCommandProcess+7)^0,w,c
  3055   000E20  6E47               	movwf	(??_BL_BootCommandProcess+10)^0,c
  3056   000E22  0E00               	movlw	0
  3057   000E24  2045               	addwfc	(??_BL_BootCommandProcess+8)^0,w,c
  3058   000E26  6E48               	movwf	(??_BL_BootCommandProcess+11)^0,c
  3059   000E28  5041               	movf	(??_BL_BootCommandProcess+4)^0,w,c
  3060   000E2A  2447               	addwf	(??_BL_BootCommandProcess+10)^0,w,c
  3061   000E2C  6E49               	movwf	(??_BL_BootCommandProcess+12)^0,c
  3062   000E2E  5042               	movf	(??_BL_BootCommandProcess+5)^0,w,c
  3063   000E30  2048               	addwfc	(??_BL_BootCommandProcess+11)^0,w,c
  3064   000E32  6E4A               	movwf	(??_BL_BootCommandProcess+13)^0,c
  3065   000E34  503E               	movf	(??_BL_BootCommandProcess+1)^0,w,c
  3066   000E36  2449               	addwf	(??_BL_BootCommandProcess+12)^0,w,c
  3067   000E38  6E4B               	movwf	(??_BL_BootCommandProcess+14)^0,c
  3068   000E3A  503F               	movf	(??_BL_BootCommandProcess+2)^0,w,c
  3069   000E3C  204A               	addwfc	(??_BL_BootCommandProcess+13)^0,w,c
  3070   000E3E  6E4C               	movwf	(??_BL_BootCommandProcess+15)^0,c
  3071   000E40  C04B  F057         	movff	??_BL_BootCommandProcess+14,BL_BootCommandProcess@commandHeader
  3072   000E44  C04C  F058         	movff	??_BL_BootCommandProcess+15,BL_BootCommandProcess@commandHeader+1
  3073   000E48  0E00               	movlw	0
  3074   000E4A  BE58               	btfsc	(BL_BootCommandProcess@commandHeader+1)^0,7,c
  3075   000E4C  0EFF               	movlw	-1
  3076   000E4E  6E59               	movwf	(BL_BootCommandProcess@commandHeader+2)^0,c
  3077   000E50  6E5A               	movwf	(BL_BootCommandProcess@commandHeader+3)^0,c
  3078   000E52                     
  3079                           ;mcc_generated_files/bootloader/library/core/bl_core.c: 119:     printf("A:%lx \n\r",com
      +                          mandHeader.startAddress);
  3080   000E52  0E78               	movlw	low STR_5
  3081   000E54  6E1E               	movwf	printf@fmt^0,c
  3082   000E56  C057  F01F         	movff	BL_BootCommandProcess@commandHeader,?_printf+1
  3083   000E5A  C058  F020         	movff	BL_BootCommandProcess@commandHeader+1,?_printf+2
  3084   000E5E  C059  F021         	movff	BL_BootCommandProcess@commandHeader+2,?_printf+3
  3085   000E62  C05A  F022         	movff	BL_BootCommandProcess@commandHeader+3,?_printf+4
  3086   000E66  ECCE  F010         	call	_printf	;wreg free
  3087   000E6A                     
  3088                           ;mcc_generated_files/bootloader/library/core/bl_core.c: 121:     key_structure_t userPro
      +                          videdKeys = {
  3089   000E6A  EE20  F0B2         	lfsr	2,BL_BootCommandProcess@F6839
  3090   000E6E  EE10  F04D         	lfsr	1,BL_BootCommandProcess@userProvidedKeys
  3091   000E72  0E07               	movlw	7
  3092   000E74                     u4211:
  3093   000E74  CFDB FFE3          	movff	plusw2,plusw1
  3094   000E78  06E8               	decf	wreg,f,c
  3095   000E7A  E2FC               	bc	u4211
  3096   000E7C                     
  3097                           ;mcc_generated_files/bootloader/library/core/bl_core.c: 128:     if(firstTimeIn)
  3098   000E7C  0100               	movlb	0	; () banked
  3099   000E7E  5186               	movf	_firstTimeIn& (0+255),w,b
  3100   000E80  B4D8               	btfsc	status,2,c
  3101   000E82  EF45  F007         	goto	u4221
  3102   000E86  EF47  F007         	goto	u4220
  3103   000E8A                     u4221:
  3104   000E8A  EF50  F007         	goto	l5177
  3105   000E8E                     u4220:
  3106   000E8E                     
  3107                           ; BSR set to: 0
  3108   000E8E  C039  F023         	movff	BL_BootCommandProcess@bootDataPtr,BootloaderProcessorUnlock@bufferPtr
  3109   000E92  C03A  F024         	movff	BL_BootCommandProcess@bootDataPtr+1,BootloaderProcessorUnlock@bufferPtr+1
  3110   000E96  ECCF  F00A         	call	_BootloaderProcessorUnlock	;wreg free
  3111   000E9A                     
  3112                           ;mcc_generated_files/bootloader/library/core/bl_core.c: 131:         firstTimeIn = 0;
  3113   000E9A  0E00               	movlw	0
  3114   000E9C  0100               	movlb	0	; () banked
  3115   000E9E  6F86               	movwf	_firstTimeIn& (0+255),b
  3116   000EA0                     l5177:
  3117                           
  3118                           ; BSR set to: 0
  3119                           ;mcc_generated_files/bootloader/library/core/bl_core.c: 135:     BL_MemoryUnlockKeysInit
      +                          (userProvidedKeys);
  3120   000EA0  EE20  F04D         	lfsr	2,BL_BootCommandProcess@userProvidedKeys
  3121   000EA4  EE00  F001         	lfsr	0,BL_MemoryUnlockKeysInit@keys
  3122   000EA8  0E07               	movlw	7
  3123   000EAA                     u4231:
  3124   000EAA  CFDB FFEB          	movff	plusw2,plusw0
  3125   000EAE  06E8               	decf	wreg,f,c
  3126   000EB0  E2FC               	bc	u4231
  3127   000EB2  EC58  F010         	call	_BL_MemoryUnlockKeysInit	;wreg free
  3128   000EB6                     
  3129                           ;mcc_generated_files/bootloader/library/core/bl_core.c: 138:     if((flash_address_t) co
      +                          mmandHeader.startAddress >= (flash_address_t) (0x3000))
  3130   000EB6  505A               	movf	(BL_BootCommandProcess@commandHeader+3)^0,w,c
  3131   000EB8  1059               	iorwf	(BL_BootCommandProcess@commandHeader+2)^0,w,c
  3132   000EBA  E109               	bnz	u4240
  3133   000EBC  0E30               	movlw	48
  3134   000EBE  5C58               	subwf	(BL_BootCommandProcess@commandHeader+1)^0,w,c
  3135   000EC0  A0D8               	btfss	status,0,c
  3136   000EC2  EF65  F007         	goto	u4241
  3137   000EC6  EF67  F007         	goto	u4240
  3138   000ECA                     u4241:
  3139   000ECA  EF8C  F007         	goto	l5189
  3140   000ECE                     u4240:
  3141   000ECE                     
  3142                           ;mcc_generated_files/bootloader/library/core/bl_core.c: 139:     {;mcc_generated_files/b
      +                          ootloader/library/core/bl_core.c: 140:         bl_mem_result_t memoryStatus = BL_FlashWr
      +                          ite((flash_address_t) commandHeader.startAddress,
  3143   000ECE  C057  F016         	movff	BL_BootCommandProcess@commandHeader,BL_FlashWrite@address
  3144   000ED2  C058  F017         	movff	BL_BootCommandProcess@commandHeader+1,BL_FlashWrite@address+1
  3145   000ED6  C059  F018         	movff	BL_BootCommandProcess@commandHeader+2,BL_FlashWrite@address+2
  3146   000EDA  C05A  F019         	movff	BL_BootCommandProcess@commandHeader+3,BL_FlashWrite@address+3
  3147   000EDE  0E04               	movlw	4
  3148   000EE0  2439               	addwf	BL_BootCommandProcess@bootDataPtr^0,w,c
  3149   000EE2  6E1A               	movwf	BL_FlashWrite@buffer^0,c
  3150   000EE4  0E00               	movlw	0
  3151   000EE6  203A               	addwfc	(BL_BootCommandProcess@bootDataPtr+1)^0,w,c
  3152   000EE8  6E1B               	movwf	(BL_FlashWrite@buffer+1)^0,c
  3153   000EEA  0E00               	movlw	0
  3154   000EEC  6E1D               	movwf	(BL_FlashWrite@length+1)^0,c
  3155   000EEE  0E40               	movlw	64
  3156   000EF0  6E1C               	movwf	BL_FlashWrite@length^0,c
  3157   000EF2  EC4A  F003         	call	_BL_FlashWrite	;wreg free
  3158   000EF6  6E55               	movwf	BL_BootCommandProcess@memoryStatus^0,c
  3159   000EF8                     
  3160                           ;mcc_generated_files/bootloader/library/core/bl_core.c: 145:         bootCommandStatus =
      +                           (memoryStatus == BL_MEM_PASS) ? BL_PASS : BL_ERROR_COMMAND_PROCESSING;
  3161   000EF8  5055               	movf	BL_BootCommandProcess@memoryStatus^0,w,c
  3162   000EFA  B4D8               	btfsc	status,2,c
  3163   000EFC  EF82  F007         	goto	u4251
  3164   000F00  EF84  F007         	goto	u4250
  3165   000F04                     u4251:
  3166   000F04  EF88  F007         	goto	l5187
  3167   000F08                     u4250:
  3168   000F08  0E7E               	movlw	126
  3169   000F0A  6E56               	movwf	BL_BootCommandProcess@bootCommandStatus^0,c
  3170   000F0C  EF8E  F007         	goto	l5191
  3171   000F10                     l5187:
  3172   000F10  0E81               	movlw	129
  3173   000F12  6E56               	movwf	BL_BootCommandProcess@bootCommandStatus^0,c
  3174   000F14  EF8E  F007         	goto	l5191
  3175   000F18                     l5189:
  3176                           
  3177                           ;mcc_generated_files/bootloader/library/core/bl_core.c: 148:     {;mcc_generated_files/b
      +                          ootloader/library/core/bl_core.c: 149:         bootCommandStatus = BL_ERROR_ADDRESS_OUT_
      +                          OF_RANGE;
  3178   000F18  0E24               	movlw	36
  3179   000F1A  6E56               	movwf	BL_BootCommandProcess@bootCommandStatus^0,c
  3180   000F1C                     l5191:
  3181                           
  3182                           ;mcc_generated_files/bootloader/library/core/bl_core.c: 151:     BL_MemoryUnlockKeysClea
      +                          r();
  3183   000F1C  EC46  F010         	call	_BL_MemoryUnlockKeysClear	;wreg free
  3184   000F20                     
  3185                           ;mcc_generated_files/bootloader/library/core/bl_core.c: 152:     return bootCommandStatu
      +                          s;
  3186   000F20  5056               	movf	BL_BootCommandProcess@bootCommandStatus^0,w,c
  3187   000F22  0012               	return		;funcret
  3188   000F24                     __end_of_BL_BootCommandProcess:
  3189                           	callstack 0
  3190                           
  3191 ;; *************** function _printf *****************
  3192 ;; Defined at:
  3193 ;;		line 5 in file "C:\Program Files\Microchip\xc8\v2.46\pic\sources\c99\common\printf.c"
  3194 ;; Parameters:    Size  Location     Type
  3195 ;;  fmt             1   29[COMRAM] PTR const unsigned char 
  3196 ;;		 -> STR_6(9), STR_5(9), STR_4(6), STR_3(14), 
  3197 ;;		 -> STR_2(5), STR_1(7), 
  3198 ;; Auto vars:     Size  Location     Type
  3199 ;;  ret             2    0        int 
  3200 ;;  ap              1   34[COMRAM] PTR void [1]
  3201 ;;		 -> ?_printf(2), 
  3202 ;; Return value:  Size  Location     Type
  3203 ;;                  2   29[COMRAM] int 
  3204 ;; Registers used:
  3205 ;;		wreg, fsr1l, fsr1h, fsr2l, fsr2h, status,2, status,0, tblptrl, tblptrh, tblptru, cstack
  3206 ;; Tracked objects:
  3207 ;;		On entry : 0/0
  3208 ;;		On exit  : 0/0
  3209 ;;		Unchanged: 0/0
  3210 ;; Data sizes:     COMRAM   BANK0   BANK1   BANK2   BANK3   BANK4   BANK5
  3211 ;;      Params:         5       0       0       0       0       0       0
  3212 ;;      Locals:         1       0       0       0       0       0       0
  3213 ;;      Temps:          0       0       0       0       0       0       0
  3214 ;;      Totals:         6       0       0       0       0       0       0
  3215 ;;Total ram usage:        6 bytes
  3216 ;; Hardware stack levels used: 1
  3217 ;; Hardware stack levels required when called: 5
  3218 ;; This function calls:
  3219 ;;		_vfprintf
  3220 ;; This function is called by:
  3221 ;;		_FTP_Task
  3222 ;;		_OperationalBlockExecute
  3223 ;;		_BL_BootCommandProcess
  3224 ;;		_main
  3225 ;; This function uses a non-reentrant model
  3226 ;;
  3227                           
  3228                           	psect	text22
  3229   00219C                     __ptext22:
  3230                           	callstack 0
  3231   00219C                     _printf:
  3232                           	callstack 25
  3233   00219C  0E1F               	movlw	low (?_printf+1)
  3234   00219E  6E23               	movwf	printf@ap^0,c
  3235   0021A0  0E00               	movlw	0
  3236   0021A2  6E19               	movwf	vfprintf@fp^0,c
  3237   0021A4  0E00               	movlw	0
  3238   0021A6  6E1A               	movwf	(vfprintf@fp+1)^0,c
  3239   0021A8  C01E  F01B         	movff	printf@fmt,vfprintf@fmt
  3240   0021AC  0E23               	movlw	low printf@ap
  3241   0021AE  6E1C               	movwf	vfprintf@ap^0,c
  3242   0021B0  EC22  F00F         	call	_vfprintf	;wreg free
  3243   0021B4  0012               	return		;funcret
  3244   0021B6                     __end_of_printf:
  3245                           	callstack 0
  3246                           
  3247 ;; *************** function _vfprintf *****************
  3248 ;; Defined at:
  3249 ;;		line 1817 in file "C:\Program Files\Microchip\xc8\v2.46\pic\sources\c99\common\doprnt.c"
  3250 ;; Parameters:    Size  Location     Type
  3251 ;;  fp              2   24[COMRAM] PTR struct _IO_FILE
  3252 ;;		 -> NULL(0), 
  3253 ;;  fmt             1   26[COMRAM] PTR const unsigned char 
  3254 ;;		 -> STR_6(9), STR_5(9), STR_4(6), STR_3(14), 
  3255 ;;		 -> STR_2(5), STR_1(7), 
  3256 ;;  ap              1   27[COMRAM] PTR PTR void 
  3257 ;;		 -> printf@ap(1), 
  3258 ;; Auto vars:     Size  Location     Type
  3259 ;;  cfmt            1   28[COMRAM] PTR unsigned char 
  3260 ;;		 -> STR_6(9), STR_5(9), STR_4(6), STR_3(14), 
  3261 ;;		 -> STR_2(5), STR_1(7), 
  3262 ;; Return value:  Size  Location     Type
  3263 ;;                  2   24[COMRAM] int 
  3264 ;; Registers used:
  3265 ;;		wreg, fsr1l, fsr1h, fsr2l, fsr2h, status,2, status,0, tblptrl, tblptrh, tblptru, cstack
  3266 ;; Tracked objects:
  3267 ;;		On entry : 0/0
  3268 ;;		On exit  : 0/0
  3269 ;;		Unchanged: 0/0
  3270 ;; Data sizes:     COMRAM   BANK0   BANK1   BANK2   BANK3   BANK4   BANK5
  3271 ;;      Params:         4       0       0       0       0       0       0
  3272 ;;      Locals:         1       0       0       0       0       0       0
  3273 ;;      Temps:          0       0       0       0       0       0       0
  3274 ;;      Totals:         5       0       0       0       0       0       0
  3275 ;;Total ram usage:        5 bytes
  3276 ;; Hardware stack levels used: 1
  3277 ;; Hardware stack levels required when called: 4
  3278 ;; This function calls:
  3279 ;;		_vfpfcnvrt
  3280 ;; This function is called by:
  3281 ;;		_printf
  3282 ;; This function uses a non-reentrant model
  3283 ;;
  3284                           
  3285                           	psect	text23
  3286   001E44                     __ptext23:
  3287                           	callstack 0
  3288   001E44                     _vfprintf:
  3289                           	callstack 25
  3290   001E44                     
  3291                           ;C:\Program Files\Microchip\xc8\v2.46\pic\sources\c99\common\doprnt.c: 1817: int vfprint
      +                          f(FILE *fp, const char *fmt, va_list ap);C:\Program Files\Microchip\xc8\v2.46\pic\source
      +                          s\c99\common\doprnt.c: 1818: {;C:\Program Files\Microchip\xc8\v2.46\pic\sources\c99\comm
      +                          on\doprnt.c: 1820:     char *cfmt;;C:\Program Files\Microchip\xc8\v2.46\pic\sources\c99\
      +                          common\doprnt.c: 1822:     cfmt = (char *)fmt;
  3292   001E44  C01B  F01D         	movff	vfprintf@fmt,vfprintf@cfmt
  3293                           
  3294                           ;C:\Program Files\Microchip\xc8\v2.46\pic\sources\c99\common\doprnt.c: 1826:     while (
      +                          *cfmt) {
  3295   001E48  EF30  F00F         	goto	l4839
  3296   001E4C                     l4837:
  3297                           
  3298                           ;C:\Program Files\Microchip\xc8\v2.46\pic\sources\c99\common\doprnt.c: 1830:    vfpfcnvr
      +                          t(fp, &cfmt, ap);
  3299   001E4C  C019  F00C         	movff	vfprintf@fp,vfpfcnvrt@fp
  3300   001E50  C01A  F00D         	movff	vfprintf@fp+1,vfpfcnvrt@fp+1
  3301   001E54  0E1D               	movlw	low vfprintf@cfmt
  3302   001E56  6E0E               	movwf	vfpfcnvrt@fmt^0,c
  3303   001E58  C01C  F00F         	movff	vfprintf@ap,vfpfcnvrt@ap
  3304   001E5C  ECD4  F004         	call	_vfpfcnvrt	;wreg free
  3305   001E60                     l4839:
  3306                           
  3307                           ;C:\Program Files\Microchip\xc8\v2.46\pic\sources\c99\common\doprnt.c: 1826:     while (
      +                          *cfmt) {
  3308   001E60  C01D  FFF6         	movff	vfprintf@cfmt,tblptrl
  3309   001E64                     	if	1	;There is more than 1 active tblptr byte
  3310   001E64  0E06               	movlw	high __smallconst
  3311   001E66  6EF7               	movwf	tblptrh,c
  3312   001E68                     	endif
  3313   001E68                     	if	0	;tblptru may be non-zero
  3314   001E68                     	endif
  3315   001E68                     	if	0	;tblptru may be non-zero
  3316   001E68                     	endif
  3317   001E68  0008               	tblrd		*
  3318   001E6A  50F5               	movf	tablat,w,c
  3319   001E6C  0900               	iorlw	0
  3320   001E6E  A4D8               	btfss	status,2,c
  3321   001E70  EF3C  F00F         	goto	u3661
  3322   001E74  EF3E  F00F         	goto	u3660
  3323   001E78                     u3661:
  3324   001E78  EF26  F00F         	goto	l4837
  3325   001E7C                     u3660:
  3326   001E7C                     
  3327                           ;C:\Program Files\Microchip\xc8\v2.46\pic\sources\c99\common\doprnt.c: 1835:  return 0;
  3328   001E7C  0E00               	movlw	0
  3329   001E7E  6E1A               	movwf	(?_vfprintf+1)^0,c
  3330   001E80  0E00               	movlw	0
  3331   001E82  6E19               	movwf	?_vfprintf^0,c
  3332   001E84  0012               	return		;funcret
  3333   001E86                     __end_of_vfprintf:
  3334                           	callstack 0
  3335                           
  3336 ;; *************** function _vfpfcnvrt *****************
  3337 ;; Defined at:
  3338 ;;		line 1177 in file "C:\Program Files\Microchip\xc8\v2.46\pic\sources\c99\common\doprnt.c"
  3339 ;; Parameters:    Size  Location     Type
  3340 ;;  fp              2   11[COMRAM] PTR struct _IO_FILE
  3341 ;;		 -> NULL(0), 
  3342 ;;  fmt             1   13[COMRAM] PTR PTR unsigned char 
  3343 ;;		 -> vfprintf@cfmt(1), 
  3344 ;;  ap              1   14[COMRAM] PTR PTR void 
  3345 ;;		 -> printf@ap(1), 
  3346 ;; Auto vars:     Size  Location     Type
  3347 ;;  convarg         4   17[COMRAM] struct .
  3348 ;;  c               1   23[COMRAM] unsigned char 
  3349 ;;  cp              1   22[COMRAM] PTR unsigned char 
  3350 ;;		 -> STR_6(9), STR_5(9), STR_4(6), STR_3(14), 
  3351 ;;		 -> STR_2(5), STR_1(7), 
  3352 ;;  x               1   21[COMRAM] unsigned char 
  3353 ;;  done            1    0        _Bool 
  3354 ;; Return value:  Size  Location     Type
  3355 ;;                  1    wreg      void 
  3356 ;; Registers used:
  3357 ;;		wreg, fsr1l, fsr1h, fsr2l, fsr2h, status,2, status,0, tblptrl, tblptrh, tblptru, cstack
  3358 ;; Tracked objects:
  3359 ;;		On entry : 0/0
  3360 ;;		On exit  : 0/0
  3361 ;;		Unchanged: 0/0
  3362 ;; Data sizes:     COMRAM   BANK0   BANK1   BANK2   BANK3   BANK4   BANK5
  3363 ;;      Params:         4       0       0       0       0       0       0
  3364 ;;      Locals:         7       0       0       0       0       0       0
  3365 ;;      Temps:          2       0       0       0       0       0       0
  3366 ;;      Totals:        13       0       0       0       0       0       0
  3367 ;;Total ram usage:       13 bytes
  3368 ;; Hardware stack levels used: 1
  3369 ;; Hardware stack levels required when called: 3
  3370 ;; This function calls:
  3371 ;;		_fputc
  3372 ;; This function is called by:
  3373 ;;		_vfprintf
  3374 ;; This function uses a non-reentrant model
  3375 ;;
  3376                           
  3377                           	psect	text24
  3378   0009A8                     __ptext24:
  3379                           	callstack 0
  3380   0009A8                     _vfpfcnvrt:
  3381                           	callstack 25
  3382   0009A8                     
  3383                           ;C:\Program Files\Microchip\xc8\v2.46\pic\sources\c99\common\doprnt.c: 1177: vfpfcnvrt(F
      +                          ILE *fp, char *fmt[], va_list ap);C:\Program Files\Microchip\xc8\v2.46\pic\sources\c99\c
      +                          ommon\doprnt.c: 1178: {;C:\Program Files\Microchip\xc8\v2.46\pic\sources\c99\common\dopr
      +                          nt.c: 1179:     char c, *cp;;C:\Program Files\Microchip\xc8\v2.46\pic\sources\c99\common
      +                          \doprnt.c: 1180:     _Bool done;;C:\Program Files\Microchip\xc8\v2.46\pic\sources\c99\co
      +                          mmon\doprnt.c: 1188:  } convarg;;C:\Program Files\Microchip\xc8\v2.46\pic\sources\c99\co
      +                          mmon\doprnt.c: 1194:  char x;
  3384   0009A8  500E               	movf	vfpfcnvrt@fmt^0,w,c
  3385   0009AA  6ED9               	movwf	fsr2l,c
  3386   0009AC  6ADA               	clrf	fsr2h,c
  3387   0009AE  CFDF FFF6          	movff	indf2,tblptrl
  3388   0009B2                     	if	1	;There is more than 1 active tblptr byte
  3389   0009B2  0E06               	movlw	high __smallconst
  3390   0009B4  6EF7               	movwf	tblptrh,c
  3391   0009B6                     	endif
  3392   0009B6                     	if	0	;tblptru may be non-zero
  3393   0009B6                     	endif
  3394   0009B6                     	if	0	;tblptru may be non-zero
  3395   0009B6                     	endif
  3396   0009B6  0008               	tblrd		*
  3397   0009B8  50F5               	movf	tablat,w,c
  3398   0009BA  0A25               	xorlw	37
  3399   0009BC  A4D8               	btfss	status,2,c
  3400   0009BE  EFE3  F004         	goto	u3451
  3401   0009C2  EFE5  F004         	goto	u3450
  3402   0009C6                     u3451:
  3403   0009C6  EFC8  F005         	goto	l4681
  3404   0009CA                     u3450:
  3405   0009CA                     
  3406                           ;C:\Program Files\Microchip\xc8\v2.46\pic\sources\c99\common\doprnt.c: 1202:         ++*
      +                          fmt;
  3407   0009CA  500E               	movf	vfpfcnvrt@fmt^0,w,c
  3408   0009CC  6ED9               	movwf	fsr2l,c
  3409   0009CE  6ADA               	clrf	fsr2h,c
  3410   0009D0  2ADF               	incf	indf2,f,c
  3411   0009D2                     
  3412                           ;C:\Program Files\Microchip\xc8\v2.46\pic\sources\c99\common\doprnt.c: 1204:         fla
      +                          gs = width = 0;
  3413   0009D2  0E00               	movlw	0
  3414   0009D4  0100               	movlb	0	; () banked
  3415   0009D6  6F66               	movwf	(_width+1)& (0+255),b
  3416   0009D8  0E00               	movlw	0
  3417   0009DA  6F65               	movwf	_width& (0+255),b
  3418   0009DC  C065  F085         	movff	_width,_flags
  3419   0009E0                     
  3420                           ; BSR set to: 0
  3421                           ;C:\Program Files\Microchip\xc8\v2.46\pic\sources\c99\common\doprnt.c: 1205:         pre
      +                          c = -1;
  3422   0009E0  6967               	setf	_prec& (0+255),b
  3423   0009E2  6968               	setf	(_prec+1)& (0+255),b
  3424   0009E4                     
  3425                           ; BSR set to: 0
  3426                           ;C:\Program Files\Microchip\xc8\v2.46\pic\sources\c99\common\doprnt.c: 1291:   cp = *fmt
      +                          ;
  3427   0009E4  500E               	movf	vfpfcnvrt@fmt^0,w,c
  3428   0009E6  6ED9               	movwf	fsr2l,c
  3429   0009E8  6ADA               	clrf	fsr2h,c
  3430   0009EA  50DF               	movf	indf2,w,c
  3431   0009EC  6E17               	movwf	vfpfcnvrt@cp^0,c
  3432   0009EE                     
  3433                           ; BSR set to: 0
  3434                           ;C:\Program Files\Microchip\xc8\v2.46\pic\sources\c99\common\doprnt.c: 1293:   c = *cp;
  3435   0009EE  C017  FFF6         	movff	vfpfcnvrt@cp,tblptrl
  3436   0009F2                     	if	1	;There is more than 1 active tblptr byte
  3437   0009F2  0E06               	movlw	high __smallconst
  3438   0009F4  6EF7               	movwf	tblptrh,c
  3439   0009F6                     	endif
  3440   0009F6                     	if	0	;tblptru may be non-zero
  3441   0009F6                     	endif
  3442   0009F6                     	if	0	;tblptru may be non-zero
  3443   0009F6                     	endif
  3444   0009F6  0008               	tblrd		*
  3445   0009F8  CFF5 F018          	movff	tablat,vfpfcnvrt@c
  3446                           
  3447                           ;C:\Program Files\Microchip\xc8\v2.46\pic\sources\c99\common\doprnt.c: 1294:   switch(c)
      +                           {
  3448   0009FC  EF0B  F005         	goto	l4635
  3449   000A00                     l4627:
  3450                           
  3451                           ; BSR set to: 0
  3452                           ;C:\Program Files\Microchip\xc8\v2.46\pic\sources\c99\common\doprnt.c: 1309:     cp++;
  3453   000A00  2A17               	incf	vfpfcnvrt@cp^0,f,c
  3454                           
  3455                           ;C:\Program Files\Microchip\xc8\v2.46\pic\sources\c99\common\doprnt.c: 1316:     break;
  3456   000A02  EF16  F005         	goto	l4637
  3457   000A06                     l4629:
  3458                           
  3459                           ; BSR set to: 0
  3460                           ;C:\Program Files\Microchip\xc8\v2.46\pic\sources\c99\common\doprnt.c: 1350:     c = 'i'
      +                          ;
  3461   000A06  0E69               	movlw	105
  3462   000A08  6E18               	movwf	vfpfcnvrt@c^0,c
  3463                           
  3464                           ;C:\Program Files\Microchip\xc8\v2.46\pic\sources\c99\common\doprnt.c: 1351:     break;
  3465   000A0A  EF16  F005         	goto	l4637
  3466   000A0E                     l4631:
  3467                           
  3468                           ; BSR set to: 0
  3469                           ;C:\Program Files\Microchip\xc8\v2.46\pic\sources\c99\common\doprnt.c: 1353:     c = 0;
  3470   000A0E  0E00               	movlw	0
  3471   000A10  6E18               	movwf	vfpfcnvrt@c^0,c
  3472                           
  3473                           ;C:\Program Files\Microchip\xc8\v2.46\pic\sources\c99\common\doprnt.c: 1354:     break;
  3474   000A12  EF16  F005         	goto	l4637
  3475   000A16                     l4635:
  3476                           
  3477                           ; BSR set to: 0
  3478   000A16  5018               	movf	vfpfcnvrt@c^0,w,c
  3479                           
  3480                           ; Switch size 1, requested type "simple"
  3481                           ; Number of cases is 2, Range of values is 108 to 120
  3482                           ; switch strategies available:
  3483                           ; Name         Instructions Cycles
  3484                           ; simple_byte            7     4 (average)
  3485                           ;	Chosen strategy is simple_byte
  3486   000A18  0A6C               	xorlw	108	; case 108
  3487   000A1A  B4D8               	btfsc	status,2,c
  3488   000A1C  EF00  F005         	goto	l4627
  3489   000A20  0A14               	xorlw	20	; case 120
  3490   000A22  B4D8               	btfsc	status,2,c
  3491   000A24  EF03  F005         	goto	l4629
  3492   000A28  EF07  F005         	goto	l4631
  3493   000A2C                     l4637:
  3494                           
  3495                           ; BSR set to: 0
  3496   000A2C  C017  FFF6         	movff	vfpfcnvrt@cp,tblptrl
  3497   000A30                     	if	1	;There is more than 1 active tblptr byte
  3498   000A30  0E06               	movlw	high __smallconst
  3499   000A32  6EF7               	movwf	tblptrh,c
  3500   000A34                     	endif
  3501   000A34                     	if	0	;tblptru may be non-zero
  3502   000A34                     	endif
  3503   000A34                     	if	0	;tblptru may be non-zero
  3504   000A34                     	endif
  3505   000A34  0008               	tblrd		*
  3506   000A36  50F5               	movf	tablat,w,c
  3507   000A38  0A78               	xorlw	120
  3508   000A3A  A4D8               	btfss	status,2,c
  3509   000A3C  EF22  F005         	goto	u3461
  3510   000A40  EF24  F005         	goto	u3460
  3511   000A44                     u3461:
  3512   000A44  EFC2  F005         	goto	l4677
  3513   000A48                     u3460:
  3514   000A48  EF4C  F005         	goto	l4645
  3515   000A4C                     l4639:
  3516                           
  3517                           ; BSR set to: 0
  3518                           ;C:\Program Files\Microchip\xc8\v2.46\pic\sources\c99\common\doprnt.c: 1456:      convar
      +                          g.uint = (vfpf_uint_t)(unsigned int)(*(unsigned int *)__va_arg(*(unsigned int **)ap, (un
      +                          signed int)0));
  3519   000A4C  500F               	movf	vfpfcnvrt@ap^0,w,c
  3520   000A4E  6ED9               	movwf	fsr2l,c
  3521   000A50  6ADA               	clrf	fsr2h,c
  3522   000A52  50DF               	movf	indf2,w,c
  3523   000A54  2ADF               	incf	indf2,f,c
  3524   000A56  2ADF               	incf	indf2,f,c
  3525   000A58  6ED9               	movwf	fsr2l,c
  3526   000A5A  6ADA               	clrf	fsr2h,c
  3527   000A5C  CFDE F010          	movff	postinc2,??_vfpfcnvrt
  3528   000A60  CFDD F011          	movff	postdec2,??_vfpfcnvrt+1
  3529   000A64  C010  F012         	movff	??_vfpfcnvrt,vfpfcnvrt@convarg
  3530   000A68  C011  F013         	movff	??_vfpfcnvrt+1,vfpfcnvrt@convarg+1
  3531   000A6C  6A14               	clrf	(vfpfcnvrt@convarg+2)^0,c
  3532   000A6E  6A15               	clrf	(vfpfcnvrt@convarg+3)^0,c
  3533                           
  3534                           ;C:\Program Files\Microchip\xc8\v2.46\pic\sources\c99\common\doprnt.c: 1457:      break;
  3535   000A70  EF57  F005         	goto	l4647
  3536   000A74                     l4641:
  3537                           
  3538                           ; BSR set to: 0
  3539                           ;C:\Program Files\Microchip\xc8\v2.46\pic\sources\c99\common\doprnt.c: 1470:      convar
      +                          g.uint = (vfpf_uint_t)(*(unsigned long *)__va_arg(*(unsigned long **)ap, (unsigned long)
      +                          0));
  3540   000A74  500F               	movf	vfpfcnvrt@ap^0,w,c
  3541   000A76  6ED9               	movwf	fsr2l,c
  3542   000A78  6ADA               	clrf	fsr2h,c
  3543   000A7A  0E04               	movlw	4
  3544   000A7C  26DF               	addwf	indf2,f,c
  3545   000A7E  5CDF               	subwf	indf2,w,c
  3546   000A80  6ED9               	movwf	fsr2l,c
  3547   000A82  6ADA               	clrf	fsr2h,c
  3548   000A84  CFDE F012          	movff	postinc2,vfpfcnvrt@convarg
  3549   000A88  CFDE F013          	movff	postinc2,vfpfcnvrt@convarg+1
  3550   000A8C  CFDE F014          	movff	postinc2,vfpfcnvrt@convarg+2
  3551   000A90  CFDE F015          	movff	postinc2,vfpfcnvrt@convarg+3
  3552                           
  3553                           ;C:\Program Files\Microchip\xc8\v2.46\pic\sources\c99\common\doprnt.c: 1471:      break;
  3554   000A94  EF57  F005         	goto	l4647
  3555   000A98                     l4645:
  3556                           
  3557                           ; BSR set to: 0
  3558   000A98  5018               	movf	vfpfcnvrt@c^0,w,c
  3559                           
  3560                           ; Switch size 1, requested type "simple"
  3561                           ; Number of cases is 2, Range of values is 105 to 108
  3562                           ; switch strategies available:
  3563                           ; Name         Instructions Cycles
  3564                           ; simple_byte            7     4 (average)
  3565                           ;	Chosen strategy is simple_byte
  3566   000A9A  0A69               	xorlw	105	; case 105
  3567   000A9C  B4D8               	btfsc	status,2,c
  3568   000A9E  EF26  F005         	goto	l4639
  3569   000AA2  0A05               	xorlw	5	; case 108
  3570   000AA4  B4D8               	btfsc	status,2,c
  3571   000AA6  EF3A  F005         	goto	l4641
  3572   000AAA  EF57  F005         	goto	l4647
  3573   000AAE                     l4647:
  3574                           
  3575                           ; BSR set to: 0
  3576                           ;C:\Program Files\Microchip\xc8\v2.46\pic\sources\c99\common\doprnt.c: 1497:    *fmt = c
      +                          p+1;
  3577   000AAE  500E               	movf	vfpfcnvrt@fmt^0,w,c
  3578   000AB0  6ED9               	movwf	fsr2l,c
  3579   000AB2  6ADA               	clrf	fsr2h,c
  3580   000AB4  2817               	incf	vfpfcnvrt@cp^0,w,c
  3581   000AB6  6EDF               	movwf	indf2,c
  3582                           
  3583                           ;C:\Program Files\Microchip\xc8\v2.46\pic\sources\c99\common\doprnt.c: 1498:    switch (
      +                          *cp) {
  3584   000AB8  EFB6  F005         	goto	l4675
  3585   000ABC                     l4649:
  3586                           
  3587                           ; BSR set to: 0
  3588                           ;C:\Program Files\Microchip\xc8\v2.46\pic\sources\c99\common\doprnt.c: 1553:      c = si
      +                          zeof(dbuf);
  3589   000ABC  0E20               	movlw	32
  3590   000ABE  6E18               	movwf	vfpfcnvrt@c^0,c
  3591   000AC0                     l4651:
  3592                           
  3593                           ;C:\Program Files\Microchip\xc8\v2.46\pic\sources\c99\common\doprnt.c: 1558:       x = (
      +                          convarg.uint & 0xf);
  3594   000AC0  5012               	movf	vfpfcnvrt@convarg^0,w,c
  3595   000AC2  0B0F               	andlw	15
  3596   000AC4  6E16               	movwf	vfpfcnvrt@x^0,c
  3597   000AC6                     
  3598                           ;C:\Program Files\Microchip\xc8\v2.46\pic\sources\c99\common\doprnt.c: 1559:       if (x
      +                           < 10) {
  3599   000AC6  0E0A               	movlw	10
  3600   000AC8  6016               	cpfslt	vfpfcnvrt@x^0,c
  3601   000ACA  EF69  F005         	goto	u3471
  3602   000ACE  EF6B  F005         	goto	u3470
  3603   000AD2                     u3471:
  3604   000AD2  EF6F  F005         	goto	l4657
  3605   000AD6                     u3470:
  3606   000AD6                     
  3607                           ;C:\Program Files\Microchip\xc8\v2.46\pic\sources\c99\common\doprnt.c: 1560:        x +=
      +                           '0';
  3608   000AD6  0E30               	movlw	48
  3609   000AD8  2616               	addwf	vfpfcnvrt@x^0,f,c
  3610                           
  3611                           ;C:\Program Files\Microchip\xc8\v2.46\pic\sources\c99\common\doprnt.c: 1561:       }
  3612   000ADA  EF71  F005         	goto	l4659
  3613   000ADE                     l4657:
  3614                           
  3615                           ;C:\Program Files\Microchip\xc8\v2.46\pic\sources\c99\common\doprnt.c: 1566:        x +=
      +                           'a' - 10;
  3616   000ADE  0E57               	movlw	87
  3617   000AE0  2616               	addwf	vfpfcnvrt@x^0,f,c
  3618   000AE2                     l4659:
  3619                           
  3620                           ;C:\Program Files\Microchip\xc8\v2.46\pic\sources\c99\common\doprnt.c: 1571:       dbuf[
      +                          --c] = x;
  3621   000AE2  0618               	decf	vfpfcnvrt@c^0,f,c
  3622   000AE4  0E00               	movlw	low _dbuf
  3623   000AE6  2418               	addwf	vfpfcnvrt@c^0,w,c
  3624   000AE8  6ED9               	movwf	fsr2l,c
  3625   000AEA  6ADA               	clrf	fsr2h,c
  3626   000AEC  0E01               	movlw	high _dbuf
  3627   000AEE  22DA               	addwfc	fsr2h,f,c
  3628   000AF0  C016  FFDF         	movff	vfpfcnvrt@x,indf2
  3629   000AF4                     
  3630                           ;C:\Program Files\Microchip\xc8\v2.46\pic\sources\c99\common\doprnt.c: 1572:       conva
      +                          rg.uint >>= 4;
  3631   000AF4  0E04               	movlw	4
  3632   000AF6  6E10               	movwf	??_vfpfcnvrt^0,c
  3633   000AF8                     u3485:
  3634   000AF8  90D8               	bcf	status,0,c
  3635   000AFA  3215               	rrcf	(vfpfcnvrt@convarg+3)^0,f,c
  3636   000AFC  3214               	rrcf	(vfpfcnvrt@convarg+2)^0,f,c
  3637   000AFE  3213               	rrcf	(vfpfcnvrt@convarg+1)^0,f,c
  3638   000B00  3212               	rrcf	vfpfcnvrt@convarg^0,f,c
  3639   000B02  2E10               	decfsz	??_vfpfcnvrt^0,f,c
  3640   000B04  EF7C  F005         	goto	u3485
  3641   000B08                     
  3642                           ;C:\Program Files\Microchip\xc8\v2.46\pic\sources\c99\common\doprnt.c: 1576:      } whil
      +                          e (convarg.uint != 0 && c != 0);
  3643   000B08  5012               	movf	vfpfcnvrt@convarg^0,w,c
  3644   000B0A  1013               	iorwf	(vfpfcnvrt@convarg+1)^0,w,c
  3645   000B0C  1014               	iorwf	(vfpfcnvrt@convarg+2)^0,w,c
  3646   000B0E  1015               	iorwf	(vfpfcnvrt@convarg+3)^0,w,c
  3647   000B10  B4D8               	btfsc	status,2,c
  3648   000B12  EF8D  F005         	goto	u3491
  3649   000B16  EF8F  F005         	goto	u3490
  3650   000B1A                     u3491:
  3651   000B1A  EFAB  F005         	goto	l4671
  3652   000B1E                     u3490:
  3653   000B1E  5018               	movf	vfpfcnvrt@c^0,w,c
  3654   000B20  A4D8               	btfss	status,2,c
  3655   000B22  EF95  F005         	goto	u3501
  3656   000B26  EF97  F005         	goto	u3500
  3657   000B2A                     u3501:
  3658   000B2A  EF60  F005         	goto	l4651
  3659   000B2E                     u3500:
  3660   000B2E  EFAB  F005         	goto	l4671
  3661   000B32                     l4667:
  3662                           
  3663                           ;C:\Program Files\Microchip\xc8\v2.46\pic\sources\c99\common\doprnt.c: 1578:       fputc
      +                          (dbuf[c++], fp);
  3664   000B32  0E00               	movlw	low _dbuf
  3665   000B34  2418               	addwf	vfpfcnvrt@c^0,w,c
  3666   000B36  6ED9               	movwf	fsr2l,c
  3667   000B38  6ADA               	clrf	fsr2h,c
  3668   000B3A  0E01               	movlw	high _dbuf
  3669   000B3C  22DA               	addwfc	fsr2h,f,c
  3670   000B3E  50DF               	movf	indf2,w,c
  3671   000B40  6E10               	movwf	??_vfpfcnvrt^0,c
  3672   000B42  5010               	movf	??_vfpfcnvrt^0,w,c
  3673   000B44  6E03               	movwf	fputc@c^0,c
  3674   000B46  6A04               	clrf	(fputc@c+1)^0,c
  3675   000B48  C00C  F005         	movff	vfpfcnvrt@fp,fputc@fp
  3676   000B4C  C00D  F006         	movff	vfpfcnvrt@fp+1,fputc@fp+1
  3677   000B50  EC35  F00B         	call	_fputc	;wreg free
  3678   000B54  2A18               	incf	vfpfcnvrt@c^0,f,c
  3679   000B56                     l4671:
  3680                           
  3681                           ;C:\Program Files\Microchip\xc8\v2.46\pic\sources\c99\common\doprnt.c: 1577:      while 
      +                          (c != sizeof(dbuf)) {
  3682   000B56  0E20               	movlw	32
  3683   000B58  1818               	xorwf	vfpfcnvrt@c^0,w,c
  3684   000B5A  A4D8               	btfss	status,2,c
  3685   000B5C  EFB2  F005         	goto	u3511
  3686   000B60  EFB4  F005         	goto	u3510
  3687   000B64                     u3511:
  3688   000B64  EF99  F005         	goto	l4667
  3689   000B68                     u3510:
  3690   000B68  EFDB  F005         	goto	l1778
  3691   000B6C                     l4675:
  3692                           
  3693                           ; BSR set to: 0
  3694   000B6C  C017  FFF6         	movff	vfpfcnvrt@cp,tblptrl
  3695   000B70                     	if	1	;There is more than 1 active tblptr byte
  3696   000B70  0E06               	movlw	high __smallconst
  3697   000B72  6EF7               	movwf	tblptrh,c
  3698   000B74                     	endif
  3699   000B74                     	if	0	;tblptru may be non-zero
  3700   000B74                     	endif
  3701   000B74                     	if	0	;tblptru may be non-zero
  3702   000B74                     	endif
  3703   000B74  0008               	tblrd		*
  3704   000B76  50F5               	movf	tablat,w,c
  3705                           
  3706                           ; Switch size 1, requested type "simple"
  3707                           ; Number of cases is 1, Range of values is 120 to 120
  3708                           ; switch strategies available:
  3709                           ; Name         Instructions Cycles
  3710                           ; simple_byte            4     3 (average)
  3711                           ;	Chosen strategy is simple_byte
  3712   000B78  0A78               	xorlw	120	; case 120
  3713   000B7A  B4D8               	btfsc	status,2,c
  3714   000B7C  EF5E  F005         	goto	l4649
  3715   000B80  EFC2  F005         	goto	l4677
  3716   000B84                     l4677:
  3717                           
  3718                           ;C:\Program Files\Microchip\xc8\v2.46\pic\sources\c99\common\doprnt.c: 1806:         ++*
      +                          fmt;
  3719   000B84  500E               	movf	vfpfcnvrt@fmt^0,w,c
  3720   000B86  6ED9               	movwf	fsr2l,c
  3721   000B88  6ADA               	clrf	fsr2h,c
  3722   000B8A  2ADF               	incf	indf2,f,c
  3723   000B8C  EFDB  F005         	goto	l1778
  3724   000B90                     l4681:
  3725                           
  3726                           ;C:\Program Files\Microchip\xc8\v2.46\pic\sources\c99\common\doprnt.c: 1811:     fputc((
      +                          int)(*fmt)[0], fp);
  3727   000B90  500E               	movf	vfpfcnvrt@fmt^0,w,c
  3728   000B92  6ED9               	movwf	fsr2l,c
  3729   000B94  6ADA               	clrf	fsr2h,c
  3730   000B96  CFDF FFF6          	movff	indf2,tblptrl
  3731   000B9A                     	if	1	;There is more than 1 active tblptr byte
  3732   000B9A  0E06               	movlw	high __smallconst
  3733   000B9C  6EF7               	movwf	tblptrh,c
  3734   000B9E                     	endif
  3735   000B9E                     	if	0	;tblptru may be non-zero
  3736   000B9E                     	endif
  3737   000B9E                     	if	0	;tblptru may be non-zero
  3738   000B9E                     	endif
  3739   000B9E  0008               	tblrd		*
  3740   000BA0  50F5               	movf	tablat,w,c
  3741   000BA2  6E03               	movwf	fputc@c^0,c
  3742   000BA4  6A04               	clrf	(fputc@c+1)^0,c
  3743   000BA6  C00C  F005         	movff	vfpfcnvrt@fp,fputc@fp
  3744   000BAA  C00D  F006         	movff	vfpfcnvrt@fp+1,fputc@fp+1
  3745   000BAE  EC35  F00B         	call	_fputc	;wreg free
  3746   000BB2  EFC2  F005         	goto	l4677
  3747   000BB6                     l1778:
  3748   000BB6  0012               	return		;funcret
  3749   000BB8                     __end_of_vfpfcnvrt:
  3750                           	callstack 0
  3751                           
  3752 ;; *************** function _fputc *****************
  3753 ;; Defined at:
  3754 ;;		line 8 in file "C:\Program Files\Microchip\xc8\v2.46\pic\sources\c99\common\nf_fputc.c"
  3755 ;; Parameters:    Size  Location     Type
  3756 ;;  c               2    2[COMRAM] int 
  3757 ;;  fp              2    4[COMRAM] PTR struct _IO_FILE
  3758 ;;		 -> NULL(0), 
  3759 ;; Auto vars:     Size  Location     Type
  3760 ;;		None
  3761 ;; Return value:  Size  Location     Type
  3762 ;;                  2    2[COMRAM] int 
  3763 ;; Registers used:
  3764 ;;		wreg, fsr1l, fsr1h, fsr2l, fsr2h, status,2, status,0, cstack
  3765 ;; Tracked objects:
  3766 ;;		On entry : 0/0
  3767 ;;		On exit  : 0/0
  3768 ;;		Unchanged: 0/0
  3769 ;; Data sizes:     COMRAM   BANK0   BANK1   BANK2   BANK3   BANK4   BANK5
  3770 ;;      Params:         4       0       0       0       0       0       0
  3771 ;;      Locals:         0       0       0       0       0       0       0
  3772 ;;      Temps:          5       0       0       0       0       0       0
  3773 ;;      Totals:         9       0       0       0       0       0       0
  3774 ;;Total ram usage:        9 bytes
  3775 ;; Hardware stack levels used: 1
  3776 ;; Hardware stack levels required when called: 2
  3777 ;; This function calls:
  3778 ;;		_putch
  3779 ;; This function is called by:
  3780 ;;		_vfpfcnvrt
  3781 ;; This function uses a non-reentrant model
  3782 ;;
  3783                           
  3784                           	psect	text25
  3785   00166A                     __ptext25:
  3786                           	callstack 0
  3787   00166A                     _fputc:
  3788                           	callstack 25
  3789   00166A  5005               	movf	fputc@fp^0,w,c
  3790   00166C  1006               	iorwf	(fputc@fp+1)^0,w,c
  3791   00166E  B4D8               	btfsc	status,2,c
  3792   001670  EF3C  F00B         	goto	u3381
  3793   001674  EF3E  F00B         	goto	u3380
  3794   001678                     u3381:
  3795   001678  EF47  F00B         	goto	l4561
  3796   00167C                     u3380:
  3797   00167C  5005               	movf	fputc@fp^0,w,c
  3798   00167E  1006               	iorwf	(fputc@fp+1)^0,w,c
  3799   001680  A4D8               	btfss	status,2,c
  3800   001682  EF45  F00B         	goto	u3391
  3801   001686  EF47  F00B         	goto	u3390
  3802   00168A                     u3391:
  3803   00168A  EF4C  F00B         	goto	l4563
  3804   00168E                     u3390:
  3805   00168E                     l4561:
  3806   00168E  5003               	movf	fputc@c^0,w,c
  3807   001690  EC87  F010         	call	_putch
  3808   001694  EF99  F00B         	goto	l1797
  3809   001698                     l4563:
  3810   001698  EE20 F00A          	lfsr	2,10
  3811   00169C  5005               	movf	fputc@fp^0,w,c
  3812   00169E  26D9               	addwf	fsr2l,f,c
  3813   0016A0  5006               	movf	(fputc@fp+1)^0,w,c
  3814   0016A2  22DA               	addwfc	fsr2h,f,c
  3815   0016A4  50DE               	movf	postinc2,w,c
  3816   0016A6  10DE               	iorwf	postinc2,w,c
  3817   0016A8  B4D8               	btfsc	status,2,c
  3818   0016AA  EF59  F00B         	goto	u3401
  3819   0016AE  EF5B  F00B         	goto	u3400
  3820   0016B2                     u3401:
  3821   0016B2  EF76  F00B         	goto	l4567
  3822   0016B6                     u3400:
  3823   0016B6  EE20 F00A          	lfsr	2,10
  3824   0016BA  5005               	movf	fputc@fp^0,w,c
  3825   0016BC  26D9               	addwf	fsr2l,f,c
  3826   0016BE  5006               	movf	(fputc@fp+1)^0,w,c
  3827   0016C0  22DA               	addwfc	fsr2h,f,c
  3828   0016C2  EE10 F003          	lfsr	1,3
  3829   0016C6  5005               	movf	fputc@fp^0,w,c
  3830   0016C8  26E1               	addwf	fsr1l,f,c
  3831   0016CA  5006               	movf	(fputc@fp+1)^0,w,c
  3832   0016CC  22E2               	addwfc	fsr1h,f,c
  3833   0016CE  50DE               	movf	postinc2,w,c
  3834   0016D0  5CE6               	subwf	postinc1,w,c
  3835   0016D2  50E6               	movf	postinc1,w,c
  3836   0016D4  0A80               	xorlw	128
  3837   0016D6  6E0B               	movwf	(??_fputc+4)^0,c
  3838   0016D8  50DE               	movf	postinc2,w,c
  3839   0016DA  0A80               	xorlw	128
  3840   0016DC  580B               	subwfb	(??_fputc+4)^0,w,c
  3841   0016DE  B0D8               	btfsc	status,0,c
  3842   0016E0  EF74  F00B         	goto	u3411
  3843   0016E4  EF76  F00B         	goto	u3410
  3844   0016E8                     u3411:
  3845   0016E8  EF99  F00B         	goto	l1797
  3846   0016EC                     u3410:
  3847   0016EC                     l4567:
  3848   0016EC  EE20 F003          	lfsr	2,3
  3849   0016F0  5005               	movf	fputc@fp^0,w,c
  3850   0016F2  26D9               	addwf	fsr2l,f,c
  3851   0016F4  5006               	movf	(fputc@fp+1)^0,w,c
  3852   0016F6  22DA               	addwfc	fsr2h,f,c
  3853   0016F8  CFDE F007          	movff	postinc2,??_fputc
  3854   0016FC  CFDD F008          	movff	postdec2,??_fputc+1
  3855   001700  C005  FFD9         	movff	fputc@fp,fsr2l
  3856   001704  C006  FFDA         	movff	fputc@fp+1,fsr2h
  3857   001708  CFDE F009          	movff	postinc2,??_fputc+2
  3858   00170C  CFDD F00A          	movff	postdec2,??_fputc+3
  3859   001710  5007               	movf	??_fputc^0,w,c
  3860   001712  2409               	addwf	(??_fputc+2)^0,w,c
  3861   001714  6ED9               	movwf	fsr2l,c
  3862   001716  5008               	movf	(??_fputc+1)^0,w,c
  3863   001718  200A               	addwfc	(??_fputc+3)^0,w,c
  3864   00171A  6EDA               	movwf	fsr2h,c
  3865   00171C  C003  FFDF         	movff	fputc@c,indf2
  3866   001720  EE20 F003          	lfsr	2,3
  3867   001724  5005               	movf	fputc@fp^0,w,c
  3868   001726  26D9               	addwf	fsr2l,f,c
  3869   001728  5006               	movf	(fputc@fp+1)^0,w,c
  3870   00172A  22DA               	addwfc	fsr2h,f,c
  3871   00172C  2ADE               	incf	postinc2,f,c
  3872   00172E  0E00               	movlw	0
  3873   001730  22DD               	addwfc	postdec2,f,c
  3874   001732                     l1797:
  3875   001732  0012               	return		;funcret
  3876   001734                     __end_of_fputc:
  3877                           	callstack 0
  3878                           
  3879 ;; *************** function _putch *****************
  3880 ;; Defined at:
  3881 ;;		line 246 in file "mcc_generated_files/uart/src/eusart2.c"
  3882 ;; Parameters:    Size  Location     Type
  3883 ;;  txData          1    wreg     unsigned char 
  3884 ;; Auto vars:     Size  Location     Type
  3885 ;;  txData          1    1[COMRAM] unsigned char 
  3886 ;; Return value:  Size  Location     Type
  3887 ;;                  1    wreg      void 
  3888 ;; Registers used:
  3889 ;;		wreg, status,2, cstack
  3890 ;; Tracked objects:
  3891 ;;		On entry : 0/0
  3892 ;;		On exit  : 0/0
  3893 ;;		Unchanged: 0/0
  3894 ;; Data sizes:     COMRAM   BANK0   BANK1   BANK2   BANK3   BANK4   BANK5
  3895 ;;      Params:         0       0       0       0       0       0       0
  3896 ;;      Locals:         1       0       0       0       0       0       0
  3897 ;;      Temps:          0       0       0       0       0       0       0
  3898 ;;      Totals:         1       0       0       0       0       0       0
  3899 ;;Total ram usage:        1 bytes
  3900 ;; Hardware stack levels used: 1
  3901 ;; Hardware stack levels required when called: 1
  3902 ;; This function calls:
  3903 ;;		_EUSART2_IsTxReady
  3904 ;;		_EUSART2_Write
  3905 ;; This function is called by:
  3906 ;;		_fputc
  3907 ;; This function uses a non-reentrant model
  3908 ;;
  3909                           
  3910                           	psect	text26
  3911   00210E                     __ptext26:
  3912                           	callstack 0
  3913   00210E                     _putch:
  3914                           	callstack 25
  3915                           
  3916                           ;incstack = 0
  3917                           ;putch@txData stored from wreg
  3918   00210E  6E02               	movwf	putch@txData^0,c
  3919   002110                     l4551:
  3920   002110  EC32  F010         	call	_EUSART2_IsTxReady	;wreg free
  3921   002114  0900               	iorlw	0
  3922   002116  B4D8               	btfsc	status,2,c
  3923   002118  EF90  F010         	goto	u3371
  3924   00211C  EF92  F010         	goto	u3370
  3925   002120                     u3371:
  3926   002120  EF88  F010         	goto	l4551
  3927   002124                     u3370:
  3928   002124                     
  3929                           ;mcc_generated_files/uart/src/eusart2.c: 249:     return EUSART2_Write(txData);;	Return 
      +                          value of _putch is never used
  3930   002124  5002               	movf	putch@txData^0,w,c
  3931   002126  EC72  F011         	call	_EUSART2_Write
  3932   00212A  0012               	return		;funcret
  3933   00212C                     __end_of_putch:
  3934                           	callstack 0
  3935                           
  3936 ;; *************** function _BootloaderProcessorUnlock *****************
  3937 ;; Defined at:
  3938 ;;		line 183 in file "mcc_generated_files/bootloader/library/core/bl_core.c"
  3939 ;; Parameters:    Size  Location     Type
  3940 ;;  bufferPtr       2   34[COMRAM] PTR unsigned char 
  3941 ;;		 -> FTP_RESPONSE_BUFFER(19), FTP_RECEIVE_BUFFER(74), FTP_RETRY_BUFFER(19), 
  3942 ;; Auto vars:     Size  Location     Type
  3943 ;;  startAddress    4   52[COMRAM] unsigned long 
  3944 ;;  deviceId        2    0        unsigned short 
  3945 ;;  commandStatu    1    0        enum E36
  3946 ;; Return value:  Size  Location     Type
  3947 ;;                  1    wreg      enum E36
  3948 ;; Registers used:
  3949 ;;		wreg, fsr2l, fsr2h, status,2, status,0, cstack
  3950 ;; Tracked objects:
  3951 ;;		On entry : 0/0
  3952 ;;		On exit  : 0/0
  3953 ;;		Unchanged: 0/0
  3954 ;; Data sizes:     COMRAM   BANK0   BANK1   BANK2   BANK3   BANK4   BANK5
  3955 ;;      Params:         2       0       0       0       0       0       0
  3956 ;;      Locals:         4       0       0       0       0       0       0
  3957 ;;      Temps:         16       0       0       0       0       0       0
  3958 ;;      Totals:        22       0       0       0       0       0       0
  3959 ;;Total ram usage:       22 bytes
  3960 ;; Hardware stack levels used: 1
  3961 ;; Hardware stack levels required when called: 2
  3962 ;; This function calls:
  3963 ;;		_DeviceID_Read
  3964 ;;		_DownloadAreaErase
  3965 ;; This function is called by:
  3966 ;;		_BL_BootCommandProcess
  3967 ;; This function uses a non-reentrant model
  3968 ;;
  3969                           
  3970                           	psect	text27
  3971   00159E                     __ptext27:
  3972                           	callstack 0
  3973   00159E                     _BootloaderProcessorUnlock:
  3974                           	callstack 24
  3975   00159E  0EFE               	movlw	254
  3976   0015A0  6E01               	movwf	DeviceID_Read@address^0,c
  3977   0015A2  0EFF               	movlw	255
  3978   0015A4  6E02               	movwf	(DeviceID_Read@address+1)^0,c
  3979   0015A6  0E3F               	movlw	63
  3980   0015A8  6E03               	movwf	(DeviceID_Read@address+2)^0,c
  3981   0015AA  ECF8  F00B         	call	_DeviceID_Read	;wreg free
  3982   0015AE                     
  3983                           ;mcc_generated_files/bootloader/library/core/bl_core.c: 283:     {;mcc_generated_files/b
      +                          ootloader/library/core/bl_core.c: 284:         bootloaderCoreUnlocked = 1;
  3984   0015AE  0E01               	movlw	1
  3985   0015B0  0100               	movlb	0	; () banked
  3986   0015B2  6F87               	movwf	_bootloaderCoreUnlocked& (0+255),b
  3987   0015B4                     
  3988                           ; BSR set to: 0
  3989                           ;mcc_generated_files/bootloader/library/core/bl_core.c: 286:         uint32_t startAddre
      +                          ss = bufferPtr[0] + bufferPtr[1]*256 + bufferPtr[2]*256*256 + bufferPtr[3]*256*256*256;
  3990   0015B4  EE20 F003          	lfsr	2,3
  3991   0015B8  5023               	movf	BootloaderProcessorUnlock@bufferPtr^0,w,c
  3992   0015BA  26D9               	addwf	fsr2l,f,c
  3993   0015BC  5024               	movf	(BootloaderProcessorUnlock@bufferPtr+1)^0,w,c
  3994   0015BE  22DA               	addwfc	fsr2h,f,c
  3995   0015C0  50DF               	movf	indf2,w,c
  3996   0015C2  6E25               	movwf	??_BootloaderProcessorUnlock^0,c
  3997   0015C4  5025               	movf	??_BootloaderProcessorUnlock^0,w,c
  3998   0015C6  6E27               	movwf	(??_BootloaderProcessorUnlock+2)^0,c
  3999   0015C8  6A26               	clrf	(??_BootloaderProcessorUnlock+1)^0,c
  4000   0015CA  C026  F027         	movff	??_BootloaderProcessorUnlock+1,??_BootloaderProcessorUnlock+2
  4001   0015CE  6A26               	clrf	(??_BootloaderProcessorUnlock+1)^0,c
  4002   0015D0  C026  F027         	movff	??_BootloaderProcessorUnlock+1,??_BootloaderProcessorUnlock+2
  4003   0015D4  6A26               	clrf	(??_BootloaderProcessorUnlock+1)^0,c
  4004   0015D6  EE20 F002          	lfsr	2,2
  4005   0015DA  5023               	movf	BootloaderProcessorUnlock@bufferPtr^0,w,c
  4006   0015DC  26D9               	addwf	fsr2l,f,c
  4007   0015DE  5024               	movf	(BootloaderProcessorUnlock@bufferPtr+1)^0,w,c
  4008   0015E0  22DA               	addwfc	fsr2h,f,c
  4009   0015E2  50DF               	movf	indf2,w,c
  4010   0015E4  6E28               	movwf	(??_BootloaderProcessorUnlock+3)^0,c
  4011   0015E6  5028               	movf	(??_BootloaderProcessorUnlock+3)^0,w,c
  4012   0015E8  6E2A               	movwf	(??_BootloaderProcessorUnlock+5)^0,c
  4013   0015EA  6A29               	clrf	(??_BootloaderProcessorUnlock+4)^0,c
  4014   0015EC  C029  F02A         	movff	??_BootloaderProcessorUnlock+4,??_BootloaderProcessorUnlock+5
  4015   0015F0  6A29               	clrf	(??_BootloaderProcessorUnlock+4)^0,c
  4016   0015F2  EE20 F001          	lfsr	2,1
  4017   0015F6  5023               	movf	BootloaderProcessorUnlock@bufferPtr^0,w,c
  4018   0015F8  26D9               	addwf	fsr2l,f,c
  4019   0015FA  5024               	movf	(BootloaderProcessorUnlock@bufferPtr+1)^0,w,c
  4020   0015FC  22DA               	addwfc	fsr2h,f,c
  4021   0015FE  50DF               	movf	indf2,w,c
  4022   001600  6E2B               	movwf	(??_BootloaderProcessorUnlock+6)^0,c
  4023   001602  502B               	movf	(??_BootloaderProcessorUnlock+6)^0,w,c
  4024   001604  6E2D               	movwf	(??_BootloaderProcessorUnlock+8)^0,c
  4025   001606  6A2C               	clrf	(??_BootloaderProcessorUnlock+7)^0,c
  4026   001608  C023  FFD9         	movff	BootloaderProcessorUnlock@bufferPtr,fsr2l
  4027   00160C  C024  FFDA         	movff	BootloaderProcessorUnlock@bufferPtr+1,fsr2h
  4028   001610  50DF               	movf	indf2,w,c
  4029   001612  6E2E               	movwf	(??_BootloaderProcessorUnlock+9)^0,c
  4030   001614  502E               	movf	(??_BootloaderProcessorUnlock+9)^0,w,c
  4031   001616  242C               	addwf	(??_BootloaderProcessorUnlock+7)^0,w,c
  4032   001618  6E2F               	movwf	(??_BootloaderProcessorUnlock+10)^0,c
  4033   00161A  0E00               	movlw	0
  4034   00161C  202D               	addwfc	(??_BootloaderProcessorUnlock+8)^0,w,c
  4035   00161E  6E30               	movwf	(??_BootloaderProcessorUnlock+11)^0,c
  4036   001620  5029               	movf	(??_BootloaderProcessorUnlock+4)^0,w,c
  4037   001622  242F               	addwf	(??_BootloaderProcessorUnlock+10)^0,w,c
  4038   001624  6E31               	movwf	(??_BootloaderProcessorUnlock+12)^0,c
  4039   001626  502A               	movf	(??_BootloaderProcessorUnlock+5)^0,w,c
  4040   001628  2030               	addwfc	(??_BootloaderProcessorUnlock+11)^0,w,c
  4041   00162A  6E32               	movwf	(??_BootloaderProcessorUnlock+13)^0,c
  4042   00162C  5026               	movf	(??_BootloaderProcessorUnlock+1)^0,w,c
  4043   00162E  2431               	addwf	(??_BootloaderProcessorUnlock+12)^0,w,c
  4044   001630  6E33               	movwf	(??_BootloaderProcessorUnlock+14)^0,c
  4045   001632  5027               	movf	(??_BootloaderProcessorUnlock+2)^0,w,c
  4046   001634  2032               	addwfc	(??_BootloaderProcessorUnlock+13)^0,w,c
  4047   001636  6E34               	movwf	(??_BootloaderProcessorUnlock+15)^0,c
  4048   001638  C033  F035         	movff	??_BootloaderProcessorUnlock+14,BootloaderProcessorUnlock@startAddress
  4049   00163C  C034  F036         	movff	??_BootloaderProcessorUnlock+15,BootloaderProcessorUnlock@startAddress+1
  4050   001640  0E00               	movlw	0
  4051   001642  BE36               	btfsc	(BootloaderProcessorUnlock@startAddress+1)^0,7,c
  4052   001644  0EFF               	movlw	-1
  4053   001646  6E37               	movwf	(BootloaderProcessorUnlock@startAddress+2)^0,c
  4054   001648  6E38               	movwf	(BootloaderProcessorUnlock@startAddress+3)^0,c
  4055   00164A                     
  4056                           ; BSR set to: 0
  4057                           ;mcc_generated_files/bootloader/library/core/bl_core.c: 292:         DownloadAreaErase(s
      +                          tartAddress,(uint16_t)(0xAA55U));
  4058   00164A  C035  F016         	movff	BootloaderProcessorUnlock@startAddress,DownloadAreaErase@startAddress
  4059   00164E  C036  F017         	movff	BootloaderProcessorUnlock@startAddress+1,DownloadAreaErase@startAddress+1
  4060   001652  C037  F018         	movff	BootloaderProcessorUnlock@startAddress+2,DownloadAreaErase@startAddress+2
  4061   001656  C038  F019         	movff	BootloaderProcessorUnlock@startAddress+3,DownloadAreaErase@startAddress+3
  4062   00165A  0EAA               	movlw	170
  4063   00165C  6E1B               	movwf	(DownloadAreaErase@pageEraseUnlockKey+1)^0,c
  4064   00165E  0E55               	movlw	85
  4065   001660  6E1A               	movwf	DownloadAreaErase@pageEraseUnlockKey^0,c
  4066   001662  EC77  F00D         	call	_DownloadAreaErase	;wreg free
  4067   001666                     
  4068                           ;mcc_generated_files/bootloader/library/core/bl_core.c: 295:     return commandStatus;
  4069   001666  0E81               	movlw	129
  4070   001668  0012               	return		;funcret
  4071   00166A                     __end_of_BootloaderProcessorUnlock:
  4072                           	callstack 0
  4073                           
  4074 ;; *************** function _DownloadAreaErase *****************
  4075 ;; Defined at:
  4076 ;;		line 299 in file "mcc_generated_files/bootloader/library/core/bl_core.c"
  4077 ;; Parameters:    Size  Location     Type
  4078 ;;  startAddress    4   21[COMRAM] unsigned long 
  4079 ;;  pageEraseUnl    2   25[COMRAM] unsigned short 
  4080 ;; Auto vars:     Size  Location     Type
  4081 ;;  address         4   30[COMRAM] unsigned long 
  4082 ;;  unlockKey       2   27[COMRAM] unsigned short 
  4083 ;;  errorStatus     1   29[COMRAM] enum E6026
  4084 ;; Return value:  Size  Location     Type
  4085 ;;                  1    wreg      void 
  4086 ;; Registers used:
  4087 ;;		wreg, status,2, status,0, cstack
  4088 ;; Tracked objects:
  4089 ;;		On entry : 0/0
  4090 ;;		On exit  : 0/0
  4091 ;;		Unchanged: 0/0
  4092 ;; Data sizes:     COMRAM   BANK0   BANK1   BANK2   BANK3   BANK4   BANK5
  4093 ;;      Params:         6       0       0       0       0       0       0
  4094 ;;      Locals:         7       0       0       0       0       0       0
  4095 ;;      Temps:          0       0       0       0       0       0       0
  4096 ;;      Totals:        13       0       0       0       0       0       0
  4097 ;;Total ram usage:       13 bytes
  4098 ;; Hardware stack levels used: 1
  4099 ;; Hardware stack levels required when called: 1
  4100 ;; This function calls:
  4101 ;;		_FLASH_PageErase
  4102 ;;		_NVM_UnlockKeyClear
  4103 ;;		_NVM_UnlockKeySet
  4104 ;; This function is called by:
  4105 ;;		_BootloaderProcessorUnlock
  4106 ;; This function uses a non-reentrant model
  4107 ;;
  4108                           
  4109                           	psect	text28
  4110   001AEE                     __ptext28:
  4111                           	callstack 0
  4112   001AEE                     _DownloadAreaErase:
  4113                           	callstack 24
  4114   001AEE                     
  4115                           ;mcc_generated_files/bootloader/library/core/bl_core.c: 299: static void DownloadAreaEra
      +                          se(uint32_t startAddress, uint16_t pageEraseUnlockKey);mcc_generated_files/bootloader/li
      +                          brary/core/bl_core.c: 300: {;mcc_generated_files/bootloader/library/core/bl_core.c: 301:
      +                               nvm_status_t errorStatus;;mcc_generated_files/bootloader/library/core/bl_core.c: 30
      +                          2:     flash_address_t address;;mcc_generated_files/bootloader/library/core/bl_core.c: 3
      +                          03:     address = (flash_address_t) startAddress;
  4116   001AEE  C016  F01F         	movff	DownloadAreaErase@startAddress,DownloadAreaErase@address
  4117   001AF2  C017  F020         	movff	DownloadAreaErase@startAddress+1,DownloadAreaErase@address+1
  4118   001AF6  C018  F021         	movff	DownloadAreaErase@startAddress+2,DownloadAreaErase@address+2
  4119   001AFA  C019  F022         	movff	DownloadAreaErase@startAddress+3,DownloadAreaErase@address+3
  4120                           
  4121                           ;mcc_generated_files/bootloader/library/core/bl_core.c: 304:     uint16_t unlockKey = pa
      +                          geEraseUnlockKey;
  4122   001AFE  C01A  F01C         	movff	DownloadAreaErase@pageEraseUnlockKey,DownloadAreaErase@unlockKey
  4123   001B02  C01B  F01D         	movff	DownloadAreaErase@pageEraseUnlockKey+1,DownloadAreaErase@unlockKey+1
  4124                           
  4125                           ;mcc_generated_files/bootloader/library/core/bl_core.c: 305:     while (address < ((0x80
      +                          00U) - 1U))
  4126   001B06  EFA8  F00D         	goto	l334
  4127   001B0A                     l4715:
  4128                           
  4129                           ;mcc_generated_files/bootloader/library/core/bl_core.c: 306:     {;mcc_generated_files/b
      +                          ootloader/library/core/bl_core.c: 307:         NVM_UnlockKeySet(unlockKey);
  4130   001B0A  C01C  F001         	movff	DownloadAreaErase@unlockKey,NVM_UnlockKeySet@unlockKey
  4131   001B0E  C01D  F002         	movff	DownloadAreaErase@unlockKey+1,NVM_UnlockKeySet@unlockKey+1
  4132   001B12  EC55  F011         	call	_NVM_UnlockKeySet	;wreg free
  4133   001B16                     
  4134                           ;mcc_generated_files/bootloader/library/core/bl_core.c: 308:         errorStatus = FLASH
      +                          _PageErase(address);
  4135   001B16  C01F  F001         	movff	DownloadAreaErase@address,FLASH_PageErase@address
  4136   001B1A  C020  F002         	movff	DownloadAreaErase@address+1,FLASH_PageErase@address+1
  4137   001B1E  C021  F003         	movff	DownloadAreaErase@address+2,FLASH_PageErase@address+2
  4138   001B22  C022  F004         	movff	DownloadAreaErase@address+3,FLASH_PageErase@address+3
  4139   001B26  EC9A  F00B         	call	_FLASH_PageErase	;wreg free
  4140   001B2A  6E1E               	movwf	DownloadAreaErase@errorStatus^0,c
  4141   001B2C                     
  4142                           ;mcc_generated_files/bootloader/library/core/bl_core.c: 309:         NVM_UnlockKeyClear(
      +                          );
  4143   001B2C  EC5A  F011         	call	_NVM_UnlockKeyClear	;wreg free
  4144   001B30                     
  4145                           ;mcc_generated_files/bootloader/library/core/bl_core.c: 310:         if (errorStatus != 
      +                          NVM_OK)
  4146   001B30  501E               	movf	DownloadAreaErase@errorStatus^0,w,c
  4147   001B32  B4D8               	btfsc	status,2,c
  4148   001B34  EF9E  F00D         	goto	u3521
  4149   001B38  EFA0  F00D         	goto	u3520
  4150   001B3C                     u3521:
  4151   001B3C  EFA2  F00D         	goto	l4725
  4152   001B40                     u3520:
  4153   001B40  EFB5  F00D         	goto	l338
  4154   001B44                     l4725:
  4155                           
  4156                           ;mcc_generated_files/bootloader/library/core/bl_core.c: 314:         address += (64U);
  4157   001B44  0E40               	movlw	64
  4158   001B46  261F               	addwf	DownloadAreaErase@address^0,f,c
  4159   001B48  0E00               	movlw	0
  4160   001B4A  2220               	addwfc	(DownloadAreaErase@address+1)^0,f,c
  4161   001B4C  2221               	addwfc	(DownloadAreaErase@address+2)^0,f,c
  4162   001B4E  2222               	addwfc	(DownloadAreaErase@address+3)^0,f,c
  4163   001B50                     l334:
  4164                           
  4165                           ;mcc_generated_files/bootloader/library/core/bl_core.c: 305:     while (address < ((0x80
      +                          00U) - 1U))
  4166   001B50  5022               	movf	(DownloadAreaErase@address+3)^0,w,c
  4167   001B52  1021               	iorwf	(DownloadAreaErase@address+2)^0,w,c
  4168   001B54  E10A               	bnz	u3530
  4169   001B56  281F               	incf	DownloadAreaErase@address^0,w,c
  4170   001B58  0E7F               	movlw	127
  4171   001B5A  5820               	subwfb	(DownloadAreaErase@address+1)^0,w,c
  4172   001B5C  A0D8               	btfss	status,0,c
  4173   001B5E  EFB3  F00D         	goto	u3531
  4174   001B62  EFB5  F00D         	goto	u3530
  4175   001B66                     u3531:
  4176   001B66  EF85  F00D         	goto	l4715
  4177   001B6A                     u3530:
  4178   001B6A                     l338:
  4179   001B6A  0012               	return		;funcret
  4180   001B6C                     __end_of_DownloadAreaErase:
  4181                           	callstack 0
  4182                           
  4183 ;; *************** function _DeviceID_Read *****************
  4184 ;; Defined at:
  4185 ;;		line 285 in file "mcc_generated_files/nvm/src/nvm.c"
  4186 ;; Parameters:    Size  Location     Type
  4187 ;;  address         3    0[COMRAM] unsigned um
  4188 ;; Auto vars:     Size  Location     Type
  4189 ;;  tablePointer    4   17[COMRAM] unsigned long 
  4190 ;;  deivceID        2   15[COMRAM] unsigned short 
  4191 ;; Return value:  Size  Location     Type
  4192 ;;                  2    0[COMRAM] unsigned short 
  4193 ;; Registers used:
  4194 ;;		wreg, status,2, status,0
  4195 ;; Tracked objects:
  4196 ;;		On entry : 0/0
  4197 ;;		On exit  : 0/0
  4198 ;;		Unchanged: 0/0
  4199 ;; Data sizes:     COMRAM   BANK0   BANK1   BANK2   BANK3   BANK4   BANK5
  4200 ;;      Params:         3       0       0       0       0       0       0
  4201 ;;      Locals:         6       0       0       0       0       0       0
  4202 ;;      Temps:         12       0       0       0       0       0       0
  4203 ;;      Totals:        21       0       0       0       0       0       0
  4204 ;;Total ram usage:       21 bytes
  4205 ;; Hardware stack levels used: 1
  4206 ;; This function calls:
  4207 ;;		Nothing
  4208 ;; This function is called by:
  4209 ;;		_BootloaderProcessorUnlock
  4210 ;; This function uses a non-reentrant model
  4211 ;;
  4212                           
  4213                           	psect	text29
  4214   0017F0                     __ptext29:
  4215                           	callstack 0
  4216   0017F0                     _DeviceID_Read:
  4217                           	callstack 25
  4218   0017F0                     
  4219                           ;mcc_generated_files/nvm/src/nvm.c: 285: device_id_data_t DeviceID_Read(device_id_addres
      +                          s_t address);mcc_generated_files/nvm/src/nvm.c: 286: {;mcc_generated_files/nvm/src/nvm.c
      +                          : 287:     device_id_data_t deivceID;;mcc_generated_files/nvm/src/nvm.c: 290:     uint32
      +                          _t tablePointer = ((uint32_t) TBLPTRU << 16) | ((uint32_t) TBLPTRH << 8) | ((uint32_t) T
      +                          BLPTRL);
  4220   0017F0  CFF7 F004          	movff	tblptrh,??_DeviceID_Read	;volatile
  4221   0017F4  6A05               	clrf	(??_DeviceID_Read+1)^0,c
  4222   0017F6  6A06               	clrf	(??_DeviceID_Read+2)^0,c
  4223   0017F8  6A07               	clrf	(??_DeviceID_Read+3)^0,c
  4224   0017FA  C006  F007         	movff	??_DeviceID_Read+2,??_DeviceID_Read+3
  4225   0017FE  C005  F006         	movff	??_DeviceID_Read+1,??_DeviceID_Read+2
  4226   001802  C004  F005         	movff	??_DeviceID_Read,??_DeviceID_Read+1
  4227   001806  6A04               	clrf	??_DeviceID_Read^0,c
  4228   001808  CFF8 F008          	movff	tblptru,??_DeviceID_Read+4	;volatile
  4229   00180C  6A09               	clrf	(??_DeviceID_Read+5)^0,c
  4230   00180E  6A0A               	clrf	(??_DeviceID_Read+6)^0,c
  4231   001810  6A0B               	clrf	(??_DeviceID_Read+7)^0,c
  4232   001812  C009  F00B         	movff	??_DeviceID_Read+5,??_DeviceID_Read+7
  4233   001816  C008  F00A         	movff	??_DeviceID_Read+4,??_DeviceID_Read+6
  4234   00181A  6A09               	clrf	(??_DeviceID_Read+5)^0,c
  4235   00181C  6A08               	clrf	(??_DeviceID_Read+4)^0,c
  4236   00181E  5004               	movf	??_DeviceID_Read^0,w,c
  4237   001820  1008               	iorwf	(??_DeviceID_Read+4)^0,w,c
  4238   001822  6E0C               	movwf	(??_DeviceID_Read+8)^0,c
  4239   001824  5005               	movf	(??_DeviceID_Read+1)^0,w,c
  4240   001826  1009               	iorwf	(??_DeviceID_Read+5)^0,w,c
  4241   001828  6E0D               	movwf	(??_DeviceID_Read+9)^0,c
  4242   00182A  5006               	movf	(??_DeviceID_Read+2)^0,w,c
  4243   00182C  100A               	iorwf	(??_DeviceID_Read+6)^0,w,c
  4244   00182E  6E0E               	movwf	(??_DeviceID_Read+10)^0,c
  4245   001830  5007               	movf	(??_DeviceID_Read+3)^0,w,c
  4246   001832  100B               	iorwf	(??_DeviceID_Read+7)^0,w,c
  4247   001834  6E0F               	movwf	(??_DeviceID_Read+11)^0,c
  4248   001836  50F6               	movf	246,w,c	;volatile
  4249   001838  100C               	iorwf	(??_DeviceID_Read+8)^0,w,c
  4250   00183A  6E12               	movwf	DeviceID_Read@tablePointer^0,c
  4251   00183C  500D               	movf	(??_DeviceID_Read+9)^0,w,c
  4252   00183E  6E13               	movwf	(DeviceID_Read@tablePointer+1)^0,c
  4253   001840  500E               	movf	(??_DeviceID_Read+10)^0,w,c
  4254   001842  6E14               	movwf	(DeviceID_Read@tablePointer+2)^0,c
  4255   001844  500F               	movf	(??_DeviceID_Read+11)^0,w,c
  4256   001846  6E15               	movwf	(DeviceID_Read@tablePointer+3)^0,c
  4257   001848                     
  4258                           ;mcc_generated_files/nvm/src/nvm.c: 293:     EECON1bits.EEPGD = 1;
  4259   001848  8EA6               	bsf	166,7,c	;volsfr
  4260   00184A                     
  4261                           ;mcc_generated_files/nvm/src/nvm.c: 296:     EECON1bits.CFGS = 0;
  4262   00184A  9CA6               	bcf	166,6,c	;volsfr
  4263   00184C                     
  4264                           ;mcc_generated_files/nvm/src/nvm.c: 299:     TBLPTRU = (uint8_t) (address >> 16);
  4265   00184C  C003  FFF8         	movff	DeviceID_Read@address+2,tblptru	;volatile
  4266   001850                     
  4267                           ;mcc_generated_files/nvm/src/nvm.c: 300:     TBLPTRH = (uint8_t) (address >> 8);
  4268   001850  C001  F004         	movff	DeviceID_Read@address,??_DeviceID_Read
  4269   001854  C002  F005         	movff	DeviceID_Read@address+1,??_DeviceID_Read+1
  4270   001858  C003  F006         	movff	DeviceID_Read@address+2,??_DeviceID_Read+2
  4271   00185C  C005  F004         	movff	??_DeviceID_Read+1,??_DeviceID_Read
  4272   001860  C006  F005         	movff	??_DeviceID_Read+2,??_DeviceID_Read+1
  4273   001864  6A06               	clrf	(??_DeviceID_Read+2)^0,c
  4274   001866  5004               	movf	??_DeviceID_Read^0,w,c
  4275   001868  6EF7               	movwf	247,c	;volatile
  4276   00186A                     
  4277                           ;mcc_generated_files/nvm/src/nvm.c: 301:     TBLPTRL = (uint8_t) address;
  4278   00186A  C001  FFF6         	movff	DeviceID_Read@address,tblptrl	;volatile
  4279   00186E  0009               	tblrd		*+	;# 
  4280   001870                     
  4281                           ;mcc_generated_files/nvm/src/nvm.c: 306:     deivceID = (device_id_data_t) (TABLAT & 0xE
      +                          0);
  4282   001870  CFF5 F004          	movff	tablat,??_DeviceID_Read	;volatile
  4283   001874  0EE0               	movlw	224
  4284   001876  1604               	andwf	??_DeviceID_Read^0,f,c
  4285   001878  5004               	movf	??_DeviceID_Read^0,w,c
  4286   00187A  6E10               	movwf	DeviceID_Read@deivceID^0,c
  4287   00187C  6A11               	clrf	(DeviceID_Read@deivceID+1)^0,c
  4288   00187E  0008               	tblrd		*	;# 
  4289   001880                     
  4290                           ;mcc_generated_files/nvm/src/nvm.c: 311:     deivceID |= (device_id_data_t) (TABLAT << 8
      +                          );
  4291   001880  50F5               	movf	245,w,c	;volatile
  4292   001882  6E05               	movwf	(??_DeviceID_Read+1)^0,c
  4293   001884  6A04               	clrf	??_DeviceID_Read^0,c
  4294   001886  5004               	movf	??_DeviceID_Read^0,w,c
  4295   001888  1210               	iorwf	DeviceID_Read@deivceID^0,f,c
  4296   00188A  5005               	movf	(??_DeviceID_Read+1)^0,w,c
  4297   00188C  1211               	iorwf	(DeviceID_Read@deivceID+1)^0,f,c
  4298   00188E                     
  4299                           ;mcc_generated_files/nvm/src/nvm.c: 314:     TBLPTRU = (uint8_t) (tablePointer >> 16);
  4300   00188E  C014  FFF8         	movff	DeviceID_Read@tablePointer+2,tblptru	;volatile
  4301   001892                     
  4302                           ;mcc_generated_files/nvm/src/nvm.c: 315:     TBLPTRH = (uint8_t) (tablePointer >> 8);
  4303   001892  C013  FFF7         	movff	DeviceID_Read@tablePointer+1,tblptrh	;volatile
  4304   001896                     
  4305                           ;mcc_generated_files/nvm/src/nvm.c: 316:     TBLPTRL = (uint8_t) tablePointer;
  4306   001896  C012  FFF6         	movff	DeviceID_Read@tablePointer,tblptrl	;volatile
  4307   00189A                     
  4308                           ;mcc_generated_files/nvm/src/nvm.c: 318:     return deivceID;
  4309   00189A  C010  F001         	movff	DeviceID_Read@deivceID,?_DeviceID_Read
  4310   00189E  C011  F002         	movff	DeviceID_Read@deivceID+1,?_DeviceID_Read+1
  4311   0018A2  0012               	return		;funcret
  4312   0018A4                     __end_of_DeviceID_Read:
  4313                           	callstack 0
  4314                           
  4315 ;; *************** function _BL_MemoryUnlockKeysInit *****************
  4316 ;; Defined at:
  4317 ;;		line 45 in file "mcc_generated_files/bootloader/library/core/bl_memory.c"
  4318 ;; Parameters:    Size  Location     Type
  4319 ;;  keys            8    0[COMRAM] struct .
  4320 ;; Auto vars:     Size  Location     Type
  4321 ;;		None
  4322 ;; Return value:  Size  Location     Type
  4323 ;;                  1    wreg      void 
  4324 ;; Registers used:
  4325 ;;		None
  4326 ;; Tracked objects:
  4327 ;;		On entry : 0/0
  4328 ;;		On exit  : 0/0
  4329 ;;		Unchanged: 0/0
  4330 ;; Data sizes:     COMRAM   BANK0   BANK1   BANK2   BANK3   BANK4   BANK5
  4331 ;;      Params:         8       0       0       0       0       0       0
  4332 ;;      Locals:         0       0       0       0       0       0       0
  4333 ;;      Temps:          0       0       0       0       0       0       0
  4334 ;;      Totals:         8       0       0       0       0       0       0
  4335 ;;Total ram usage:        8 bytes
  4336 ;; Hardware stack levels used: 1
  4337 ;; This function calls:
  4338 ;;		Nothing
  4339 ;; This function is called by:
  4340 ;;		_BL_BootCommandProcess
  4341 ;; This function uses a non-reentrant model
  4342 ;;
  4343                           
  4344                           	psect	text30
  4345   0020B0                     __ptext30:
  4346                           	callstack 0
  4347   0020B0                     _BL_MemoryUnlockKeysInit:
  4348                           	callstack 26
  4349   0020B0                     
  4350                           ;mcc_generated_files/bootloader/library/core/bl_memory.c: 45: void BL_MemoryUnlockKeysIn
      +                          it(key_structure_t keys);mcc_generated_files/bootloader/library/core/bl_memory.c: 46: {;
      +                          mcc_generated_files/bootloader/library/core/bl_memory.c: 47:     erasePageKey = keys.era
      +                          seUnlockKey;
  4351   0020B0  C001  F081         	movff	BL_MemoryUnlockKeysInit@keys,_erasePageKey
  4352   0020B4  C002  F082         	movff	BL_MemoryUnlockKeysInit@keys+1,_erasePageKey+1
  4353                           
  4354                           ;mcc_generated_files/bootloader/library/core/bl_memory.c: 48:     readKey = keys.readUnl
      +                          ockKey;
  4355   0020B8  C003  F07F         	movff	BL_MemoryUnlockKeysInit@keys+2,_readKey
  4356   0020BC  C004  F080         	movff	BL_MemoryUnlockKeysInit@keys+3,_readKey+1
  4357                           
  4358                           ;mcc_generated_files/bootloader/library/core/bl_memory.c: 49:     rowWriteKey = keys.row
      +                          WriteUnlockKey;
  4359   0020C0  C007  F07B         	movff	BL_MemoryUnlockKeysInit@keys+6,_rowWriteKey
  4360   0020C4  C008  F07C         	movff	BL_MemoryUnlockKeysInit@keys+7,_rowWriteKey+1
  4361                           
  4362                           ;mcc_generated_files/bootloader/library/core/bl_memory.c: 50:     byteWordWriteKey = key
      +                          s.byteWordWriteUnlockKey;
  4363   0020C8  C005  F07D         	movff	BL_MemoryUnlockKeysInit@keys+4,_byteWordWriteKey
  4364   0020CC  C006  F07E         	movff	BL_MemoryUnlockKeysInit@keys+5,_byteWordWriteKey+1
  4365   0020D0  0012               	return		;funcret
  4366   0020D2                     __end_of_BL_MemoryUnlockKeysInit:
  4367                           	callstack 0
  4368                           
  4369 ;; *************** function _BL_MemoryUnlockKeysClear *****************
  4370 ;; Defined at:
  4371 ;;		line 53 in file "mcc_generated_files/bootloader/library/core/bl_memory.c"
  4372 ;; Parameters:    Size  Location     Type
  4373 ;;		None
  4374 ;; Auto vars:     Size  Location     Type
  4375 ;;		None
  4376 ;; Return value:  Size  Location     Type
  4377 ;;                  1    wreg      void 
  4378 ;; Registers used:
  4379 ;;		wreg, status,2
  4380 ;; Tracked objects:
  4381 ;;		On entry : 0/0
  4382 ;;		On exit  : 0/0
  4383 ;;		Unchanged: 0/0
  4384 ;; Data sizes:     COMRAM   BANK0   BANK1   BANK2   BANK3   BANK4   BANK5
  4385 ;;      Params:         0       0       0       0       0       0       0
  4386 ;;      Locals:         0       0       0       0       0       0       0
  4387 ;;      Temps:          0       0       0       0       0       0       0
  4388 ;;      Totals:         0       0       0       0       0       0       0
  4389 ;;Total ram usage:        0 bytes
  4390 ;; Hardware stack levels used: 1
  4391 ;; This function calls:
  4392 ;;		Nothing
  4393 ;; This function is called by:
  4394 ;;		_BL_BootCommandProcess
  4395 ;; This function uses a non-reentrant model
  4396 ;;
  4397                           
  4398                           	psect	text31
  4399   00208C                     __ptext31:
  4400                           	callstack 0
  4401   00208C                     _BL_MemoryUnlockKeysClear:
  4402                           	callstack 26
  4403   00208C                     
  4404                           ;mcc_generated_files/bootloader/library/core/bl_memory.c: 55:     erasePageKey = 0;
  4405   00208C  0E00               	movlw	0
  4406   00208E  0100               	movlb	0	; () banked
  4407   002090  6F82               	movwf	(_erasePageKey+1)& (0+255),b
  4408   002092  0E00               	movlw	0
  4409   002094  6F81               	movwf	_erasePageKey& (0+255),b
  4410                           
  4411                           ;mcc_generated_files/bootloader/library/core/bl_memory.c: 56:     readKey = 0;
  4412   002096  0E00               	movlw	0
  4413   002098  6F80               	movwf	(_readKey+1)& (0+255),b
  4414   00209A  0E00               	movlw	0
  4415   00209C  6F7F               	movwf	_readKey& (0+255),b
  4416                           
  4417                           ;mcc_generated_files/bootloader/library/core/bl_memory.c: 57:     rowWriteKey = 0;
  4418   00209E  0E00               	movlw	0
  4419   0020A0  6F7C               	movwf	(_rowWriteKey+1)& (0+255),b
  4420   0020A2  0E00               	movlw	0
  4421   0020A4  6F7B               	movwf	_rowWriteKey& (0+255),b
  4422                           
  4423                           ;mcc_generated_files/bootloader/library/core/bl_memory.c: 58:     byteWordWriteKey = 0;
  4424   0020A6  0E00               	movlw	0
  4425   0020A8  6F7E               	movwf	(_byteWordWriteKey+1)& (0+255),b
  4426   0020AA  0E00               	movlw	0
  4427   0020AC  6F7D               	movwf	_byteWordWriteKey& (0+255),b
  4428   0020AE                     
  4429                           ; BSR set to: 0
  4430   0020AE  0012               	return		;funcret
  4431   0020B0                     __end_of_BL_MemoryUnlockKeysClear:
  4432                           	callstack 0
  4433                           
  4434 ;; *************** function _BL_FlashWrite *****************
  4435 ;; Defined at:
  4436 ;;		line 207 in file "mcc_generated_files/bootloader/library/core/bl_memory.c"
  4437 ;; Parameters:    Size  Location     Type
  4438 ;;  address         4   21[COMRAM] unsigned long 
  4439 ;;  buffer          2   25[COMRAM] PTR unsigned char 
  4440 ;;		 -> FTP_RESPONSE_BUFFER(19), FTP_RECEIVE_BUFFER(74), FTP_RETRY_BUFFER(19), 
  4441 ;;  length          2   27[COMRAM] unsigned int 
  4442 ;; Auto vars:     Size  Location     Type
  4443 ;;  pageStartAdd    4   39[COMRAM] unsigned long 
  4444 ;;  index           2   37[COMRAM] unsigned short 
  4445 ;;  counter         2   35[COMRAM] unsigned short 
  4446 ;;  offset          2   33[COMRAM] unsigned short 
  4447 ;;  result          1   43[COMRAM] enum E6046
  4448 ;; Return value:  Size  Location     Type
  4449 ;;                  1    wreg      enum E6078
  4450 ;; Registers used:
  4451 ;;		wreg, fsr1l, fsr1h, fsr2l, fsr2h, status,2, status,0, cstack
  4452 ;; Tracked objects:
  4453 ;;		On entry : 0/0
  4454 ;;		On exit  : 0/0
  4455 ;;		Unchanged: 0/0
  4456 ;; Data sizes:     COMRAM   BANK0   BANK1   BANK2   BANK3   BANK4   BANK5
  4457 ;;      Params:         8       0       0       0       0       0       0
  4458 ;;      Locals:        11       0       0       0       0       0       0
  4459 ;;      Temps:          4       0       0       0       0       0       0
  4460 ;;      Totals:        23       0       0       0       0       0       0
  4461 ;;Total ram usage:       23 bytes
  4462 ;; Hardware stack levels used: 1
  4463 ;; Hardware stack levels required when called: 1
  4464 ;; This function calls:
  4465 ;;		_FLASH_PageAddressGet
  4466 ;;		_FLASH_PageErase
  4467 ;;		_FLASH_PageOffsetGet
  4468 ;;		_FLASH_Read
  4469 ;;		_FLASH_RowWrite
  4470 ;;		_NVM_IsBusy
  4471 ;;		_NVM_StatusClear
  4472 ;;		_NVM_StatusGet
  4473 ;;		_NVM_UnlockKeyClear
  4474 ;;		_NVM_UnlockKeySet
  4475 ;; This function is called by:
  4476 ;;		_BL_BootCommandProcess
  4477 ;; This function uses a non-reentrant model
  4478 ;;
  4479                           
  4480                           	psect	text32
  4481   000694                     __ptext32:
  4482                           	callstack 0
  4483   000694                     _BL_FlashWrite:
  4484                           	callstack 25
  4485   000694                     
  4486                           ;mcc_generated_files/bootloader/library/core/bl_memory.c: 207: bl_mem_result_t BL_FlashW
      +                          rite(flash_address_t address, flash_data_t * buffer, size_t length);mcc_generated_files/
      +                          bootloader/library/core/bl_memory.c: 208: {;mcc_generated_files/bootloader/library/core/
      +                          bl_memory.c: 209:     bl_mem_result_t result = BL_MEM_FAIL;
  4487   000694  0E01               	movlw	1
  4488   000696  6E2C               	movwf	BL_FlashWrite@result^0,c
  4489                           
  4490                           ;mcc_generated_files/bootloader/library/core/bl_memory.c: 210:     uint16_t offset;;mcc_
      +                          generated_files/bootloader/library/core/bl_memory.c: 211:     uint16_t index;;mcc_genera
      +                          ted_files/bootloader/library/core/bl_memory.c: 212:     uint16_t counter = 0;
  4491   000698  0E00               	movlw	0
  4492   00069A  6E25               	movwf	(BL_FlashWrite@counter+1)^0,c
  4493   00069C  0E00               	movlw	0
  4494   00069E  6E24               	movwf	BL_FlashWrite@counter^0,c
  4495   0006A0                     
  4496                           ;mcc_generated_files/bootloader/library/core/bl_memory.c: 213:     flash_address_t pageS
      +                          tartAddress;;mcc_generated_files/bootloader/library/core/bl_memory.c: 215:     if (buffe
      +                          r == ((void*)0))
  4497   0006A0  501A               	movf	BL_FlashWrite@buffer^0,w,c
  4498   0006A2  101B               	iorwf	(BL_FlashWrite@buffer+1)^0,w,c
  4499   0006A4  A4D8               	btfss	status,2,c
  4500   0006A6  EF57  F003         	goto	u3671
  4501   0006AA  EF59  F003         	goto	u3670
  4502   0006AE                     u3671:
  4503   0006AE  EF5D  F003         	goto	l4877
  4504   0006B2                     u3670:
  4505   0006B2                     l4875:
  4506                           
  4507                           ;mcc_generated_files/bootloader/library/core/bl_memory.c: 216:     {;mcc_generated_files
      +                          /bootloader/library/core/bl_memory.c: 217:         result = BL_MEM_INVALID_ARG;
  4508   0006B2  0E02               	movlw	2
  4509   0006B4  6E2C               	movwf	BL_FlashWrite@result^0,c
  4510                           
  4511                           ;mcc_generated_files/bootloader/library/core/bl_memory.c: 218:     }
  4512   0006B6  EFD2  F004         	goto	l397
  4513   0006BA                     l4877:
  4514   0006BA  5019               	movf	(BL_FlashWrite@address+3)^0,w,c
  4515   0006BC  1018               	iorwf	(BL_FlashWrite@address+2)^0,w,c
  4516   0006BE  E10A               	bnz	u3680
  4517   0006C0  0416               	decf	BL_FlashWrite@address^0,w,c
  4518   0006C2  0E80               	movlw	128
  4519   0006C4  5817               	subwfb	(BL_FlashWrite@address+1)^0,w,c
  4520   0006C6  A0D8               	btfss	status,0,c
  4521   0006C8  EF68  F003         	goto	u3681
  4522   0006CC  EF6A  F003         	goto	u3680
  4523   0006D0                     u3681:
  4524   0006D0  EF6C  F003         	goto	l4881
  4525   0006D4                     u3680:
  4526   0006D4  EF59  F003         	goto	l4875
  4527   0006D8                     l4881:
  4528   0006D8  501C               	movf	BL_FlashWrite@length^0,w,c
  4529   0006DA  101D               	iorwf	(BL_FlashWrite@length+1)^0,w,c
  4530   0006DC  B4D8               	btfsc	status,2,c
  4531   0006DE  EF73  F003         	goto	u3691
  4532   0006E2  EF75  F003         	goto	u3690
  4533   0006E6                     u3691:
  4534   0006E6  EF59  F003         	goto	l4875
  4535   0006EA                     u3690:
  4536   0006EA  501C               	movf	BL_FlashWrite@length^0,w,c
  4537   0006EC  2416               	addwf	BL_FlashWrite@address^0,w,c
  4538   0006EE  6E1E               	movwf	??_BL_FlashWrite^0,c
  4539   0006F0  501D               	movf	(BL_FlashWrite@length+1)^0,w,c
  4540   0006F2  2017               	addwfc	(BL_FlashWrite@address+1)^0,w,c
  4541   0006F4  6E1F               	movwf	(??_BL_FlashWrite+1)^0,c
  4542   0006F6  0E00               	movlw	0
  4543   0006F8  2018               	addwfc	(BL_FlashWrite@address+2)^0,w,c
  4544   0006FA  6E20               	movwf	(??_BL_FlashWrite+2)^0,c
  4545   0006FC  0E00               	movlw	0
  4546   0006FE  2019               	addwfc	(BL_FlashWrite@address+3)^0,w,c
  4547   000700  6E21               	movwf	(??_BL_FlashWrite+3)^0,c
  4548   000702  5021               	movf	(??_BL_FlashWrite+3)^0,w,c
  4549   000704  1020               	iorwf	(??_BL_FlashWrite+2)^0,w,c
  4550   000706  E10B               	bnz	u3700
  4551   000708  0E02               	movlw	2
  4552   00070A  5C1E               	subwf	??_BL_FlashWrite^0,w,c
  4553   00070C  0E80               	movlw	128
  4554   00070E  581F               	subwfb	(??_BL_FlashWrite+1)^0,w,c
  4555   000710  A0D8               	btfss	status,0,c
  4556   000712  EF8D  F003         	goto	u3701
  4557   000716  EF8F  F003         	goto	u3700
  4558   00071A                     u3701:
  4559   00071A  EF91  F003         	goto	l4887
  4560   00071E                     u3700:
  4561   00071E  EF59  F003         	goto	l4875
  4562   000722                     l4887:
  4563                           
  4564                           ;mcc_generated_files/bootloader/library/core/bl_memory.c: 229:     {;mcc_generated_files
      +                          /bootloader/library/core/bl_memory.c: 230:         NVM_StatusClear();
  4565   000722  EC7F  F011         	call	_NVM_StatusClear	;wreg free
  4566   000726                     
  4567                           ;mcc_generated_files/bootloader/library/core/bl_memory.c: 231:         if (length < (64U
      +                          ))
  4568   000726  501D               	movf	(BL_FlashWrite@length+1)^0,w,c
  4569   000728  E107               	bnz	u3711
  4570   00072A  0E40               	movlw	64
  4571   00072C  5C1C               	subwf	BL_FlashWrite@length^0,w,c
  4572   00072E  B0D8               	btfsc	status,0,c
  4573   000730  EF9C  F003         	goto	u3711
  4574   000734  EF9E  F003         	goto	u3710
  4575   000738                     u3711:
  4576   000738  EF7C  F004         	goto	l4949
  4577   00073C                     u3710:
  4578   00073C                     
  4579                           ;mcc_generated_files/bootloader/library/core/bl_memory.c: 232:         {;mcc_generated_f
      +                          iles/bootloader/library/core/bl_memory.c: 233:             offset = FLASH_PageOffsetGet(
      +                          address);
  4580   00073C  C016  F001         	movff	BL_FlashWrite@address,FLASH_PageOffsetGet@address
  4581   000740  C017  F002         	movff	BL_FlashWrite@address+1,FLASH_PageOffsetGet@address+1
  4582   000744  C018  F003         	movff	BL_FlashWrite@address+2,FLASH_PageOffsetGet@address+2
  4583   000748  C019  F004         	movff	BL_FlashWrite@address+3,FLASH_PageOffsetGet@address+3
  4584   00074C  EC5F  F011         	call	_FLASH_PageOffsetGet	;wreg free
  4585   000750  C001  F022         	movff	?_FLASH_PageOffsetGet,BL_FlashWrite@offset
  4586   000754  C002  F023         	movff	?_FLASH_PageOffsetGet+1,BL_FlashWrite@offset+1
  4587                           
  4588                           ;mcc_generated_files/bootloader/library/core/bl_memory.c: 234:             pageStartAddr
      +                          ess = FLASH_PageAddressGet(address);
  4589   000758  C016  F001         	movff	BL_FlashWrite@address,FLASH_PageAddressGet@address
  4590   00075C  C017  F002         	movff	BL_FlashWrite@address+1,FLASH_PageAddressGet@address+1
  4591   000760  C018  F003         	movff	BL_FlashWrite@address+2,FLASH_PageAddressGet@address+2
  4592   000764  C019  F004         	movff	BL_FlashWrite@address+3,FLASH_PageAddressGet@address+3
  4593   000768  ECDB  F010         	call	_FLASH_PageAddressGet	;wreg free
  4594   00076C  C001  F028         	movff	?_FLASH_PageAddressGet,BL_FlashWrite@pageStartAddress
  4595   000770  C002  F029         	movff	?_FLASH_PageAddressGet+1,BL_FlashWrite@pageStartAddress+1
  4596   000774  C003  F02A         	movff	?_FLASH_PageAddressGet+2,BL_FlashWrite@pageStartAddress+2
  4597   000778  C004  F02B         	movff	?_FLASH_PageAddressGet+3,BL_FlashWrite@pageStartAddress+3
  4598   00077C                     
  4599                           ;mcc_generated_files/bootloader/library/core/bl_memory.c: 237:             for (index = 
      +                          0; index < (64U); index++)
  4600   00077C  0E00               	movlw	0
  4601   00077E  6E27               	movwf	(BL_FlashWrite@index+1)^0,c
  4602   000780  0E00               	movlw	0
  4603   000782  6E26               	movwf	BL_FlashWrite@index^0,c
  4604   000784                     l4899:
  4605                           
  4606                           ;mcc_generated_files/bootloader/library/core/bl_memory.c: 238:             {;mcc_generat
      +                          ed_files/bootloader/library/core/bl_memory.c: 239:                 writeBuffer[index] = 
      +                          FLASH_Read(pageStartAddress);
  4607   000784  0E6A               	movlw	low _writeBuffer
  4608   000786  2426               	addwf	BL_FlashWrite@index^0,w,c
  4609   000788  6ED9               	movwf	fsr2l,c
  4610   00078A  0E01               	movlw	high _writeBuffer
  4611   00078C  2027               	addwfc	(BL_FlashWrite@index+1)^0,w,c
  4612   00078E  6EDA               	movwf	fsr2h,c
  4613   000790  C028  F001         	movff	BL_FlashWrite@pageStartAddress,FLASH_Read@address
  4614   000794  C029  F002         	movff	BL_FlashWrite@pageStartAddress+1,FLASH_Read@address+1
  4615   000798  C02A  F003         	movff	BL_FlashWrite@pageStartAddress+2,FLASH_Read@address+2
  4616   00079C  C02B  F004         	movff	BL_FlashWrite@pageStartAddress+3,FLASH_Read@address+3
  4617   0007A0  ECB6  F00D         	call	_FLASH_Read	;wreg free
  4618   0007A4  6EDF               	movwf	indf2,c
  4619   0007A6                     
  4620                           ;mcc_generated_files/bootloader/library/core/bl_memory.c: 240:                 pageStart
      +                          Address++;
  4621   0007A6  0E01               	movlw	1
  4622   0007A8  2628               	addwf	BL_FlashWrite@pageStartAddress^0,f,c
  4623   0007AA  0E00               	movlw	0
  4624   0007AC  2229               	addwfc	(BL_FlashWrite@pageStartAddress+1)^0,f,c
  4625   0007AE  222A               	addwfc	(BL_FlashWrite@pageStartAddress+2)^0,f,c
  4626   0007B0  222B               	addwfc	(BL_FlashWrite@pageStartAddress+3)^0,f,c
  4627   0007B2                     l4903:
  4628                           
  4629                           ;mcc_generated_files/bootloader/library/core/bl_memory.c: 241:                 while (NV
      +                          M_IsBusy())
  4630   0007B2  EC0A  F010         	call	_NVM_IsBusy	;wreg free
  4631   0007B6  0900               	iorlw	0
  4632   0007B8  A4D8               	btfss	status,2,c
  4633   0007BA  EFE1  F003         	goto	u3721
  4634   0007BE  EFE3  F003         	goto	u3720
  4635   0007C2                     u3721:
  4636   0007C2  EFD9  F003         	goto	l4903
  4637   0007C6                     u3720:
  4638   0007C6                     
  4639                           ;mcc_generated_files/bootloader/library/core/bl_memory.c: 245:                 if (NVM_O
      +                          K == NVM_StatusGet())
  4640   0007C6  ECE8  F010         	call	_NVM_StatusGet	;wreg free
  4641   0007CA  0900               	iorlw	0
  4642   0007CC  A4D8               	btfss	status,2,c
  4643   0007CE  EFEB  F003         	goto	u3731
  4644   0007D2  EFED  F003         	goto	u3730
  4645   0007D6                     u3731:
  4646   0007D6  EFF1  F003         	goto	l4909
  4647   0007DA                     u3730:
  4648   0007DA                     
  4649                           ;mcc_generated_files/bootloader/library/core/bl_memory.c: 246:                 {;mcc_gen
      +                          erated_files/bootloader/library/core/bl_memory.c: 247:                     result = BL_M
      +                          EM_PASS;
  4650   0007DA  0E00               	movlw	0
  4651   0007DC  6E2C               	movwf	BL_FlashWrite@result^0,c
  4652                           
  4653                           ;mcc_generated_files/bootloader/library/core/bl_memory.c: 248:                 }
  4654   0007DE  EFF5  F003         	goto	l4911
  4655   0007E2                     l4909:
  4656                           
  4657                           ;mcc_generated_files/bootloader/library/core/bl_memory.c: 250:                 {;mcc_gen
      +                          erated_files/bootloader/library/core/bl_memory.c: 251:                     result = BL_M
      +                          EM_FAIL;
  4658   0007E2  0E01               	movlw	1
  4659   0007E4  6E2C               	movwf	BL_FlashWrite@result^0,c
  4660                           
  4661                           ;mcc_generated_files/bootloader/library/core/bl_memory.c: 252:                     break
      +                          ;
  4662   0007E6  EF02  F004         	goto	l4915
  4663   0007EA                     l4911:
  4664                           
  4665                           ;mcc_generated_files/bootloader/library/core/bl_memory.c: 254:             }
  4666   0007EA  4A26               	infsnz	BL_FlashWrite@index^0,f,c
  4667   0007EC  2A27               	incf	(BL_FlashWrite@index+1)^0,f,c
  4668   0007EE  5027               	movf	(BL_FlashWrite@index+1)^0,w,c
  4669   0007F0  E109               	bnz	u3740
  4670   0007F2  0E40               	movlw	64
  4671   0007F4  5C26               	subwf	BL_FlashWrite@index^0,w,c
  4672   0007F6  A0D8               	btfss	status,0,c
  4673   0007F8  EF00  F004         	goto	u3741
  4674   0007FC  EF02  F004         	goto	u3740
  4675   000800                     u3741:
  4676   000800  EFC2  F003         	goto	l4899
  4677   000804                     u3740:
  4678   000804                     l4915:
  4679                           
  4680                           ;mcc_generated_files/bootloader/library/core/bl_memory.c: 255:             if (result !=
      +                           BL_MEM_FAIL)
  4681   000804  042C               	decf	BL_FlashWrite@result^0,w,c
  4682   000806  B4D8               	btfsc	status,2,c
  4683   000808  EF08  F004         	goto	u3751
  4684   00080C  EF0A  F004         	goto	u3750
  4685   000810                     u3751:
  4686   000810  EF7C  F004         	goto	l4949
  4687   000814                     u3750:
  4688   000814  EF21  F004         	goto	l4927
  4689   000818                     l4919:
  4690                           
  4691                           ;mcc_generated_files/bootloader/library/core/bl_memory.c: 259:                 {;mcc_gen
      +                          erated_files/bootloader/library/core/bl_memory.c: 260:                     writeBuffer[o
      +                          ffset] = buffer[counter];
  4692   000818  5024               	movf	BL_FlashWrite@counter^0,w,c
  4693   00081A  241A               	addwf	BL_FlashWrite@buffer^0,w,c
  4694   00081C  6ED9               	movwf	fsr2l,c
  4695   00081E  5025               	movf	(BL_FlashWrite@counter+1)^0,w,c
  4696   000820  201B               	addwfc	(BL_FlashWrite@buffer+1)^0,w,c
  4697   000822  6EDA               	movwf	fsr2h,c
  4698   000824  0E6A               	movlw	low _writeBuffer
  4699   000826  2422               	addwf	BL_FlashWrite@offset^0,w,c
  4700   000828  6EE1               	movwf	fsr1l,c
  4701   00082A  0E01               	movlw	high _writeBuffer
  4702   00082C  2023               	addwfc	(BL_FlashWrite@offset+1)^0,w,c
  4703   00082E  6EE2               	movwf	fsr1h,c
  4704   000830  CFDF FFE7          	movff	indf2,indf1
  4705   000834                     
  4706                           ;mcc_generated_files/bootloader/library/core/bl_memory.c: 261:                     offse
      +                          t++;
  4707   000834  4A22               	infsnz	BL_FlashWrite@offset^0,f,c
  4708   000836  2A23               	incf	(BL_FlashWrite@offset+1)^0,f,c
  4709   000838                     
  4710                           ;mcc_generated_files/bootloader/library/core/bl_memory.c: 262:                     count
      +                          er++;
  4711   000838  4A24               	infsnz	BL_FlashWrite@counter^0,f,c
  4712   00083A  2A25               	incf	(BL_FlashWrite@counter+1)^0,f,c
  4713   00083C                     
  4714                           ;mcc_generated_files/bootloader/library/core/bl_memory.c: 264:                     lengt
      +                          h--;
  4715   00083C  061C               	decf	BL_FlashWrite@length^0,f,c
  4716   00083E  A0D8               	btfss	status,0,c
  4717   000840  061D               	decf	(BL_FlashWrite@length+1)^0,f,c
  4718   000842                     l4927:
  4719                           
  4720                           ;mcc_generated_files/bootloader/library/core/bl_memory.c: 258:                 while (le
      +                          ngth != (size_t) 0)
  4721   000842  501C               	movf	BL_FlashWrite@length^0,w,c
  4722   000844  101D               	iorwf	(BL_FlashWrite@length+1)^0,w,c
  4723   000846  A4D8               	btfss	status,2,c
  4724   000848  EF28  F004         	goto	u3761
  4725   00084C  EF2A  F004         	goto	u3760
  4726   000850                     u3761:
  4727   000850  EF0C  F004         	goto	l4919
  4728   000854                     u3760:
  4729   000854                     
  4730                           ;mcc_generated_files/bootloader/library/core/bl_memory.c: 266:                 pageStart
      +                          Address = FLASH_PageAddressGet(address);
  4731   000854  C016  F001         	movff	BL_FlashWrite@address,FLASH_PageAddressGet@address
  4732   000858  C017  F002         	movff	BL_FlashWrite@address+1,FLASH_PageAddressGet@address+1
  4733   00085C  C018  F003         	movff	BL_FlashWrite@address+2,FLASH_PageAddressGet@address+2
  4734   000860  C019  F004         	movff	BL_FlashWrite@address+3,FLASH_PageAddressGet@address+3
  4735   000864  ECDB  F010         	call	_FLASH_PageAddressGet	;wreg free
  4736   000868  C001  F028         	movff	?_FLASH_PageAddressGet,BL_FlashWrite@pageStartAddress
  4737   00086C  C002  F029         	movff	?_FLASH_PageAddressGet+1,BL_FlashWrite@pageStartAddress+1
  4738   000870  C003  F02A         	movff	?_FLASH_PageAddressGet+2,BL_FlashWrite@pageStartAddress+2
  4739   000874  C004  F02B         	movff	?_FLASH_PageAddressGet+3,BL_FlashWrite@pageStartAddress+3
  4740   000878                     
  4741                           ;mcc_generated_files/bootloader/library/core/bl_memory.c: 268:                 NVM_Unloc
      +                          kKeySet(erasePageKey);
  4742   000878  C081  F001         	movff	_erasePageKey,NVM_UnlockKeySet@unlockKey
  4743   00087C  C082  F002         	movff	_erasePageKey+1,NVM_UnlockKeySet@unlockKey+1
  4744   000880  EC55  F011         	call	_NVM_UnlockKeySet	;wreg free
  4745   000884                     
  4746                           ;mcc_generated_files/bootloader/library/core/bl_memory.c: 269:                 result = 
      +                          (bl_mem_result_t) FLASH_PageErase(pageStartAddress);
  4747   000884  C028  F001         	movff	BL_FlashWrite@pageStartAddress,FLASH_PageErase@address
  4748   000888  C029  F002         	movff	BL_FlashWrite@pageStartAddress+1,FLASH_PageErase@address+1
  4749   00088C  C02A  F003         	movff	BL_FlashWrite@pageStartAddress+2,FLASH_PageErase@address+2
  4750   000890  C02B  F004         	movff	BL_FlashWrite@pageStartAddress+3,FLASH_PageErase@address+3
  4751   000894  EC9A  F00B         	call	_FLASH_PageErase	;wreg free
  4752   000898  6E2C               	movwf	BL_FlashWrite@result^0,c
  4753                           
  4754                           ;mcc_generated_files/bootloader/library/core/bl_memory.c: 270:                 NVM_Unloc
      +                          kKeyClear();
  4755   00089A  EC5A  F011         	call	_NVM_UnlockKeyClear	;wreg free
  4756   00089E                     
  4757                           ;mcc_generated_files/bootloader/library/core/bl_memory.c: 271:                 if ((bl_m
      +                          em_result_t) NVM_OK == result)
  4758   00089E  502C               	movf	BL_FlashWrite@result^0,w,c
  4759   0008A0  A4D8               	btfss	status,2,c
  4760   0008A2  EF55  F004         	goto	u3771
  4761   0008A6  EF57  F004         	goto	u3770
  4762   0008AA                     u3771:
  4763   0008AA  EF6E  F004         	goto	l4943
  4764   0008AE                     u3770:
  4765   0008AE                     
  4766                           ;mcc_generated_files/bootloader/library/core/bl_memory.c: 272:                 {;mcc_gen
      +                          erated_files/bootloader/library/core/bl_memory.c: 273:                     NVM_UnlockKey
      +                          Set(rowWriteKey);
  4767   0008AE  C07B  F001         	movff	_rowWriteKey,NVM_UnlockKeySet@unlockKey
  4768   0008B2  C07C  F002         	movff	_rowWriteKey+1,NVM_UnlockKeySet@unlockKey+1
  4769   0008B6  EC55  F011         	call	_NVM_UnlockKeySet	;wreg free
  4770   0008BA                     
  4771                           ;mcc_generated_files/bootloader/library/core/bl_memory.c: 274:                     resul
      +                          t = (bl_mem_result_t) FLASH_RowWrite(pageStartAddress, writeBuffer);
  4772   0008BA  C028  F001         	movff	BL_FlashWrite@pageStartAddress,FLASH_RowWrite@address
  4773   0008BE  C029  F002         	movff	BL_FlashWrite@pageStartAddress+1,FLASH_RowWrite@address+1
  4774   0008C2  C02A  F003         	movff	BL_FlashWrite@pageStartAddress+2,FLASH_RowWrite@address+2
  4775   0008C6  C02B  F004         	movff	BL_FlashWrite@pageStartAddress+3,FLASH_RowWrite@address+3
  4776   0008CA  0E6A               	movlw	low _writeBuffer
  4777   0008CC  6E05               	movwf	FLASH_RowWrite@dataBuffer^0,c
  4778   0008CE  0E01               	movlw	high _writeBuffer
  4779   0008D0  6E06               	movwf	(FLASH_RowWrite@dataBuffer+1)^0,c
  4780   0008D2  EC52  F00C         	call	_FLASH_RowWrite	;wreg free
  4781   0008D6  6E2C               	movwf	BL_FlashWrite@result^0,c
  4782   0008D8                     
  4783                           ;mcc_generated_files/bootloader/library/core/bl_memory.c: 275:                     NVM_U
      +                          nlockKeyClear();
  4784   0008D8  EC5A  F011         	call	_NVM_UnlockKeyClear	;wreg free
  4785   0008DC                     l4943:
  4786                           
  4787                           ;mcc_generated_files/bootloader/library/core/bl_memory.c: 278:                 if ((bl_m
      +                          em_result_t) NVM_OK == result)
  4788   0008DC  502C               	movf	BL_FlashWrite@result^0,w,c
  4789   0008DE  A4D8               	btfss	status,2,c
  4790   0008E0  EF74  F004         	goto	u3781
  4791   0008E4  EF76  F004         	goto	u3780
  4792   0008E8                     u3781:
  4793   0008E8  EF7A  F004         	goto	l4947
  4794   0008EC                     u3780:
  4795   0008EC                     
  4796                           ;mcc_generated_files/bootloader/library/core/bl_memory.c: 279:                 {;mcc_gen
      +                          erated_files/bootloader/library/core/bl_memory.c: 280:                     result = BL_M
      +                          EM_PASS;
  4797   0008EC  0E00               	movlw	0
  4798   0008EE  6E2C               	movwf	BL_FlashWrite@result^0,c
  4799                           
  4800                           ;mcc_generated_files/bootloader/library/core/bl_memory.c: 281:                 }
  4801   0008F0  EF7C  F004         	goto	l4949
  4802   0008F4                     l4947:
  4803                           
  4804                           ;mcc_generated_files/bootloader/library/core/bl_memory.c: 283:                 {;mcc_gen
      +                          erated_files/bootloader/library/core/bl_memory.c: 284:                     result = BL_M
      +                          EM_FAIL;
  4805   0008F4  0E01               	movlw	1
  4806   0008F6  6E2C               	movwf	BL_FlashWrite@result^0,c
  4807   0008F8                     l4949:
  4808                           
  4809                           ;mcc_generated_files/bootloader/library/core/bl_memory.c: 288:         if (length == (64
      +                          U))
  4810   0008F8  0E40               	movlw	64
  4811   0008FA  181C               	xorwf	BL_FlashWrite@length^0,w,c
  4812   0008FC  101D               	iorwf	(BL_FlashWrite@length+1)^0,w,c
  4813   0008FE  A4D8               	btfss	status,2,c
  4814   000900  EF84  F004         	goto	u3791
  4815   000904  EF86  F004         	goto	u3790
  4816   000908                     u3791:
  4817   000908  EFD2  F004         	goto	l397
  4818   00090C                     u3790:
  4819   00090C                     
  4820                           ;mcc_generated_files/bootloader/library/core/bl_memory.c: 289:         {;mcc_generated_f
      +                          iles/bootloader/library/core/bl_memory.c: 290:             pageStartAddress = address;
  4821   00090C  C016  F028         	movff	BL_FlashWrite@address,BL_FlashWrite@pageStartAddress
  4822   000910  C017  F029         	movff	BL_FlashWrite@address+1,BL_FlashWrite@pageStartAddress+1
  4823   000914  C018  F02A         	movff	BL_FlashWrite@address+2,BL_FlashWrite@pageStartAddress+2
  4824   000918  C019  F02B         	movff	BL_FlashWrite@address+3,BL_FlashWrite@pageStartAddress+3
  4825   00091C                     
  4826                           ;mcc_generated_files/bootloader/library/core/bl_memory.c: 292:             NVM_UnlockKey
      +                          Set(erasePageKey);
  4827   00091C  C081  F001         	movff	_erasePageKey,NVM_UnlockKeySet@unlockKey
  4828   000920  C082  F002         	movff	_erasePageKey+1,NVM_UnlockKeySet@unlockKey+1
  4829   000924  EC55  F011         	call	_NVM_UnlockKeySet	;wreg free
  4830   000928                     
  4831                           ;mcc_generated_files/bootloader/library/core/bl_memory.c: 293:             result = (bl_
      +                          mem_result_t) FLASH_PageErase(pageStartAddress);
  4832   000928  C028  F001         	movff	BL_FlashWrite@pageStartAddress,FLASH_PageErase@address
  4833   00092C  C029  F002         	movff	BL_FlashWrite@pageStartAddress+1,FLASH_PageErase@address+1
  4834   000930  C02A  F003         	movff	BL_FlashWrite@pageStartAddress+2,FLASH_PageErase@address+2
  4835   000934  C02B  F004         	movff	BL_FlashWrite@pageStartAddress+3,FLASH_PageErase@address+3
  4836   000938  EC9A  F00B         	call	_FLASH_PageErase	;wreg free
  4837   00093C  6E2C               	movwf	BL_FlashWrite@result^0,c
  4838   00093E                     
  4839                           ;mcc_generated_files/bootloader/library/core/bl_memory.c: 294:             NVM_UnlockKey
      +                          Clear();
  4840   00093E  EC5A  F011         	call	_NVM_UnlockKeyClear	;wreg free
  4841   000942                     
  4842                           ;mcc_generated_files/bootloader/library/core/bl_memory.c: 295:             if ((bl_mem_r
      +                          esult_t) NVM_OK == result)
  4843   000942  502C               	movf	BL_FlashWrite@result^0,w,c
  4844   000944  A4D8               	btfss	status,2,c
  4845   000946  EFA7  F004         	goto	u3801
  4846   00094A  EFA9  F004         	goto	u3800
  4847   00094E                     u3801:
  4848   00094E  EFC2  F004         	goto	l4967
  4849   000952                     u3800:
  4850   000952                     
  4851                           ;mcc_generated_files/bootloader/library/core/bl_memory.c: 296:             {;mcc_generat
      +                          ed_files/bootloader/library/core/bl_memory.c: 298:                 NVM_UnlockKeySet(rowW
      +                          riteKey);
  4852   000952  C07B  F001         	movff	_rowWriteKey,NVM_UnlockKeySet@unlockKey
  4853   000956  C07C  F002         	movff	_rowWriteKey+1,NVM_UnlockKeySet@unlockKey+1
  4854   00095A  EC55  F011         	call	_NVM_UnlockKeySet	;wreg free
  4855   00095E                     
  4856                           ;mcc_generated_files/bootloader/library/core/bl_memory.c: 299:                 result = 
      +                          (bl_mem_result_t)FLASH_RowWrite(pageStartAddress,buffer);
  4857   00095E  C028  F001         	movff	BL_FlashWrite@pageStartAddress,FLASH_RowWrite@address
  4858   000962  C029  F002         	movff	BL_FlashWrite@pageStartAddress+1,FLASH_RowWrite@address+1
  4859   000966  C02A  F003         	movff	BL_FlashWrite@pageStartAddress+2,FLASH_RowWrite@address+2
  4860   00096A  C02B  F004         	movff	BL_FlashWrite@pageStartAddress+3,FLASH_RowWrite@address+3
  4861   00096E  C01A  F005         	movff	BL_FlashWrite@buffer,FLASH_RowWrite@dataBuffer
  4862   000972  C01B  F006         	movff	BL_FlashWrite@buffer+1,FLASH_RowWrite@dataBuffer+1
  4863   000976  EC52  F00C         	call	_FLASH_RowWrite	;wreg free
  4864   00097A  6E2C               	movwf	BL_FlashWrite@result^0,c
  4865   00097C                     
  4866                           ;mcc_generated_files/bootloader/library/core/bl_memory.c: 300:                 NVM_Unloc
      +                          kKeyClear();
  4867   00097C  EC5A  F011         	call	_NVM_UnlockKeyClear	;wreg free
  4868                           
  4869                           ;mcc_generated_files/bootloader/library/core/bl_memory.c: 301:             }
  4870   000980  EFC4  F004         	goto	l421
  4871   000984                     l4967:
  4872                           
  4873                           ;mcc_generated_files/bootloader/library/core/bl_memory.c: 303:             {;mcc_generat
      +                          ed_files/bootloader/library/core/bl_memory.c: 304:                 result = BL_MEM_FAIL;
  4874   000984  0E01               	movlw	1
  4875   000986  6E2C               	movwf	BL_FlashWrite@result^0,c
  4876   000988                     l421:
  4877                           
  4878                           ;mcc_generated_files/bootloader/library/core/bl_memory.c: 307:             if ((bl_mem_r
      +                          esult_t) NVM_OK == result)
  4879   000988  502C               	movf	BL_FlashWrite@result^0,w,c
  4880   00098A  A4D8               	btfss	status,2,c
  4881   00098C  EFCA  F004         	goto	u3811
  4882   000990  EFCC  F004         	goto	u3810
  4883   000994                     u3811:
  4884   000994  EFD0  F004         	goto	l4971
  4885   000998                     u3810:
  4886   000998                     
  4887                           ;mcc_generated_files/bootloader/library/core/bl_memory.c: 308:             {;mcc_generat
      +                          ed_files/bootloader/library/core/bl_memory.c: 309:                 result = BL_MEM_PASS;
  4888   000998  0E00               	movlw	0
  4889   00099A  6E2C               	movwf	BL_FlashWrite@result^0,c
  4890                           
  4891                           ;mcc_generated_files/bootloader/library/core/bl_memory.c: 310:             }
  4892   00099C  EFD2  F004         	goto	l397
  4893   0009A0                     l4971:
  4894                           
  4895                           ;mcc_generated_files/bootloader/library/core/bl_memory.c: 312:             {;mcc_generat
      +                          ed_files/bootloader/library/core/bl_memory.c: 313:                 result = BL_MEM_FAIL;
  4896   0009A0  0E01               	movlw	1
  4897   0009A2  6E2C               	movwf	BL_FlashWrite@result^0,c
  4898   0009A4                     l397:
  4899                           
  4900                           ;mcc_generated_files/bootloader/library/core/bl_memory.c: 317:     return result;
  4901   0009A4  502C               	movf	BL_FlashWrite@result^0,w,c
  4902   0009A6  0012               	return		;funcret
  4903   0009A8                     __end_of_BL_FlashWrite:
  4904                           	callstack 0
  4905                           
  4906 ;; *************** function _NVM_UnlockKeySet *****************
  4907 ;; Defined at:
  4908 ;;		line 69 in file "mcc_generated_files/nvm/src/nvm.c"
  4909 ;; Parameters:    Size  Location     Type
  4910 ;;  unlockKey       2    0[COMRAM] unsigned short 
  4911 ;; Auto vars:     Size  Location     Type
  4912 ;;		None
  4913 ;; Return value:  Size  Location     Type
  4914 ;;                  1    wreg      void 
  4915 ;; Registers used:
  4916 ;;		wreg, status,2
  4917 ;; Tracked objects:
  4918 ;;		On entry : 0/0
  4919 ;;		On exit  : 0/0
  4920 ;;		Unchanged: 0/0
  4921 ;; Data sizes:     COMRAM   BANK0   BANK1   BANK2   BANK3   BANK4   BANK5
  4922 ;;      Params:         2       0       0       0       0       0       0
  4923 ;;      Locals:         0       0       0       0       0       0       0
  4924 ;;      Temps:          0       0       0       0       0       0       0
  4925 ;;      Totals:         2       0       0       0       0       0       0
  4926 ;;Total ram usage:        2 bytes
  4927 ;; Hardware stack levels used: 1
  4928 ;; This function calls:
  4929 ;;		Nothing
  4930 ;; This function is called by:
  4931 ;;		_DownloadAreaErase
  4932 ;;		_BL_FlashWrite
  4933 ;;		_BL_FlashRead
  4934 ;; This function uses a non-reentrant model
  4935 ;;
  4936                           
  4937                           	psect	text33
  4938   0022AA                     __ptext33:
  4939                           	callstack 0
  4940   0022AA                     _NVM_UnlockKeySet:
  4941                           	callstack 24
  4942   0022AA                     
  4943                           ;mcc_generated_files/nvm/src/nvm.c: 69: void NVM_UnlockKeySet(uint16_t unlockKey);mcc_ge
      +                          nerated_files/nvm/src/nvm.c: 70: {;mcc_generated_files/nvm/src/nvm.c: 71:     unlockKeyH
      +                          igh = (uint8_t) (unlockKey >> 8);
  4944   0022AA  5002               	movf	(NVM_UnlockKeySet@unlockKey+1)^0,w,c
  4945   0022AC  6E5D               	movwf	_unlockKeyHigh^0,c	;volatile
  4946   0022AE                     
  4947                           ;mcc_generated_files/nvm/src/nvm.c: 72:     unlockKeyLow = (uint8_t) unlockKey;
  4948   0022AE  C001  F05E         	movff	NVM_UnlockKeySet@unlockKey,_unlockKeyLow	;volatile
  4949   0022B2  0012               	return		;funcret
  4950   0022B4                     __end_of_NVM_UnlockKeySet:
  4951                           	callstack 0
  4952                           
  4953 ;; *************** function _NVM_UnlockKeyClear *****************
  4954 ;; Defined at:
  4955 ;;		line 76 in file "mcc_generated_files/nvm/src/nvm.c"
  4956 ;; Parameters:    Size  Location     Type
  4957 ;;		None
  4958 ;; Auto vars:     Size  Location     Type
  4959 ;;		None
  4960 ;; Return value:  Size  Location     Type
  4961 ;;                  1    wreg      void 
  4962 ;; Registers used:
  4963 ;;		wreg, status,2
  4964 ;; Tracked objects:
  4965 ;;		On entry : 0/0
  4966 ;;		On exit  : 0/0
  4967 ;;		Unchanged: 0/0
  4968 ;; Data sizes:     COMRAM   BANK0   BANK1   BANK2   BANK3   BANK4   BANK5
  4969 ;;      Params:         0       0       0       0       0       0       0
  4970 ;;      Locals:         0       0       0       0       0       0       0
  4971 ;;      Temps:          0       0       0       0       0       0       0
  4972 ;;      Totals:         0       0       0       0       0       0       0
  4973 ;;Total ram usage:        0 bytes
  4974 ;; Hardware stack levels used: 1
  4975 ;; This function calls:
  4976 ;;		Nothing
  4977 ;; This function is called by:
  4978 ;;		_DownloadAreaErase
  4979 ;;		_BL_FlashWrite
  4980 ;;		_BL_FlashRead
  4981 ;; This function uses a non-reentrant model
  4982 ;;
  4983                           
  4984                           	psect	text34
  4985   0022B4                     __ptext34:
  4986                           	callstack 0
  4987   0022B4                     _NVM_UnlockKeyClear:
  4988                           	callstack 24
  4989   0022B4                     
  4990                           ;mcc_generated_files/nvm/src/nvm.c: 78:     unlockKeyHigh = 0x00;
  4991   0022B4  0E00               	movlw	0
  4992   0022B6  6E5D               	movwf	_unlockKeyHigh^0,c	;volatile
  4993                           
  4994                           ;mcc_generated_files/nvm/src/nvm.c: 79:     unlockKeyLow = 0x00;
  4995   0022B8  0E00               	movlw	0
  4996   0022BA  6E5E               	movwf	_unlockKeyLow^0,c	;volatile
  4997   0022BC  0012               	return		;funcret
  4998   0022BE                     __end_of_NVM_UnlockKeyClear:
  4999                           	callstack 0
  5000                           
  5001 ;; *************** function _NVM_StatusGet *****************
  5002 ;; Defined at:
  5003 ;;		line 52 in file "mcc_generated_files/nvm/src/nvm.c"
  5004 ;; Parameters:    Size  Location     Type
  5005 ;;		None
  5006 ;; Auto vars:     Size  Location     Type
  5007 ;;		None
  5008 ;; Return value:  Size  Location     Type
  5009 ;;                  1    wreg      enum E6011
  5010 ;; Registers used:
  5011 ;;		wreg
  5012 ;; Tracked objects:
  5013 ;;		On entry : 0/0
  5014 ;;		On exit  : 0/0
  5015 ;;		Unchanged: 0/0
  5016 ;; Data sizes:     COMRAM   BANK0   BANK1   BANK2   BANK3   BANK4   BANK5
  5017 ;;      Params:         0       0       0       0       0       0       0
  5018 ;;      Locals:         0       0       0       0       0       0       0
  5019 ;;      Temps:          0       0       0       0       0       0       0
  5020 ;;      Totals:         0       0       0       0       0       0       0
  5021 ;;Total ram usage:        0 bytes
  5022 ;; Hardware stack levels used: 1
  5023 ;; This function calls:
  5024 ;;		Nothing
  5025 ;; This function is called by:
  5026 ;;		_BL_FlashWrite
  5027 ;;		_BL_FlashRead
  5028 ;; This function uses a non-reentrant model
  5029 ;;
  5030                           
  5031                           	psect	text35
  5032   0021D0                     __ptext35:
  5033                           	callstack 0
  5034   0021D0                     _NVM_StatusGet:
  5035                           	callstack 25
  5036   0021D0                     
  5037                           ;mcc_generated_files/nvm/src/nvm.c: 54:     if (EECON1bits.WRERR == 1)
  5038   0021D0  A6A6               	btfss	166,3,c	;volsfr
  5039   0021D2  EFED  F010         	goto	u3561
  5040   0021D6  EFEF  F010         	goto	u3560
  5041   0021DA                     u3561:
  5042   0021DA  EFF2  F010         	goto	l4765
  5043   0021DE                     u3560:
  5044   0021DE                     
  5045                           ;mcc_generated_files/nvm/src/nvm.c: 55:     {;mcc_generated_files/nvm/src/nvm.c: 56:    
      +                               return NVM_ERROR;
  5046   0021DE  0E01               	movlw	1
  5047   0021E0  EFF3  F010         	goto	l488
  5048   0021E4                     l4765:
  5049                           
  5050                           ;mcc_generated_files/nvm/src/nvm.c: 59:     {;mcc_generated_files/nvm/src/nvm.c: 60:    
      +                               return NVM_OK;
  5051   0021E4  0E00               	movlw	0
  5052   0021E6                     l488:
  5053   0021E6  0012               	return		;funcret
  5054   0021E8                     __end_of_NVM_StatusGet:
  5055                           	callstack 0
  5056                           
  5057 ;; *************** function _NVM_StatusClear *****************
  5058 ;; Defined at:
  5059 ;;		line 64 in file "mcc_generated_files/nvm/src/nvm.c"
  5060 ;; Parameters:    Size  Location     Type
  5061 ;;		None
  5062 ;; Auto vars:     Size  Location     Type
  5063 ;;		None
  5064 ;; Return value:  Size  Location     Type
  5065 ;;                  1    wreg      void 
  5066 ;; Registers used:
  5067 ;;		None
  5068 ;; Tracked objects:
  5069 ;;		On entry : 0/0
  5070 ;;		On exit  : 0/0
  5071 ;;		Unchanged: 0/0
  5072 ;; Data sizes:     COMRAM   BANK0   BANK1   BANK2   BANK3   BANK4   BANK5
  5073 ;;      Params:         0       0       0       0       0       0       0
  5074 ;;      Locals:         0       0       0       0       0       0       0
  5075 ;;      Temps:          0       0       0       0       0       0       0
  5076 ;;      Totals:         0       0       0       0       0       0       0
  5077 ;;Total ram usage:        0 bytes
  5078 ;; Hardware stack levels used: 1
  5079 ;; This function calls:
  5080 ;;		Nothing
  5081 ;; This function is called by:
  5082 ;;		_BL_FlashWrite
  5083 ;;		_NVM_Initialize
  5084 ;;		_BL_FlashRead
  5085 ;; This function uses a non-reentrant model
  5086 ;;
  5087                           
  5088                           	psect	text36
  5089   0022FE                     __ptext36:
  5090                           	callstack 0
  5091   0022FE                     _NVM_StatusClear:
  5092                           	callstack 28
  5093   0022FE                     
  5094                           ;mcc_generated_files/nvm/src/nvm.c: 66:     EECON1bits.WRERR = 0;
  5095   0022FE  96A6               	bcf	166,3,c	;volsfr
  5096   002300  0012               	return		;funcret
  5097   002302                     __end_of_NVM_StatusClear:
  5098                           	callstack 0
  5099                           
  5100 ;; *************** function _NVM_IsBusy *****************
  5101 ;; Defined at:
  5102 ;;		line 47 in file "mcc_generated_files/nvm/src/nvm.c"
  5103 ;; Parameters:    Size  Location     Type
  5104 ;;		None
  5105 ;; Auto vars:     Size  Location     Type
  5106 ;;		None
  5107 ;; Return value:  Size  Location     Type
  5108 ;;                  1    wreg      _Bool 
  5109 ;; Registers used:
  5110 ;;		wreg, status,2
  5111 ;; Tracked objects:
  5112 ;;		On entry : 0/0
  5113 ;;		On exit  : 0/0
  5114 ;;		Unchanged: 0/0
  5115 ;; Data sizes:     COMRAM   BANK0   BANK1   BANK2   BANK3   BANK4   BANK5
  5116 ;;      Params:         0       0       0       0       0       0       0
  5117 ;;      Locals:         1       0       0       0       0       0       0
  5118 ;;      Temps:          0       0       0       0       0       0       0
  5119 ;;      Totals:         1       0       0       0       0       0       0
  5120 ;;Total ram usage:        1 bytes
  5121 ;; Hardware stack levels used: 1
  5122 ;; This function calls:
  5123 ;;		Nothing
  5124 ;; This function is called by:
  5125 ;;		_BL_FlashWrite
  5126 ;;		_BL_FlashRead
  5127 ;; This function uses a non-reentrant model
  5128 ;;
  5129                           
  5130                           	psect	text37
  5131   002014                     __ptext37:
  5132                           	callstack 0
  5133   002014                     _NVM_IsBusy:
  5134                           	callstack 25
  5135   002014                     
  5136                           ;mcc_generated_files/nvm/src/nvm.c: 49:     return (EECON1bits.WR || EECON1bits.RD);
  5137   002014  0E01               	movlw	1
  5138   002016  6E01               	movwf	_NVM_IsBusy$1007^0,c
  5139   002018  B2A6               	btfsc	166,1,c	;volsfr
  5140   00201A  EF11  F010         	goto	u3541
  5141   00201E  EF13  F010         	goto	u3540
  5142   002022                     u3541:
  5143   002022  EF1C  F010         	goto	l483
  5144   002026                     u3540:
  5145   002026  B0A6               	btfsc	166,0,c	;volsfr
  5146   002028  EF18  F010         	goto	u3551
  5147   00202C  EF1A  F010         	goto	u3550
  5148   002030                     u3551:
  5149   002030  EF1C  F010         	goto	l483
  5150   002034                     u3550:
  5151   002034  0E00               	movlw	0
  5152   002036  6E01               	movwf	_NVM_IsBusy$1007^0,c
  5153   002038                     l483:
  5154   002038  5001               	movf	_NVM_IsBusy$1007^0,w,c
  5155   00203A  0012               	return		;funcret
  5156   00203C                     __end_of_NVM_IsBusy:
  5157                           	callstack 0
  5158                           
  5159 ;; *************** function _FLASH_RowWrite *****************
  5160 ;; Defined at:
  5161 ;;		line 102 in file "mcc_generated_files/nvm/src/nvm.c"
  5162 ;; Parameters:    Size  Location     Type
  5163 ;;  address         4    0[COMRAM] unsigned long 
  5164 ;;  dataBuffer      2    4[COMRAM] PTR unsigned char 
  5165 ;;		 -> writeBuffer(64), FTP_RESPONSE_BUFFER(19), FTP_RECEIVE_BUFFER(74), FTP_RETRY_BUFFER(19), 
  5166 ;; Auto vars:     Size  Location     Type
  5167 ;;  tablePointer    4    0        unsigned long 
  5168 ;;  flashDataCou    1    7[COMRAM] unsigned char 
  5169 ;;  globalInterr    1    6[COMRAM] unsigned char 
  5170 ;; Return value:  Size  Location     Type
  5171 ;;                  1    wreg      enum E6011
  5172 ;; Registers used:
  5173 ;;		wreg, fsr2l, fsr2h, status,2, status,0
  5174 ;; Tracked objects:
  5175 ;;		On entry : 0/0
  5176 ;;		On exit  : 0/0
  5177 ;;		Unchanged: 0/0
  5178 ;; Data sizes:     COMRAM   BANK0   BANK1   BANK2   BANK3   BANK4   BANK5
  5179 ;;      Params:         6       0       0       0       0       0       0
  5180 ;;      Locals:         2       0       0       0       0       0       0
  5181 ;;      Temps:          0       0       0       0       0       0       0
  5182 ;;      Totals:         8       0       0       0       0       0       0
  5183 ;;Total ram usage:        8 bytes
  5184 ;; Hardware stack levels used: 1
  5185 ;; This function calls:
  5186 ;;		Nothing
  5187 ;; This function is called by:
  5188 ;;		_BL_FlashWrite
  5189 ;; This function uses a non-reentrant model
  5190 ;;
  5191                           
  5192                           	psect	text38
  5193   0018A4                     __ptext38:
  5194                           	callstack 0
  5195   0018A4                     _FLASH_RowWrite:
  5196                           	callstack 25
  5197   0018A4                     
  5198                           ;mcc_generated_files/nvm/src/nvm.c: 102: nvm_status_t FLASH_RowWrite(flash_address_t add
      +                          ress, flash_data_t *dataBuffer);mcc_generated_files/nvm/src/nvm.c: 103: {;mcc_generated_
      +                          files/nvm/src/nvm.c: 104:     uint8_t flashDataCount = (64U);
  5199   0018A4  0E40               	movlw	64
  5200   0018A6  6E08               	movwf	FLASH_RowWrite@flashDataCount^0,c
  5201   0018A8  50F8               	movf	248,w,c	;volatile
  5202   0018AA  50F7               	movf	247,w,c	;volatile
  5203   0018AC  50F6               	movf	246,w,c	;volatile
  5204   0018AE                     
  5205                           ;mcc_generated_files/nvm/src/nvm.c: 110:     uint8_t globalInterruptBitValue = INTCONbit
      +                          s.GIE;
  5206   0018AE  0E00               	movlw	0
  5207   0018B0  BEF2               	btfsc	242,7,c	;volatile
  5208   0018B2  0E01               	movlw	1
  5209   0018B4  6E07               	movwf	FLASH_RowWrite@globalInterruptBitValue^0,c
  5210   0018B6                     
  5211                           ;mcc_generated_files/nvm/src/nvm.c: 113:     EECON1bits.CFGS = 0;
  5212   0018B6  9CA6               	bcf	166,6,c	;volsfr
  5213   0018B8                     
  5214                           ;mcc_generated_files/nvm/src/nvm.c: 114:     EECON1bits.EEPGD = 1;
  5215   0018B8  8EA6               	bsf	166,7,c	;volsfr
  5216   0018BA                     
  5217                           ;mcc_generated_files/nvm/src/nvm.c: 117:     EECON1bits.WREN = 1;
  5218   0018BA  84A6               	bsf	166,2,c	;volsfr
  5219   0018BC                     
  5220                           ;mcc_generated_files/nvm/src/nvm.c: 120:     TBLPTRU = (uint8_t) (address >> 16);
  5221   0018BC  C003  FFF8         	movff	FLASH_RowWrite@address+2,tblptru	;volatile
  5222   0018C0                     
  5223                           ;mcc_generated_files/nvm/src/nvm.c: 121:     TBLPTRH = (uint8_t) (address >> 8);
  5224   0018C0  C002  FFF7         	movff	FLASH_RowWrite@address+1,tblptrh	;volatile
  5225   0018C4                     
  5226                           ;mcc_generated_files/nvm/src/nvm.c: 122:     TBLPTRL = (uint8_t) address;
  5227   0018C4  C001  FFF6         	movff	FLASH_RowWrite@address,tblptrl	;volatile
  5228                           
  5229                           ;mcc_generated_files/nvm/src/nvm.c: 124:     while (flashDataCount-- > 0U)
  5230   0018C8  EF7A  F00C         	goto	l4803
  5231   0018CC                     l4795:
  5232                           
  5233                           ;mcc_generated_files/nvm/src/nvm.c: 125:     {;mcc_generated_files/nvm/src/nvm.c: 126:  
      +                                  TABLAT = (uint8_t)*dataBuffer;
  5234   0018CC  C005  FFD9         	movff	FLASH_RowWrite@dataBuffer,fsr2l
  5235   0018D0  C006  FFDA         	movff	FLASH_RowWrite@dataBuffer+1,fsr2h
  5236   0018D4  50DF               	movf	indf2,w,c
  5237   0018D6  6EF5               	movwf	245,c	;volatile
  5238   0018D8                     
  5239                           ;mcc_generated_files/nvm/src/nvm.c: 127:         dataBuffer++;
  5240   0018D8  4A05               	infsnz	FLASH_RowWrite@dataBuffer^0,f,c
  5241   0018DA  2A06               	incf	(FLASH_RowWrite@dataBuffer+1)^0,f,c
  5242   0018DC                     
  5243                           ;mcc_generated_files/nvm/src/nvm.c: 130:         if (flashDataCount == 0U)
  5244   0018DC  5008               	movf	FLASH_RowWrite@flashDataCount^0,w,c
  5245   0018DE  A4D8               	btfss	status,2,c
  5246   0018E0  EF74  F00C         	goto	u3571
  5247   0018E4  EF76  F00C         	goto	u3570
  5248   0018E8                     u3571:
  5249   0018E8  EF79  F00C         	goto	l506
  5250   0018EC                     u3570:
  5251   0018EC  000C               	tblwt		*	;# 
  5252                           
  5253                           ;mcc_generated_files/nvm/src/nvm.c: 134:         }
  5254   0018EE  EF7A  F00C         	goto	l4803
  5255   0018F2                     l506:
  5256   0018F2  000D               	tblwt		*+	;# 
  5257   0018F4                     l4803:
  5258                           
  5259                           ;mcc_generated_files/nvm/src/nvm.c: 124:     while (flashDataCount-- > 0U)
  5260   0018F4  0608               	decf	FLASH_RowWrite@flashDataCount^0,f,c
  5261   0018F6  2808               	incf	FLASH_RowWrite@flashDataCount^0,w,c
  5262   0018F8  A4D8               	btfss	status,2,c
  5263   0018FA  EF81  F00C         	goto	u3581
  5264   0018FE  EF83  F00C         	goto	u3580
  5265   001902                     u3581:
  5266   001902  EF66  F00C         	goto	l4795
  5267   001906                     u3580:
  5268   001906                     
  5269                           ;mcc_generated_files/nvm/src/nvm.c: 142:     INTCONbits.GIE = 0;
  5270   001906  9EF2               	bcf	242,7,c	;volatile
  5271                           
  5272                           ;mcc_generated_files/nvm/src/nvm.c: 145:     EECON2 = unlockKeyLow;
  5273   001908  C05E  FFA7         	movff	_unlockKeyLow,4007	;volsfr
  5274                           
  5275                           ;mcc_generated_files/nvm/src/nvm.c: 146:     EECON2 = unlockKeyHigh;
  5276   00190C  C05D  FFA7         	movff	_unlockKeyHigh,4007	;volsfr
  5277                           
  5278                           ;mcc_generated_files/nvm/src/nvm.c: 147:     EECON1bits.WR = 1;
  5279   001910  82A6               	bsf	166,1,c	;volsfr
  5280                           
  5281                           ;mcc_generated_files/nvm/src/nvm.c: 148:     __nop();
  5282   001912  0000               	nop	
  5283                           
  5284                           ;mcc_generated_files/nvm/src/nvm.c: 149:     __nop();
  5285   001914  0000               	nop	
  5286   001916                     l509:
  5287   001916  B2A6               	btfsc	166,1,c	;volsfr
  5288   001918  EF90  F00C         	goto	u3591
  5289   00191C  EF92  F00C         	goto	u3590
  5290   001920                     u3591:
  5291   001920  EF8B  F00C         	goto	l509
  5292   001924                     u3590:
  5293   001924                     
  5294                           ;mcc_generated_files/nvm/src/nvm.c: 152:     INTCONbits.GIE = globalInterruptBitValue;
  5295   001924  B007               	btfsc	FLASH_RowWrite@globalInterruptBitValue^0,0,c
  5296   001926  D002               	bra	u3605
  5297   001928  9EF2               	bcf	242,7,c	;volatile
  5298   00192A  D001               	bra	u3606
  5299   00192C                     u3605:
  5300   00192C  8EF2               	bsf	242,7,c	;volatile
  5301   00192E                     u3606:
  5302                           
  5303                           ;mcc_generated_files/nvm/src/nvm.c: 154:     EECON1bits.WREN = 0;
  5304   00192E  94A6               	bcf	166,2,c	;volsfr
  5305                           
  5306                           ;mcc_generated_files/nvm/src/nvm.c: 155:     if (EECON1bits.WRERR == 1)
  5307   001930  A6A6               	btfss	166,3,c	;volsfr
  5308   001932  EF9D  F00C         	goto	u3611
  5309   001936  EF9F  F00C         	goto	u3610
  5310   00193A                     u3611:
  5311   00193A  EFA2  F00C         	goto	l4811
  5312   00193E                     u3610:
  5313   00193E                     
  5314                           ;mcc_generated_files/nvm/src/nvm.c: 156:     {;mcc_generated_files/nvm/src/nvm.c: 157:  
      +                                 return NVM_ERROR;
  5315   00193E  0E01               	movlw	1
  5316   001940  EFA3  F00C         	goto	l513
  5317   001944                     l4811:
  5318                           
  5319                           ;mcc_generated_files/nvm/src/nvm.c: 160:     {;mcc_generated_files/nvm/src/nvm.c: 161:  
      +                                 return NVM_OK;
  5320   001944  0E00               	movlw	0
  5321   001946                     l513:
  5322   001946  0012               	return		;funcret
  5323   001948                     __end_of_FLASH_RowWrite:
  5324                           	callstack 0
  5325                           
  5326 ;; *************** function _FLASH_Read *****************
  5327 ;; Defined at:
  5328 ;;		line 82 in file "mcc_generated_files/nvm/src/nvm.c"
  5329 ;; Parameters:    Size  Location     Type
  5330 ;;  address         4    0[COMRAM] unsigned long 
  5331 ;; Auto vars:     Size  Location     Type
  5332 ;;  tablePointer    4   16[COMRAM] unsigned long 
  5333 ;; Return value:  Size  Location     Type
  5334 ;;                  1    wreg      unsigned char 
  5335 ;; Registers used:
  5336 ;;		wreg, status,2, status,0
  5337 ;; Tracked objects:
  5338 ;;		On entry : 0/0
  5339 ;;		On exit  : 0/0
  5340 ;;		Unchanged: 0/0
  5341 ;; Data sizes:     COMRAM   BANK0   BANK1   BANK2   BANK3   BANK4   BANK5
  5342 ;;      Params:         4       0       0       0       0       0       0
  5343 ;;      Locals:         4       0       0       0       0       0       0
  5344 ;;      Temps:         12       0       0       0       0       0       0
  5345 ;;      Totals:        20       0       0       0       0       0       0
  5346 ;;Total ram usage:       20 bytes
  5347 ;; Hardware stack levels used: 1
  5348 ;; This function calls:
  5349 ;;		Nothing
  5350 ;; This function is called by:
  5351 ;;		_BL_FlashWrite
  5352 ;;		_BL_FlashRead
  5353 ;;		_ChecksumCalculate
  5354 ;;		_ChecksumValidate
  5355 ;; This function uses a non-reentrant model
  5356 ;;
  5357                           
  5358                           	psect	text39
  5359   001B6C                     __ptext39:
  5360                           	callstack 0
  5361   001B6C                     _FLASH_Read:
  5362                           	callstack 25
  5363   001B6C                     
  5364                           ;mcc_generated_files/nvm/src/nvm.c: 82: flash_data_t FLASH_Read(flash_address_t address)
      +                          ;mcc_generated_files/nvm/src/nvm.c: 83: {;mcc_generated_files/nvm/src/nvm.c: 85:     uin
      +                          t32_t tablePointer = ((uint32_t) TBLPTRU << 16) | ((uint32_t) TBLPTRH << 8) | ((uint32_t
      +                          ) TBLPTRL);
  5365   001B6C  CFF7 F005          	movff	tblptrh,??_FLASH_Read	;volatile
  5366   001B70  6A06               	clrf	(??_FLASH_Read+1)^0,c
  5367   001B72  6A07               	clrf	(??_FLASH_Read+2)^0,c
  5368   001B74  6A08               	clrf	(??_FLASH_Read+3)^0,c
  5369   001B76  C007  F008         	movff	??_FLASH_Read+2,??_FLASH_Read+3
  5370   001B7A  C006  F007         	movff	??_FLASH_Read+1,??_FLASH_Read+2
  5371   001B7E  C005  F006         	movff	??_FLASH_Read,??_FLASH_Read+1
  5372   001B82  6A05               	clrf	??_FLASH_Read^0,c
  5373   001B84  CFF8 F009          	movff	tblptru,??_FLASH_Read+4	;volatile
  5374   001B88  6A0A               	clrf	(??_FLASH_Read+5)^0,c
  5375   001B8A  6A0B               	clrf	(??_FLASH_Read+6)^0,c
  5376   001B8C  6A0C               	clrf	(??_FLASH_Read+7)^0,c
  5377   001B8E  C00A  F00C         	movff	??_FLASH_Read+5,??_FLASH_Read+7
  5378   001B92  C009  F00B         	movff	??_FLASH_Read+4,??_FLASH_Read+6
  5379   001B96  6A0A               	clrf	(??_FLASH_Read+5)^0,c
  5380   001B98  6A09               	clrf	(??_FLASH_Read+4)^0,c
  5381   001B9A  5005               	movf	??_FLASH_Read^0,w,c
  5382   001B9C  1009               	iorwf	(??_FLASH_Read+4)^0,w,c
  5383   001B9E  6E0D               	movwf	(??_FLASH_Read+8)^0,c
  5384   001BA0  5006               	movf	(??_FLASH_Read+1)^0,w,c
  5385   001BA2  100A               	iorwf	(??_FLASH_Read+5)^0,w,c
  5386   001BA4  6E0E               	movwf	(??_FLASH_Read+9)^0,c
  5387   001BA6  5007               	movf	(??_FLASH_Read+2)^0,w,c
  5388   001BA8  100B               	iorwf	(??_FLASH_Read+6)^0,w,c
  5389   001BAA  6E0F               	movwf	(??_FLASH_Read+10)^0,c
  5390   001BAC  5008               	movf	(??_FLASH_Read+3)^0,w,c
  5391   001BAE  100C               	iorwf	(??_FLASH_Read+7)^0,w,c
  5392   001BB0  6E10               	movwf	(??_FLASH_Read+11)^0,c
  5393   001BB2  50F6               	movf	246,w,c	;volatile
  5394   001BB4  100D               	iorwf	(??_FLASH_Read+8)^0,w,c
  5395   001BB6  6E11               	movwf	FLASH_Read@tablePointer^0,c
  5396   001BB8  500E               	movf	(??_FLASH_Read+9)^0,w,c
  5397   001BBA  6E12               	movwf	(FLASH_Read@tablePointer+1)^0,c
  5398   001BBC  500F               	movf	(??_FLASH_Read+10)^0,w,c
  5399   001BBE  6E13               	movwf	(FLASH_Read@tablePointer+2)^0,c
  5400   001BC0  5010               	movf	(??_FLASH_Read+11)^0,w,c
  5401   001BC2  6E14               	movwf	(FLASH_Read@tablePointer+3)^0,c
  5402   001BC4                     
  5403                           ;mcc_generated_files/nvm/src/nvm.c: 88:     TBLPTRU = (uint8_t) (address >> 16);
  5404   001BC4  C003  FFF8         	movff	FLASH_Read@address+2,tblptru	;volatile
  5405   001BC8                     
  5406                           ;mcc_generated_files/nvm/src/nvm.c: 89:     TBLPTRH = (uint8_t) (address >> 8);
  5407   001BC8  C002  FFF7         	movff	FLASH_Read@address+1,tblptrh	;volatile
  5408   001BCC                     
  5409                           ;mcc_generated_files/nvm/src/nvm.c: 90:     TBLPTRL = (uint8_t) address;
  5410   001BCC  C001  FFF6         	movff	FLASH_Read@address,tblptrl	;volatile
  5411   001BD0  0008               	tblrd		*	;# 
  5412   001BD2                     
  5413                           ;mcc_generated_files/nvm/src/nvm.c: 95:     TBLPTRU = (uint8_t) (tablePointer >> 16);
  5414   001BD2  C013  FFF8         	movff	FLASH_Read@tablePointer+2,tblptru	;volatile
  5415   001BD6                     
  5416                           ;mcc_generated_files/nvm/src/nvm.c: 96:     TBLPTRH = (uint8_t) (tablePointer >> 8);
  5417   001BD6  C012  FFF7         	movff	FLASH_Read@tablePointer+1,tblptrh	;volatile
  5418   001BDA                     
  5419                           ;mcc_generated_files/nvm/src/nvm.c: 97:     TBLPTRL = (uint8_t) tablePointer;
  5420   001BDA  C011  FFF6         	movff	FLASH_Read@tablePointer,tblptrl	;volatile
  5421   001BDE                     
  5422                           ;mcc_generated_files/nvm/src/nvm.c: 99:     return (TABLAT);
  5423   001BDE  50F5               	movf	245,w,c	;volatile
  5424   001BE0  0012               	return		;funcret
  5425   001BE2                     __end_of_FLASH_Read:
  5426                           	callstack 0
  5427                           
  5428 ;; *************** function _FLASH_PageOffsetGet *****************
  5429 ;; Defined at:
  5430 ;;		line 228 in file "mcc_generated_files/nvm/src/nvm.c"
  5431 ;; Parameters:    Size  Location     Type
  5432 ;;  address         4    0[COMRAM] unsigned long 
  5433 ;; Auto vars:     Size  Location     Type
  5434 ;;		None
  5435 ;; Return value:  Size  Location     Type
  5436 ;;                  2    0[COMRAM] unsigned short 
  5437 ;; Registers used:
  5438 ;;		wreg, status,2, status,0
  5439 ;; Tracked objects:
  5440 ;;		On entry : 0/0
  5441 ;;		On exit  : 0/0
  5442 ;;		Unchanged: 0/0
  5443 ;; Data sizes:     COMRAM   BANK0   BANK1   BANK2   BANK3   BANK4   BANK5
  5444 ;;      Params:         4       0       0       0       0       0       0
  5445 ;;      Locals:         0       0       0       0       0       0       0
  5446 ;;      Temps:          0       0       0       0       0       0       0
  5447 ;;      Totals:         4       0       0       0       0       0       0
  5448 ;;Total ram usage:        4 bytes
  5449 ;; Hardware stack levels used: 1
  5450 ;; This function calls:
  5451 ;;		Nothing
  5452 ;; This function is called by:
  5453 ;;		_BL_FlashWrite
  5454 ;; This function uses a non-reentrant model
  5455 ;;
  5456                           
  5457                           	psect	text40
  5458   0022BE                     __ptext40:
  5459                           	callstack 0
  5460   0022BE                     _FLASH_PageOffsetGet:
  5461                           	callstack 25
  5462   0022BE                     
  5463                           ;mcc_generated_files/nvm/src/nvm.c: 228: uint16_t FLASH_PageOffsetGet(flash_address_t ad
      +                          dress);mcc_generated_files/nvm/src/nvm.c: 229: {;mcc_generated_files/nvm/src/nvm.c: 230:
      +                               return (uint16_t) (address & ((64U) - 1U));
  5464   0022BE  0E3F               	movlw	63
  5465   0022C0  1401               	andwf	FLASH_PageOffsetGet@address^0,w,c
  5466   0022C2  6E01               	movwf	?_FLASH_PageOffsetGet^0,c
  5467   0022C4  6A02               	clrf	(?_FLASH_PageOffsetGet+1)^0,c
  5468   0022C6  0012               	return		;funcret
  5469   0022C8                     __end_of_FLASH_PageOffsetGet:
  5470                           	callstack 0
  5471                           
  5472 ;; *************** function _FLASH_PageErase *****************
  5473 ;; Defined at:
  5474 ;;		line 165 in file "mcc_generated_files/nvm/src/nvm.c"
  5475 ;; Parameters:    Size  Location     Type
  5476 ;;  address         4    0[COMRAM] unsigned long 
  5477 ;; Auto vars:     Size  Location     Type
  5478 ;;  tablePointer    4   17[COMRAM] unsigned long 
  5479 ;;  globalInterr    1   16[COMRAM] unsigned char 
  5480 ;; Return value:  Size  Location     Type
  5481 ;;                  1    wreg      enum E6026
  5482 ;; Registers used:
  5483 ;;		wreg, status,2, status,0
  5484 ;; Tracked objects:
  5485 ;;		On entry : 0/0
  5486 ;;		On exit  : 0/0
  5487 ;;		Unchanged: 0/0
  5488 ;; Data sizes:     COMRAM   BANK0   BANK1   BANK2   BANK3   BANK4   BANK5
  5489 ;;      Params:         4       0       0       0       0       0       0
  5490 ;;      Locals:         5       0       0       0       0       0       0
  5491 ;;      Temps:         12       0       0       0       0       0       0
  5492 ;;      Totals:        21       0       0       0       0       0       0
  5493 ;;Total ram usage:       21 bytes
  5494 ;; Hardware stack levels used: 1
  5495 ;; This function calls:
  5496 ;;		Nothing
  5497 ;; This function is called by:
  5498 ;;		_DownloadAreaErase
  5499 ;;		_BL_FlashWrite
  5500 ;; This function uses a non-reentrant model
  5501 ;;
  5502                           
  5503                           	psect	text41
  5504   001734                     __ptext41:
  5505                           	callstack 0
  5506   001734                     _FLASH_PageErase:
  5507                           	callstack 24
  5508   001734                     
  5509                           ;mcc_generated_files/nvm/src/nvm.c: 165: nvm_status_t FLASH_PageErase(flash_address_t ad
      +                          dress);mcc_generated_files/nvm/src/nvm.c: 166: {;mcc_generated_files/nvm/src/nvm.c: 168:
      +                               uint32_t tablePointer = ((uint32_t) TBLPTRU << 16) | ((uint32_t) TBLPTRH << 8) | ((
      +                          uint32_t) TBLPTRL);
  5510   001734  CFF7 F005          	movff	tblptrh,??_FLASH_PageErase	;volatile
  5511   001738  6A06               	clrf	(??_FLASH_PageErase+1)^0,c
  5512   00173A  6A07               	clrf	(??_FLASH_PageErase+2)^0,c
  5513   00173C  6A08               	clrf	(??_FLASH_PageErase+3)^0,c
  5514   00173E  C007  F008         	movff	??_FLASH_PageErase+2,??_FLASH_PageErase+3
  5515   001742  C006  F007         	movff	??_FLASH_PageErase+1,??_FLASH_PageErase+2
  5516   001746  C005  F006         	movff	??_FLASH_PageErase,??_FLASH_PageErase+1
  5517   00174A  6A05               	clrf	??_FLASH_PageErase^0,c
  5518   00174C  CFF8 F009          	movff	tblptru,??_FLASH_PageErase+4	;volatile
  5519   001750  6A0A               	clrf	(??_FLASH_PageErase+5)^0,c
  5520   001752  6A0B               	clrf	(??_FLASH_PageErase+6)^0,c
  5521   001754  6A0C               	clrf	(??_FLASH_PageErase+7)^0,c
  5522   001756  C00A  F00C         	movff	??_FLASH_PageErase+5,??_FLASH_PageErase+7
  5523   00175A  C009  F00B         	movff	??_FLASH_PageErase+4,??_FLASH_PageErase+6
  5524   00175E  6A0A               	clrf	(??_FLASH_PageErase+5)^0,c
  5525   001760  6A09               	clrf	(??_FLASH_PageErase+4)^0,c
  5526   001762  5005               	movf	??_FLASH_PageErase^0,w,c
  5527   001764  1009               	iorwf	(??_FLASH_PageErase+4)^0,w,c
  5528   001766  6E0D               	movwf	(??_FLASH_PageErase+8)^0,c
  5529   001768  5006               	movf	(??_FLASH_PageErase+1)^0,w,c
  5530   00176A  100A               	iorwf	(??_FLASH_PageErase+5)^0,w,c
  5531   00176C  6E0E               	movwf	(??_FLASH_PageErase+9)^0,c
  5532   00176E  5007               	movf	(??_FLASH_PageErase+2)^0,w,c
  5533   001770  100B               	iorwf	(??_FLASH_PageErase+6)^0,w,c
  5534   001772  6E0F               	movwf	(??_FLASH_PageErase+10)^0,c
  5535   001774  5008               	movf	(??_FLASH_PageErase+3)^0,w,c
  5536   001776  100C               	iorwf	(??_FLASH_PageErase+7)^0,w,c
  5537   001778  6E10               	movwf	(??_FLASH_PageErase+11)^0,c
  5538   00177A  50F6               	movf	246,w,c	;volatile
  5539   00177C  100D               	iorwf	(??_FLASH_PageErase+8)^0,w,c
  5540   00177E  6E12               	movwf	FLASH_PageErase@tablePointer^0,c
  5541   001780  500E               	movf	(??_FLASH_PageErase+9)^0,w,c
  5542   001782  6E13               	movwf	(FLASH_PageErase@tablePointer+1)^0,c
  5543   001784  500F               	movf	(??_FLASH_PageErase+10)^0,w,c
  5544   001786  6E14               	movwf	(FLASH_PageErase@tablePointer+2)^0,c
  5545   001788  5010               	movf	(??_FLASH_PageErase+11)^0,w,c
  5546   00178A  6E15               	movwf	(FLASH_PageErase@tablePointer+3)^0,c
  5547   00178C                     
  5548                           ;mcc_generated_files/nvm/src/nvm.c: 171:     uint8_t globalInterruptBitValue = INTCONbit
      +                          s.GIE;
  5549   00178C  0E00               	movlw	0
  5550   00178E  BEF2               	btfsc	242,7,c	;volatile
  5551   001790  0E01               	movlw	1
  5552   001792  6E11               	movwf	FLASH_PageErase@globalInterruptBitValue^0,c
  5553   001794                     
  5554                           ;mcc_generated_files/nvm/src/nvm.c: 173:     TBLPTRU = (uint8_t) (address >> 16);
  5555   001794  C003  FFF8         	movff	FLASH_PageErase@address+2,tblptru	;volatile
  5556   001798                     
  5557                           ;mcc_generated_files/nvm/src/nvm.c: 174:     TBLPTRH = (uint8_t) (address >> 8);
  5558   001798  C002  FFF7         	movff	FLASH_PageErase@address+1,tblptrh	;volatile
  5559   00179C                     
  5560                           ;mcc_generated_files/nvm/src/nvm.c: 175:     TBLPTRL = (uint8_t) address;
  5561   00179C  C001  FFF6         	movff	FLASH_PageErase@address,tblptrl	;volatile
  5562   0017A0                     
  5563                           ;mcc_generated_files/nvm/src/nvm.c: 179:     EECON1bits.EEPGD = 1;
  5564   0017A0  8EA6               	bsf	166,7,c	;volsfr
  5565   0017A2                     
  5566                           ;mcc_generated_files/nvm/src/nvm.c: 182:     EECON1bits.CFGS = 0;
  5567   0017A2  9CA6               	bcf	166,6,c	;volsfr
  5568   0017A4                     
  5569                           ;mcc_generated_files/nvm/src/nvm.c: 185:     EECON1bits.WREN = 1;
  5570   0017A4  84A6               	bsf	166,2,c	;volsfr
  5571   0017A6                     
  5572                           ;mcc_generated_files/nvm/src/nvm.c: 188:     EECON1bits.FREE = 1;
  5573   0017A6  88A6               	bsf	166,4,c	;volsfr
  5574   0017A8                     
  5575                           ;mcc_generated_files/nvm/src/nvm.c: 191:     INTCONbits.GIE = 0;
  5576   0017A8  9EF2               	bcf	242,7,c	;volatile
  5577   0017AA                     
  5578                           ;mcc_generated_files/nvm/src/nvm.c: 194:     EECON2 = 0x55;
  5579   0017AA  0E55               	movlw	85
  5580   0017AC  6EA7               	movwf	167,c	;volsfr
  5581   0017AE                     
  5582                           ;mcc_generated_files/nvm/src/nvm.c: 195:     EECON2 = 0xAA;
  5583   0017AE  0EAA               	movlw	170
  5584   0017B0  6EA7               	movwf	167,c	;volsfr
  5585   0017B2                     
  5586                           ;mcc_generated_files/nvm/src/nvm.c: 198:     INTCONbits.GIE = globalInterruptBitValue;
  5587   0017B2  B011               	btfsc	FLASH_PageErase@globalInterruptBitValue^0,0,c
  5588   0017B4  D002               	bra	u3425
  5589   0017B6  9EF2               	bcf	242,7,c	;volatile
  5590   0017B8  D001               	bra	u3426
  5591   0017BA                     u3425:
  5592   0017BA  8EF2               	bsf	242,7,c	;volatile
  5593   0017BC                     u3426:
  5594   0017BC                     
  5595                           ;mcc_generated_files/nvm/src/nvm.c: 202:     EECON1bits.WR = 1;
  5596   0017BC  82A6               	bsf	166,1,c	;volsfr
  5597   0017BE                     l517:
  5598   0017BE  B2A6               	btfsc	166,1,c	;volsfr
  5599   0017C0  EFE4  F00B         	goto	u3431
  5600   0017C4  EFE6  F00B         	goto	u3430
  5601   0017C8                     u3431:
  5602   0017C8  EFDF  F00B         	goto	l517
  5603   0017CC                     u3430:
  5604   0017CC                     
  5605                           ;mcc_generated_files/nvm/src/nvm.c: 207:     TBLPTRU = (uint8_t) (tablePointer >> 16);
  5606   0017CC  C014  FFF8         	movff	FLASH_PageErase@tablePointer+2,tblptru	;volatile
  5607                           
  5608                           ;mcc_generated_files/nvm/src/nvm.c: 208:     TBLPTRH = (uint8_t) (tablePointer >> 8);
  5609   0017D0  C013  FFF7         	movff	FLASH_PageErase@tablePointer+1,tblptrh	;volatile
  5610                           
  5611                           ;mcc_generated_files/nvm/src/nvm.c: 209:     TBLPTRL = (uint8_t) tablePointer;
  5612   0017D4  C012  FFF6         	movff	FLASH_PageErase@tablePointer,tblptrl	;volatile
  5613                           
  5614                           ;mcc_generated_files/nvm/src/nvm.c: 211:     if (EECON1bits.WRERR == 1)
  5615   0017D8  A6A6               	btfss	166,3,c	;volsfr
  5616   0017DA  EFF1  F00B         	goto	u3441
  5617   0017DE  EFF3  F00B         	goto	u3440
  5618   0017E2                     u3441:
  5619   0017E2  EFF6  F00B         	goto	l4609
  5620   0017E6                     u3440:
  5621   0017E6                     
  5622                           ;mcc_generated_files/nvm/src/nvm.c: 212:     {;mcc_generated_files/nvm/src/nvm.c: 213:  
      +                                return NVM_ERROR;
  5623   0017E6  0E01               	movlw	1
  5624   0017E8  EFF7  F00B         	goto	l521
  5625   0017EC                     l4609:
  5626                           
  5627                           ;mcc_generated_files/nvm/src/nvm.c: 216:     {;mcc_generated_files/nvm/src/nvm.c: 217:  
      +                                 return NVM_OK;
  5628   0017EC  0E00               	movlw	0
  5629   0017EE                     l521:
  5630   0017EE  0012               	return		;funcret
  5631   0017F0                     __end_of_FLASH_PageErase:
  5632                           	callstack 0
  5633                           
  5634 ;; *************** function _FLASH_PageAddressGet *****************
  5635 ;; Defined at:
  5636 ;;		line 221 in file "mcc_generated_files/nvm/src/nvm.c"
  5637 ;; Parameters:    Size  Location     Type
  5638 ;;  address         4    0[COMRAM] unsigned long 
  5639 ;; Auto vars:     Size  Location     Type
  5640 ;;		None
  5641 ;; Return value:  Size  Location     Type
  5642 ;;                  4    0[COMRAM] unsigned long 
  5643 ;; Registers used:
  5644 ;;		wreg, status,2, status,0
  5645 ;; Tracked objects:
  5646 ;;		On entry : 0/0
  5647 ;;		On exit  : 0/0
  5648 ;;		Unchanged: 0/0
  5649 ;; Data sizes:     COMRAM   BANK0   BANK1   BANK2   BANK3   BANK4   BANK5
  5650 ;;      Params:         4       0       0       0       0       0       0
  5651 ;;      Locals:         0       0       0       0       0       0       0
  5652 ;;      Temps:          2       0       0       0       0       0       0
  5653 ;;      Totals:         6       0       0       0       0       0       0
  5654 ;;Total ram usage:        6 bytes
  5655 ;; Hardware stack levels used: 1
  5656 ;; This function calls:
  5657 ;;		Nothing
  5658 ;; This function is called by:
  5659 ;;		_BL_FlashWrite
  5660 ;; This function uses a non-reentrant model
  5661 ;;
  5662                           
  5663                           	psect	text42
  5664   0021B6                     __ptext42:
  5665                           	callstack 0
  5666   0021B6                     _FLASH_PageAddressGet:
  5667                           	callstack 25
  5668   0021B6                     
  5669                           ;mcc_generated_files/nvm/src/nvm.c: 221: flash_address_t FLASH_PageAddressGet(flash_addr
      +                          ess_t address);mcc_generated_files/nvm/src/nvm.c: 222: {;mcc_generated_files/nvm/src/nvm
      +                          .c: 225:     return (flash_address_t) (address & (((0x8000U) - 1U) ^ ((64U) - 1U)));
  5670   0021B6  0EC0               	movlw	192
  5671   0021B8  1401               	andwf	FLASH_PageAddressGet@address^0,w,c
  5672   0021BA  6E05               	movwf	??_FLASH_PageAddressGet^0,c
  5673   0021BC  0E7F               	movlw	127
  5674   0021BE  1402               	andwf	(FLASH_PageAddressGet@address+1)^0,w,c
  5675   0021C0  6E06               	movwf	(??_FLASH_PageAddressGet+1)^0,c
  5676   0021C2  C005  F001         	movff	??_FLASH_PageAddressGet,?_FLASH_PageAddressGet
  5677   0021C6  C006  F002         	movff	??_FLASH_PageAddressGet+1,?_FLASH_PageAddressGet+1
  5678   0021CA  6A03               	clrf	(?_FLASH_PageAddressGet+2)^0,c
  5679   0021CC  6A04               	clrf	(?_FLASH_PageAddressGet+3)^0,c
  5680   0021CE  0012               	return		;funcret
  5681   0021D0                     __end_of_FLASH_PageAddressGet:
  5682                           	callstack 0
  5683                           
  5684 ;; *************** function _AbortCodeGet *****************
  5685 ;; Defined at:
  5686 ;;		line 484 in file "mcc_generated_files/bootloader/library/core/ftp/bl_ftp.c"
  5687 ;; Parameters:    Size  Location     Type
  5688 ;;  targetStatus    1    wreg     enum E6172
  5689 ;; Auto vars:     Size  Location     Type
  5690 ;;  targetStatus    1    2[COMRAM] enum E6172
  5691 ;;  abortCode       1    3[COMRAM] enum E6814
  5692 ;; Return value:  Size  Location     Type
  5693 ;;                  1    wreg      enum E6814
  5694 ;; Registers used:
  5695 ;;		wreg, status,2, status,0
  5696 ;; Tracked objects:
  5697 ;;		On entry : 0/0
  5698 ;;		On exit  : 0/0
  5699 ;;		Unchanged: 0/0
  5700 ;; Data sizes:     COMRAM   BANK0   BANK1   BANK2   BANK3   BANK4   BANK5
  5701 ;;      Params:         0       0       0       0       0       0       0
  5702 ;;      Locals:         2       0       0       0       0       0       0
  5703 ;;      Temps:          2       0       0       0       0       0       0
  5704 ;;      Totals:         4       0       0       0       0       0       0
  5705 ;;Total ram usage:        4 bytes
  5706 ;; Hardware stack levels used: 1
  5707 ;; This function calls:
  5708 ;;		Nothing
  5709 ;; This function is called by:
  5710 ;;		_OperationalBlockExecute
  5711 ;; This function uses a non-reentrant model
  5712 ;;
  5713                           
  5714                           	psect	text43
  5715   001C44                     __ptext43:
  5716                           	callstack 0
  5717   001C44                     _AbortCodeGet:
  5718                           	callstack 27
  5719                           
  5720                           ;incstack = 0
  5721                           ;AbortCodeGet@targetStatus stored from wreg
  5722   001C44  6E03               	movwf	AbortCodeGet@targetStatus^0,c
  5723   001C46                     
  5724                           ;mcc_generated_files/bootloader/library/core/ftp/bl_ftp.c: 484: static ftp_abort_code_t 
      +                          AbortCodeGet(bl_result_t targetStatus);mcc_generated_files/bootloader/library/core/ftp/b
      +                          l_ftp.c: 485: {;mcc_generated_files/bootloader/library/core/ftp/bl_ftp.c: 486:     ftp_a
      +                          bort_code_t abortCode = FTP_GENERIC_ERROR;
  5725   001C46  0E00               	movlw	0
  5726   001C48  6E04               	movwf	AbortCodeGet@abortCode^0,c
  5727                           
  5728                           ;mcc_generated_files/bootloader/library/core/ftp/bl_ftp.c: 487:     switch (targetStatus
      +                          )
  5729   001C4A  EF33  F00E         	goto	l5209
  5730   001C4E                     l5199:
  5731                           
  5732                           ;mcc_generated_files/bootloader/library/core/ftp/bl_ftp.c: 490:         abortCode = FTP_
      +                          INVALID_FILE_ERROR;
  5733   001C4E  0E01               	movlw	1
  5734   001C50  6E04               	movwf	AbortCodeGet@abortCode^0,c
  5735                           
  5736                           ;mcc_generated_files/bootloader/library/core/ftp/bl_ftp.c: 491:         break;
  5737   001C52  EF50  F00E         	goto	l5211
  5738   001C56                     l5201:
  5739                           
  5740                           ;mcc_generated_files/bootloader/library/core/ftp/bl_ftp.c: 493:         abortCode = FTP_
      +                          ADDRESS_ERROR;
  5741   001C56  0E03               	movlw	3
  5742   001C58  6E04               	movwf	AbortCodeGet@abortCode^0,c
  5743                           
  5744                           ;mcc_generated_files/bootloader/library/core/ftp/bl_ftp.c: 494:         break;
  5745   001C5A  EF50  F00E         	goto	l5211
  5746   001C5E                     l5203:
  5747                           
  5748                           ;mcc_generated_files/bootloader/library/core/ftp/bl_ftp.c: 496:         abortCode = FTP_
      +                          WRITE_ERROR;
  5749   001C5E  0E05               	movlw	5
  5750   001C60  6E04               	movwf	AbortCodeGet@abortCode^0,c
  5751                           
  5752                           ;mcc_generated_files/bootloader/library/core/ftp/bl_ftp.c: 497:         break;
  5753   001C62  EF50  F00E         	goto	l5211
  5754   001C66                     l5209:
  5755   001C66  5003               	movf	AbortCodeGet@targetStatus^0,w,c
  5756   001C68  6E01               	movwf	??_AbortCodeGet^0,c
  5757   001C6A  6A02               	clrf	(??_AbortCodeGet+1)^0,c
  5758                           
  5759                           ; Switch on 2 bytes has been partitioned into a top level switch of size 1, and 1 sub-sw
      +                          itches
  5760                           ; Switch size 1, requested type "simple"
  5761                           ; Number of cases is 1, Range of values is 0 to 0
  5762                           ; switch strategies available:
  5763                           ; Name         Instructions Cycles
  5764                           ; simple_byte            4     3 (average)
  5765                           ;	Chosen strategy is simple_byte
  5766   001C6C  5002               	movf	(??_AbortCodeGet+1)^0,w,c
  5767   001C6E  0A00               	xorlw	0	; case 0
  5768   001C70  B4D8               	btfsc	status,2,c
  5769   001C72  EF3D  F00E         	goto	l5691
  5770   001C76  EF50  F00E         	goto	l5211
  5771   001C7A                     l5691:
  5772                           
  5773                           ; Switch size 1, requested type "simple"
  5774                           ; Number of cases is 4, Range of values is 36 to 219
  5775                           ; switch strategies available:
  5776                           ; Name         Instructions Cycles
  5777                           ; simple_byte           13     7 (average)
  5778                           ;	Chosen strategy is simple_byte
  5779   001C7A  5001               	movf	??_AbortCodeGet^0,w,c
  5780   001C7C  0A24               	xorlw	36	; case 36
  5781   001C7E  B4D8               	btfsc	status,2,c
  5782   001C80  EF2B  F00E         	goto	l5201
  5783   001C84  0A66               	xorlw	102	; case 66
  5784   001C86  B4D8               	btfsc	status,2,c
  5785   001C88  EF27  F00E         	goto	l5199
  5786   001C8C  0A3C               	xorlw	60	; case 126
  5787   001C8E  B4D8               	btfsc	status,2,c
  5788   001C90  EF2F  F00E         	goto	l5203
  5789   001C94  0AA5               	xorlw	165	; case 219
  5790   001C96  B4D8               	btfsc	status,2,c
  5791   001C98  EF27  F00E         	goto	l5199
  5792   001C9C  EF50  F00E         	goto	l5211
  5793   001CA0                     l5211:
  5794                           
  5795                           ;mcc_generated_files/bootloader/library/core/ftp/bl_ftp.c: 504:     return abortCode;
  5796   001CA0  5004               	movf	AbortCodeGet@abortCode^0,w,c
  5797   001CA2  0012               	return		;funcret
  5798   001CA4                     __end_of_AbortCodeGet:
  5799                           	callstack 0
  5800                           
  5801 ;; *************** function _COM_FrameTransfer *****************
  5802 ;; Defined at:
  5803 ;;		line 162 in file "mcc_generated_files/bootloader/library/com_adapter/com_adapter.c"
  5804 ;; Parameters:    Size  Location     Type
  5805 ;;  receiveBuffe    2    8[COMRAM] PTR unsigned char 
  5806 ;;		 -> FTP_RESPONSE_BUFFER(19), FTP_RECEIVE_BUFFER(74), FTP_RETRY_BUFFER(19), 
  5807 ;;  receiveIndex    1   10[COMRAM] PTR unsigned short 
  5808 ;;		 -> ftpCommandReceiver(6), 
  5809 ;; Auto vars:     Size  Location     Type
  5810 ;;  workPtr         2   15[COMRAM] PTR unsigned char 
  5811 ;;		 -> FTP_RESPONSE_BUFFER(19), FTP_RECEIVE_BUFFER(74), FTP_RETRY_BUFFER(19), 
  5812 ;;  lowByte         1   18[COMRAM] unsigned char 
  5813 ;;  startOfWord     2   20[COMRAM] PTR unsigned char 
  5814 ;;		 -> FTP_RESPONSE_BUFFER(19), FTP_RECEIVE_BUFFER(74), FTP_RETRY_BUFFER(19), 
  5815 ;;  frameCheckSe    1   19[COMRAM] unsigned char 
  5816 ;;  fcs             1   17[COMRAM] unsigned char 
  5817 ;;  nextByte        1   23[COMRAM] unsigned char 
  5818 ;;  processResul    1   22[COMRAM] enum E6610
  5819 ;; Return value:  Size  Location     Type
  5820 ;;                  1    wreg      enum E6610
  5821 ;; Registers used:
  5822 ;;		wreg, fsr2l, fsr2h, status,2, status,0, pcl, pclath, pclatu, tosl, tblptrl, tblptrh, tblptru, cstack
  5823 ;; Tracked objects:
  5824 ;;		On entry : 0/0
  5825 ;;		On exit  : 0/0
  5826 ;;		Unchanged: 0/0
  5827 ;; Data sizes:     COMRAM   BANK0   BANK1   BANK2   BANK3   BANK4   BANK5
  5828 ;;      Params:         3       0       0       0       0       0       0
  5829 ;;      Locals:         9       0       0       0       0       0       0
  5830 ;;      Temps:          4       0       0       0       0       0       0
  5831 ;;      Totals:        16       0       0       0       0       0       0
  5832 ;;Total ram usage:       16 bytes
  5833 ;; Hardware stack levels used: 1
  5834 ;; Hardware stack levels required when called: 3
  5835 ;; This function calls:
  5836 ;;		_DataReceive
  5837 ;;		_EUSART1_IsRxReady
  5838 ;;		_EUSART2_IsRxReady
  5839 ;;		_FrameCheckCalculate
  5840 ;; This function is called by:
  5841 ;;		_FTP_Task
  5842 ;; This function uses a non-reentrant model
  5843 ;;
  5844                           
  5845                           	psect	text44
  5846   000BB8                     __ptext44:
  5847                           	callstack 0
  5848   000BB8                     _COM_FrameTransfer:
  5849                           	callstack 25
  5850   000BB8                     
  5851                           ;mcc_generated_files/bootloader/library/com_adapter/com_adapter.c: 162: com_adapter_resu
      +                          lt_t COM_FrameTransfer(uint8_t *receiveBufferPtr, uint16_t *receiveIndexPtr);mcc_generat
      +                          ed_files/bootloader/library/com_adapter/com_adapter.c: 163: {;mcc_generated_files/bootlo
      +                          ader/library/com_adapter/com_adapter.c: 164:     uint8_t nextByte = 0U;
  5852   000BB8  0E00               	movlw	0
  5853   000BBA  6E18               	movwf	COM_FrameTransfer@nextByte^0,c
  5854                           
  5855                           ;mcc_generated_files/bootloader/library/com_adapter/com_adapter.c: 165:     com_adapter_
      +                          result_t processResult = COM_FAIL;
  5856   000BBC  0EC3               	movlw	195
  5857   000BBE  6E17               	movwf	COM_FrameTransfer@processResult^0,c
  5858   000BC0                     
  5859                           ;mcc_generated_files/bootloader/library/com_adapter/com_adapter.c: 167:     if((receiveB
      +                          ufferPtr == ((void*)0)) || (receiveIndexPtr == ((void*)0)))
  5860   000BC0  5009               	movf	COM_FrameTransfer@receiveBufferPtr^0,w,c
  5861   000BC2  100A               	iorwf	(COM_FrameTransfer@receiveBufferPtr+1)^0,w,c
  5862   000BC4  B4D8               	btfsc	status,2,c
  5863   000BC6  EFE7  F005         	goto	u4261
  5864   000BCA  EFE9  F005         	goto	u4260
  5865   000BCE                     u4261:
  5866   000BCE  EFF1  F005         	goto	l5225
  5867   000BD2                     u4260:
  5868   000BD2  500B               	movf	COM_FrameTransfer@receiveIndexPtr^0,w,c
  5869   000BD4  A4D8               	btfss	status,2,c
  5870   000BD6  EFEF  F005         	goto	u4271
  5871   000BDA  EFF1  F005         	goto	u4270
  5872   000BDE                     u4271:
  5873   000BDE  EFF5  F005         	goto	l5227
  5874   000BE2                     u4270:
  5875   000BE2                     l5225:
  5876                           
  5877                           ;mcc_generated_files/bootloader/library/com_adapter/com_adapter.c: 168:     {;mcc_genera
      +                          ted_files/bootloader/library/com_adapter/com_adapter.c: 169:         processResult = COM
      +                          _INVALID_ARG;
  5878   000BE2  0E96               	movlw	150
  5879   000BE4  6E17               	movwf	COM_FrameTransfer@processResult^0,c
  5880                           
  5881                           ;mcc_generated_files/bootloader/library/com_adapter/com_adapter.c: 170:     }
  5882   000BE6  EFDC  F006         	goto	l88
  5883   000BEA                     l5227:
  5884                           
  5885                           ;mcc_generated_files/bootloader/library/com_adapter/com_adapter.c: 172:     {;mcc_genera
      +                          ted_files/bootloader/library/com_adapter/com_adapter.c: 173:         if(((UART1)).IsRxRe
      +                          ady())
  5886   000BEA  0E39               	movlw	low (_UART1+8)
  5887   000BEC  6EF6               	movwf	tblptrl,c
  5888   000BEE                     	if	1	;There is more than 1 active tblptr byte
  5889   000BEE  0E06               	movlw	high __smallconst
  5890   000BF0  6EF7               	movwf	tblptrh,c
  5891   000BF2                     	endif
  5892   000BF2                     	if	0	;tblptru may be non-zero
  5893   000BF2                     	endif
  5894   000BF2                     	if	0	;tblptru may be non-zero
  5895   000BF2                     	endif
  5896   000BF2  D802               	call	u4288
  5897   000BF4  EF08  F006         	goto	u4289
  5898   000BF8                     u4288:
  5899   000BF8  0005               	push	
  5900   000BFA  6EFA               	movwf	pclath,c
  5901   000BFC  0009               	tblrd		*+
  5902   000BFE  50F5               	movf	tablat,w,c
  5903   000C00  6EFD               	movwf	tosl,c
  5904   000C02  0009               	tblrd		*+
  5905   000C04  50F5               	movf	tablat,w,c
  5906   000C06  6EFE               	movwf	tosh,c
  5907   000C08  50F8               	movf	tblptru,w,c
  5908   000C0A  6EFF               	movwf	tosu,c
  5909   000C0C  50FA               	movf	pclath,w,c
  5910   000C0E  0012               	return		;indir
  5911   000C10                     u4289:
  5912   000C10  0900               	iorlw	0
  5913   000C12  B4D8               	btfsc	status,2,c
  5914   000C14  EF0E  F006         	goto	u4291
  5915   000C18  EF10  F006         	goto	u4290
  5916   000C1C                     u4291:
  5917   000C1C  EF19  F006         	goto	l5231
  5918   000C20                     u4290:
  5919   000C20                     
  5920                           ;mcc_generated_files/bootloader/library/com_adapter/com_adapter.c: 174:         {;mcc_ge
      +                          nerated_files/bootloader/library/com_adapter/com_adapter.c: 175:             processResu
      +                          lt = DataReceive(&nextByte, 1U);
  5921   000C20  0E18               	movlw	low COM_FrameTransfer@nextByte
  5922   000C22  6E03               	movwf	DataReceive@data^0,c
  5923   000C24  0E00               	movlw	0
  5924   000C26  6E05               	movwf	(DataReceive@length+1)^0,c
  5925   000C28  0E01               	movlw	1
  5926   000C2A  6E04               	movwf	DataReceive@length^0,c
  5927   000C2C  ECF0  F008         	call	_DataReceive	;wreg free
  5928   000C30  6E17               	movwf	COM_FrameTransfer@processResult^0,c
  5929   000C32                     l5231:
  5930                           
  5931                           ;mcc_generated_files/bootloader/library/com_adapter/com_adapter.c: 178:         if(proce
      +                          ssResult == COM_PASS)
  5932   000C32  0EE7               	movlw	231
  5933   000C34  1817               	xorwf	COM_FrameTransfer@processResult^0,w,c
  5934   000C36  A4D8               	btfss	status,2,c
  5935   000C38  EF20  F006         	goto	u4301
  5936   000C3C  EF22  F006         	goto	u4300
  5937   000C40                     u4301:
  5938   000C40  EFDA  F006         	goto	l5285
  5939   000C44                     u4300:
  5940   000C44                     
  5941                           ;mcc_generated_files/bootloader/library/com_adapter/com_adapter.c: 179:         {;mcc_ge
      +                          nerated_files/bootloader/library/com_adapter/com_adapter.c: 180:             static _Boo
      +                          l isReceiveWindowOpen;;mcc_generated_files/bootloader/library/com_adapter/com_adapter.c:
      +                           181:             static _Bool isEscapedByte;;mcc_generated_files/bootloader/library/com
      +                          _adapter/com_adapter.c: 183:             if (nextByte == ftpSpecialCharacters.StartOfPac
      +                          ketCharacter)
  5942   000C44  5018               	movf	COM_FrameTransfer@nextByte^0,w,c
  5943   000C46  0100               	movlb	0	; () banked
  5944   000C48  19E0               	xorwf	(_ftpSpecialCharacters+1)& (0+255),w,b
  5945   000C4A  A4D8               	btfss	status,2,c
  5946   000C4C  EF2A  F006         	goto	u4311
  5947   000C50  EF2C  F006         	goto	u4310
  5948   000C54                     u4311:
  5949   000C54  EF39  F006         	goto	l5241
  5950   000C58                     u4310:
  5951   000C58                     
  5952                           ; BSR set to: 0
  5953                           ;mcc_generated_files/bootloader/library/com_adapter/com_adapter.c: 184:             {;mc
      +                          c_generated_files/bootloader/library/com_adapter/com_adapter.c: 186:                 isR
      +                          eceiveWindowOpen = 1;
  5954   000C58  0E01               	movlw	1
  5955   000C5A  6F8A               	movwf	COM_FrameTransfer@isReceiveWindowOpen& (0+255),b
  5956                           
  5957                           ;mcc_generated_files/bootloader/library/com_adapter/com_adapter.c: 187:                 
      +                          isEscapedByte = 0;
  5958   000C5C  0E00               	movlw	0
  5959   000C5E  6F89               	movwf	COM_FrameTransfer@isEscapedByte& (0+255),b
  5960   000C60                     
  5961                           ; BSR set to: 0
  5962                           ;mcc_generated_files/bootloader/library/com_adapter/com_adapter.c: 189:                 
      +                          *receiveIndexPtr = 0U;
  5963   000C60  500B               	movf	COM_FrameTransfer@receiveIndexPtr^0,w,c
  5964   000C62  6ED9               	movwf	fsr2l,c
  5965   000C64  6ADA               	clrf	fsr2h,c
  5966   000C66  6ADE               	clrf	postinc2,c
  5967   000C68  6ADD               	clrf	postdec2,c
  5968   000C6A                     l5239:
  5969                           
  5970                           ; BSR set to: 0
  5971                           ;mcc_generated_files/bootloader/library/com_adapter/com_adapter.c: 191:                 
      +                          processResult = COM_BUSY;
  5972   000C6A  0E18               	movlw	24
  5973   000C6C  6E17               	movwf	COM_FrameTransfer@processResult^0,c
  5974                           
  5975                           ;mcc_generated_files/bootloader/library/com_adapter/com_adapter.c: 192:             }
  5976   000C6E  EFDC  F006         	goto	l88
  5977   000C72                     l5241:
  5978                           
  5979                           ; BSR set to: 0
  5980   000C72  518A               	movf	COM_FrameTransfer@isReceiveWindowOpen& (0+255),w,b
  5981   000C74  B4D8               	btfsc	status,2,c
  5982   000C76  EF3F  F006         	goto	u4321
  5983   000C7A  EF41  F006         	goto	u4320
  5984   000C7E                     u4321:
  5985   000C7E  EFDA  F006         	goto	l5285
  5986   000C82                     u4320:
  5987   000C82                     
  5988                           ; BSR set to: 0
  5989                           ;mcc_generated_files/bootloader/library/com_adapter/com_adapter.c: 194:             {;mc
      +                          c_generated_files/bootloader/library/com_adapter/com_adapter.c: 195:                 if 
      +                          (nextByte == ftpSpecialCharacters.EndOfPacketCharacter)
  5990   000C82  5018               	movf	COM_FrameTransfer@nextByte^0,w,c
  5991   000C84  19E1               	xorwf	(_ftpSpecialCharacters+2)& (0+255),w,b
  5992   000C86  A4D8               	btfss	status,2,c
  5993   000C88  EF48  F006         	goto	u4331
  5994   000C8C  EF4A  F006         	goto	u4330
  5995   000C90                     u4331:
  5996   000C90  EF95  F006         	goto	l5267
  5997   000C94                     u4330:
  5998   000C94                     
  5999                           ; BSR set to: 0
  6000                           ;mcc_generated_files/bootloader/library/com_adapter/com_adapter.c: 196:                 
      +                          {;mcc_generated_files/bootloader/library/com_adapter/com_adapter.c: 198:                
      +                               isReceiveWindowOpen = 0;
  6001   000C94  0E00               	movlw	0
  6002   000C96  6F8A               	movwf	COM_FrameTransfer@isReceiveWindowOpen& (0+255),b
  6003   000C98                     
  6004                           ; BSR set to: 0
  6005                           ;mcc_generated_files/bootloader/library/com_adapter/com_adapter.c: 205:                 
      +                              uint8_t fcs = FrameCheckCalculate(receiveBufferPtr, *receiveIndexPtr - (1U));
  6006   000C98  C009  F001         	movff	COM_FrameTransfer@receiveBufferPtr,FrameCheckCalculate@ftpData
  6007   000C9C  C00A  F002         	movff	COM_FrameTransfer@receiveBufferPtr+1,FrameCheckCalculate@ftpData+1
  6008   000CA0  500B               	movf	COM_FrameTransfer@receiveIndexPtr^0,w,c
  6009   000CA2  6ED9               	movwf	fsr2l,c
  6010   000CA4  6ADA               	clrf	fsr2h,c
  6011   000CA6  50DF               	movf	indf2,w,c
  6012   000CA8  6E0C               	movwf	??_COM_FrameTransfer^0,c
  6013   000CAA  040C               	decf	??_COM_FrameTransfer^0,w,c
  6014   000CAC  6E03               	movwf	FrameCheckCalculate@bufferLength^0,c
  6015   000CAE  EC95  F00F         	call	_FrameCheckCalculate	;wreg free
  6016   000CB2  6E12               	movwf	COM_FrameTransfer@fcs^0,c
  6017   000CB4                     
  6018                           ;mcc_generated_files/bootloader/library/com_adapter/com_adapter.c: 209:                 
      +                              uint8_t *startOfWord = &receiveBufferPtr[*receiveIndexPtr - (1U)];
  6019   000CB4  500B               	movf	COM_FrameTransfer@receiveIndexPtr^0,w,c
  6020   000CB6  6ED9               	movwf	fsr2l,c
  6021   000CB8  6ADA               	clrf	fsr2h,c
  6022   000CBA  CFDE F00C          	movff	postinc2,??_COM_FrameTransfer
  6023   000CBE  CFDD F00D          	movff	postdec2,??_COM_FrameTransfer+1
  6024   000CC2  500C               	movf	??_COM_FrameTransfer^0,w,c
  6025   000CC4  2409               	addwf	COM_FrameTransfer@receiveBufferPtr^0,w,c
  6026   000CC6  6E0E               	movwf	(??_COM_FrameTransfer+2)^0,c
  6027   000CC8  500D               	movf	(??_COM_FrameTransfer+1)^0,w,c
  6028   000CCA  200A               	addwfc	(COM_FrameTransfer@receiveBufferPtr+1)^0,w,c
  6029   000CCC  6E0F               	movwf	(??_COM_FrameTransfer+3)^0,c
  6030   000CCE  0EFF               	movlw	255
  6031   000CD0  240E               	addwf	(??_COM_FrameTransfer+2)^0,w,c
  6032   000CD2  6E15               	movwf	COM_FrameTransfer@startOfWord^0,c
  6033   000CD4  0EFF               	movlw	255
  6034   000CD6  200F               	addwfc	(??_COM_FrameTransfer+3)^0,w,c
  6035   000CD8  6E16               	movwf	(COM_FrameTransfer@startOfWord+1)^0,c
  6036   000CDA                     
  6037                           ;mcc_generated_files/bootloader/library/com_adapter/com_adapter.c: 210:                 
      +                              uint8_t frameCheckSequence = 0x00;
  6038   000CDA  0E00               	movlw	0
  6039   000CDC  6E14               	movwf	COM_FrameTransfer@frameCheckSequence^0,c
  6040   000CDE                     
  6041                           ;mcc_generated_files/bootloader/library/com_adapter/com_adapter.c: 211:                 
      +                              if (startOfWord != ((void*)0))
  6042   000CDE  5015               	movf	COM_FrameTransfer@startOfWord^0,w,c
  6043   000CE0  1016               	iorwf	(COM_FrameTransfer@startOfWord+1)^0,w,c
  6044   000CE2  B4D8               	btfsc	status,2,c
  6045   000CE4  EF76  F006         	goto	u4341
  6046   000CE8  EF78  F006         	goto	u4340
  6047   000CEC                     u4341:
  6048   000CEC  EF84  F006         	goto	l5261
  6049   000CF0                     u4340:
  6050   000CF0                     
  6051                           ;mcc_generated_files/bootloader/library/com_adapter/com_adapter.c: 212:                 
      +                              {;mcc_generated_files/bootloader/library/com_adapter/com_adapter.c: 213:            
      +                                       uint8_t * workPtr = startOfWord;
  6052   000CF0  C015  F010         	movff	COM_FrameTransfer@startOfWord,COM_FrameTransfer@workPtr
  6053   000CF4  C016  F011         	movff	COM_FrameTransfer@startOfWord+1,COM_FrameTransfer@workPtr+1
  6054   000CF8                     
  6055                           ;mcc_generated_files/bootloader/library/com_adapter/com_adapter.c: 214:                 
      +                                  uint8_t lowByte = *workPtr;
  6056   000CF8  C010  FFD9         	movff	COM_FrameTransfer@workPtr,fsr2l
  6057   000CFC  C011  FFDA         	movff	COM_FrameTransfer@workPtr+1,fsr2h
  6058   000D00  50DF               	movf	indf2,w,c
  6059   000D02  6E13               	movwf	COM_FrameTransfer@lowByte^0,c
  6060   000D04                     
  6061                           ;mcc_generated_files/bootloader/library/com_adapter/com_adapter.c: 218:                 
      +                                  frameCheckSequence = lowByte;
  6062   000D04  C013  F014         	movff	COM_FrameTransfer@lowByte,COM_FrameTransfer@frameCheckSequence
  6063   000D08                     l5261:
  6064                           
  6065                           ;mcc_generated_files/bootloader/library/com_adapter/com_adapter.c: 222:                 
      +                              if(fcs == frameCheckSequence)
  6066   000D08  5014               	movf	COM_FrameTransfer@frameCheckSequence^0,w,c
  6067   000D0A  1812               	xorwf	COM_FrameTransfer@fcs^0,w,c
  6068   000D0C  A4D8               	btfss	status,2,c
  6069   000D0E  EF8B  F006         	goto	u4351
  6070   000D12  EF8D  F006         	goto	u4350
  6071   000D16                     u4351:
  6072   000D16  EF91  F006         	goto	l5265
  6073   000D1A                     u4350:
  6074   000D1A                     
  6075                           ;mcc_generated_files/bootloader/library/com_adapter/com_adapter.c: 223:                 
      +                              {;mcc_generated_files/bootloader/library/com_adapter/com_adapter.c: 226:            
      +                                       processResult = COM_PASS;
  6076   000D1A  0EE7               	movlw	231
  6077   000D1C  6E17               	movwf	COM_FrameTransfer@processResult^0,c
  6078                           
  6079                           ;mcc_generated_files/bootloader/library/com_adapter/com_adapter.c: 227:                 
      +                              }
  6080   000D1E  EFDC  F006         	goto	l88
  6081   000D22                     l5265:
  6082                           
  6083                           ;mcc_generated_files/bootloader/library/com_adapter/com_adapter.c: 229:                 
      +                              {;mcc_generated_files/bootloader/library/com_adapter/com_adapter.c: 232:            
      +                                       processResult = COM_TRANSPORT_FAILURE;
  6084   000D22  0E3C               	movlw	60
  6085   000D24  6E17               	movwf	COM_FrameTransfer@processResult^0,c
  6086   000D26  EFDC  F006         	goto	l88
  6087   000D2A                     l5267:
  6088                           
  6089                           ; BSR set to: 0
  6090   000D2A  5018               	movf	COM_FrameTransfer@nextByte^0,w,c
  6091   000D2C  19DF               	xorwf	_ftpSpecialCharacters& (0+255),w,b
  6092   000D2E  A4D8               	btfss	status,2,c
  6093   000D30  EF9C  F006         	goto	u4361
  6094   000D34  EF9E  F006         	goto	u4360
  6095   000D38                     u4361:
  6096   000D38  EFA4  F006         	goto	l5271
  6097   000D3C                     u4360:
  6098   000D3C                     
  6099                           ; BSR set to: 0
  6100                           ;mcc_generated_files/bootloader/library/com_adapter/com_adapter.c: 236:                 
      +                          {;mcc_generated_files/bootloader/library/com_adapter/com_adapter.c: 237:                
      +                               isEscapedByte = 1;
  6101   000D3C  0E01               	movlw	1
  6102   000D3E  6F89               	movwf	COM_FrameTransfer@isEscapedByte& (0+255),b
  6103                           
  6104                           ;mcc_generated_files/bootloader/library/com_adapter/com_adapter.c: 238:                 
      +                              processResult = COM_BUSY;
  6105   000D40  0E18               	movlw	24
  6106   000D42  6E17               	movwf	COM_FrameTransfer@processResult^0,c
  6107                           
  6108                           ;mcc_generated_files/bootloader/library/com_adapter/com_adapter.c: 239:                 
      +                          }
  6109   000D44  EFDC  F006         	goto	l88
  6110   000D48                     l5271:
  6111                           
  6112                           ; BSR set to: 0
  6113                           ;mcc_generated_files/bootloader/library/com_adapter/com_adapter.c: 241:                 
      +                          {;mcc_generated_files/bootloader/library/com_adapter/com_adapter.c: 243:                
      +                               if (isEscapedByte)
  6114   000D48  5189               	movf	COM_FrameTransfer@isEscapedByte& (0+255),w,b
  6115   000D4A  B4D8               	btfsc	status,2,c
  6116   000D4C  EFAA  F006         	goto	u4371
  6117   000D50  EFAC  F006         	goto	u4370
  6118   000D54                     u4371:
  6119   000D54  EFAF  F006         	goto	l5277
  6120   000D58                     u4370:
  6121   000D58                     
  6122                           ; BSR set to: 0
  6123                           ;mcc_generated_files/bootloader/library/com_adapter/com_adapter.c: 244:                 
      +                              {;mcc_generated_files/bootloader/library/com_adapter/com_adapter.c: 245:            
      +                                       nextByte = ~nextByte;
  6124   000D58  1E18               	comf	COM_FrameTransfer@nextByte^0,f,c
  6125   000D5A                     
  6126                           ; BSR set to: 0
  6127                           ;mcc_generated_files/bootloader/library/com_adapter/com_adapter.c: 246:                 
      +                                  isEscapedByte = 0;
  6128   000D5A  0E00               	movlw	0
  6129   000D5C  6F89               	movwf	COM_FrameTransfer@isEscapedByte& (0+255),b
  6130   000D5E                     l5277:
  6131                           
  6132                           ; BSR set to: 0
  6133                           ;mcc_generated_files/bootloader/library/com_adapter/com_adapter.c: 250:                 
      +                              if (*receiveIndexPtr < MaxBufferLength)
  6134   000D5E  500B               	movf	COM_FrameTransfer@receiveIndexPtr^0,w,c
  6135   000D60  6ED9               	movwf	fsr2l,c
  6136   000D62  6ADA               	clrf	fsr2h,c
  6137   000D64  5183               	movf	_MaxBufferLength& (0+255),w,b
  6138   000D66  5CDE               	subwf	postinc2,w,c
  6139   000D68  5184               	movf	(_MaxBufferLength+1)& (0+255),w,b
  6140   000D6A  58DE               	subwfb	postinc2,w,c
  6141   000D6C  B0D8               	btfsc	status,0,c
  6142   000D6E  EFBB  F006         	goto	u4381
  6143   000D72  EFBD  F006         	goto	u4380
  6144   000D76                     u4381:
  6145   000D76  EFD4  F006         	goto	l5283
  6146   000D7A                     u4380:
  6147   000D7A                     
  6148                           ; BSR set to: 0
  6149                           ;mcc_generated_files/bootloader/library/com_adapter/com_adapter.c: 251:                 
      +                              {;mcc_generated_files/bootloader/library/com_adapter/com_adapter.c: 252:            
      +                                       receiveBufferPtr[*receiveIndexPtr] = nextByte;
  6150   000D7A  500B               	movf	COM_FrameTransfer@receiveIndexPtr^0,w,c
  6151   000D7C  6ED9               	movwf	fsr2l,c
  6152   000D7E  6ADA               	clrf	fsr2h,c
  6153   000D80  CFDE F00C          	movff	postinc2,??_COM_FrameTransfer
  6154   000D84  CFDD F00D          	movff	postdec2,??_COM_FrameTransfer+1
  6155   000D88  500C               	movf	??_COM_FrameTransfer^0,w,c
  6156   000D8A  2409               	addwf	COM_FrameTransfer@receiveBufferPtr^0,w,c
  6157   000D8C  6ED9               	movwf	fsr2l,c
  6158   000D8E  500D               	movf	(??_COM_FrameTransfer+1)^0,w,c
  6159   000D90  200A               	addwfc	(COM_FrameTransfer@receiveBufferPtr+1)^0,w,c
  6160   000D92  6EDA               	movwf	fsr2h,c
  6161   000D94  C018  FFDF         	movff	COM_FrameTransfer@nextByte,indf2
  6162                           
  6163                           ;mcc_generated_files/bootloader/library/com_adapter/com_adapter.c: 253:                 
      +                                  (*receiveIndexPtr)++;
  6164   000D98  500B               	movf	COM_FrameTransfer@receiveIndexPtr^0,w,c
  6165   000D9A  6ED9               	movwf	fsr2l,c
  6166   000D9C  6ADA               	clrf	fsr2h,c
  6167   000D9E  2ADE               	incf	postinc2,f,c
  6168   000DA0  0E00               	movlw	0
  6169   000DA2  22DD               	addwfc	postdec2,f,c
  6170   000DA4  EF35  F006         	goto	l5239
  6171   000DA8                     l5283:
  6172                           
  6173                           ; BSR set to: 0
  6174                           ;mcc_generated_files/bootloader/library/com_adapter/com_adapter.c: 257:                 
      +                              {;mcc_generated_files/bootloader/library/com_adapter/com_adapter.c: 259:            
      +                                       isReceiveWindowOpen = 0;
  6175   000DA8  0E00               	movlw	0
  6176   000DAA  6F8A               	movwf	COM_FrameTransfer@isReceiveWindowOpen& (0+255),b
  6177                           
  6178                           ;mcc_generated_files/bootloader/library/com_adapter/com_adapter.c: 260:                 
      +                                  processResult = COM_BUFFER_ERROR;
  6179   000DAC  0E69               	movlw	105
  6180   000DAE  6E17               	movwf	COM_FrameTransfer@processResult^0,c
  6181   000DB0  EFDC  F006         	goto	l88
  6182   000DB4                     l5285:
  6183                           
  6184                           ;mcc_generated_files/bootloader/library/com_adapter/com_adapter.c: 265:             {;mc
      +                          c_generated_files/bootloader/library/com_adapter/com_adapter.c: 266:                 pro
      +                          cessResult = COM_FAIL;
  6185   000DB4  0EC3               	movlw	195
  6186   000DB6  6E17               	movwf	COM_FrameTransfer@processResult^0,c
  6187   000DB8                     l88:
  6188                           
  6189                           ;mcc_generated_files/bootloader/library/com_adapter/com_adapter.c: 274:     return proce
      +                          ssResult;
  6190   000DB8  5017               	movf	COM_FrameTransfer@processResult^0,w,c
  6191   000DBA  0012               	return		;funcret
  6192   000DBC                     __end_of_COM_FrameTransfer:
  6193                           	callstack 0
  6194                           
  6195 ;; *************** function _DataReceive *****************
  6196 ;; Defined at:
  6197 ;;		line 124 in file "mcc_generated_files/bootloader/library/com_adapter/com_adapter.c"
  6198 ;; Parameters:    Size  Location     Type
  6199 ;;  data            1    2[COMRAM] PTR unsigned char 
  6200 ;;		 -> COM_FrameTransfer@nextByte(1), 
  6201 ;;  length          2    3[COMRAM] unsigned int 
  6202 ;; Auto vars:     Size  Location     Type
  6203 ;;  byteIndex       2    6[COMRAM] unsigned short 
  6204 ;;  status          1    5[COMRAM] enum E6610
  6205 ;; Return value:  Size  Location     Type
  6206 ;;                  1    wreg      enum E6610
  6207 ;; Registers used:
  6208 ;;		wreg, fsr2l, fsr2h, status,2, status,0, pcl, pclath, pclatu, tosl, tblptrl, tblptrh, tblptru, cstack
  6209 ;; Tracked objects:
  6210 ;;		On entry : 0/0
  6211 ;;		On exit  : 0/0
  6212 ;;		Unchanged: 0/0
  6213 ;; Data sizes:     COMRAM   BANK0   BANK1   BANK2   BANK3   BANK4   BANK5
  6214 ;;      Params:         3       0       0       0       0       0       0
  6215 ;;      Locals:         3       0       0       0       0       0       0
  6216 ;;      Temps:          0       0       0       0       0       0       0
  6217 ;;      Totals:         6       0       0       0       0       0       0
  6218 ;;Total ram usage:        6 bytes
  6219 ;; Hardware stack levels used: 1
  6220 ;; Hardware stack levels required when called: 2
  6221 ;; This function calls:
  6222 ;;		_EUSART1_Deinitialize
  6223 ;;		_EUSART1_ErrorGet
  6224 ;;		_EUSART1_Initialize
  6225 ;;		_EUSART1_IsRxReady
  6226 ;;		_EUSART1_Read
  6227 ;;		_EUSART2_Deinitialize
  6228 ;;		_EUSART2_ErrorGet
  6229 ;;		_EUSART2_Initialize
  6230 ;;		_EUSART2_IsRxReady
  6231 ;;		_EUSART2_Read
  6232 ;; This function is called by:
  6233 ;;		_COM_FrameTransfer
  6234 ;; This function uses a non-reentrant model
  6235 ;;
  6236                           
  6237                           	psect	text45
  6238   0011E0                     __ptext45:
  6239                           	callstack 0
  6240   0011E0                     _DataReceive:
  6241                           	callstack 25
  6242   0011E0                     
  6243                           ;mcc_generated_files/bootloader/library/com_adapter/com_adapter.c: 124: static com_adapt
      +                          er_result_t DataReceive(uint8_t *data, size_t length);mcc_generated_files/bootloader/lib
      +                          rary/com_adapter/com_adapter.c: 125: {;mcc_generated_files/bootloader/library/com_adapte
      +                          r/com_adapter.c: 126:     com_adapter_result_t status;;mcc_generated_files/bootloader/li
      +                          brary/com_adapter/com_adapter.c: 128:     if ((length == 0U) || (data == ((void*)0)))
  6244   0011E0  5004               	movf	DataReceive@length^0,w,c
  6245   0011E2  1005               	iorwf	(DataReceive@length+1)^0,w,c
  6246   0011E4  B4D8               	btfsc	status,2,c
  6247   0011E6  EFF7  F008         	goto	u4101
  6248   0011EA  EFF9  F008         	goto	u4100
  6249   0011EE                     u4101:
  6250   0011EE  EF01  F009         	goto	l5113
  6251   0011F2                     u4100:
  6252   0011F2  5003               	movf	DataReceive@data^0,w,c
  6253   0011F4  A4D8               	btfss	status,2,c
  6254   0011F6  EFFF  F008         	goto	u4111
  6255   0011FA  EF01  F009         	goto	u4110
  6256   0011FE                     u4111:
  6257   0011FE  EF05  F009         	goto	l5115
  6258   001202                     u4110:
  6259   001202                     l5113:
  6260                           
  6261                           ;mcc_generated_files/bootloader/library/com_adapter/com_adapter.c: 129:     {;mcc_genera
      +                          ted_files/bootloader/library/com_adapter/com_adapter.c: 130:         status = COM_INVALI
      +                          D_ARG;
  6262   001202  0E96               	movlw	150
  6263   001204  6E06               	movwf	DataReceive@status^0,c
  6264                           
  6265                           ;mcc_generated_files/bootloader/library/com_adapter/com_adapter.c: 131:     }
  6266   001206  EF98  F009         	goto	l5137
  6267   00120A                     l5115:
  6268                           
  6269                           ;mcc_generated_files/bootloader/library/com_adapter/com_adapter.c: 133:     {;mcc_genera
      +                          ted_files/bootloader/library/com_adapter/com_adapter.c: 134:         for (uint16_t byteI
      +                          ndex = 0; byteIndex != length; byteIndex++)
  6270   00120A  0E00               	movlw	0
  6271   00120C  6E08               	movwf	(DataReceive@byteIndex+1)^0,c
  6272   00120E  0E00               	movlw	0
  6273   001210  6E07               	movwf	DataReceive@byteIndex^0,c
  6274   001212  EF8C  F009         	goto	l5135
  6275   001216                     l5117:
  6276                           
  6277                           ;mcc_generated_files/bootloader/library/com_adapter/com_adapter.c: 135:         {;mcc_ge
      +                          nerated_files/bootloader/library/com_adapter/com_adapter.c: 136:             status = CO
      +                          M_PASS;
  6278   001216  0EE7               	movlw	231
  6279   001218  6E06               	movwf	DataReceive@status^0,c
  6280   00121A                     
  6281                           ;mcc_generated_files/bootloader/library/com_adapter/com_adapter.c: 138:             if (
      +                          ((UART1)).ErrorGet() == 0U)
  6282   00121A  0E51               	movlw	low (_UART1+32)
  6283   00121C  6EF6               	movwf	tblptrl,c
  6284   00121E                     	if	1	;There is more than 1 active tblptr byte
  6285   00121E  0E06               	movlw	high __smallconst
  6286   001220  6EF7               	movwf	tblptrh,c
  6287   001222                     	endif
  6288   001222                     	if	0	;tblptru may be non-zero
  6289   001222                     	endif
  6290   001222                     	if	0	;tblptru may be non-zero
  6291   001222                     	endif
  6292   001222  D802               	call	u4128
  6293   001224  EF20  F009         	goto	u4129
  6294   001228                     u4128:
  6295   001228  0005               	push	
  6296   00122A  6EFA               	movwf	pclath,c
  6297   00122C  0009               	tblrd		*+
  6298   00122E  50F5               	movf	tablat,w,c
  6299   001230  6EFD               	movwf	tosl,c
  6300   001232  0009               	tblrd		*+
  6301   001234  50F5               	movf	tablat,w,c
  6302   001236  6EFE               	movwf	tosh,c
  6303   001238  50F8               	movf	tblptru,w,c
  6304   00123A  6EFF               	movwf	tosu,c
  6305   00123C  50FA               	movf	pclath,w,c
  6306   00123E  0012               	return		;indir
  6307   001240                     u4129:
  6308   001240  5001               	movf	?_EUSART2_ErrorGet^0,w,c
  6309   001242  1002               	iorwf	(?_EUSART2_ErrorGet+1)^0,w,c
  6310   001244  A4D8               	btfss	status,2,c
  6311   001246  EF27  F009         	goto	u4131
  6312   00124A  EF29  F009         	goto	u4130
  6313   00124E                     u4131:
  6314   00124E  EF62  F009         	goto	l5127
  6315   001252                     u4130:
  6316   001252                     
  6317                           ;mcc_generated_files/bootloader/library/com_adapter/com_adapter.c: 139:             {;mc
      +                          c_generated_files/bootloader/library/com_adapter/com_adapter.c: 140:                 if 
      +                          (((UART1)).IsRxReady())
  6318   001252  0E39               	movlw	low (_UART1+8)
  6319   001254  6EF6               	movwf	tblptrl,c
  6320   001256                     	if	1	;There is more than 1 active tblptr byte
  6321   001256  0E06               	movlw	high __smallconst
  6322   001258  6EF7               	movwf	tblptrh,c
  6323   00125A                     	endif
  6324   00125A                     	if	0	;tblptru may be non-zero
  6325   00125A                     	endif
  6326   00125A                     	if	0	;tblptru may be non-zero
  6327   00125A                     	endif
  6328   00125A  D802               	call	u4148
  6329   00125C  EF3C  F009         	goto	u4149
  6330   001260                     u4148:
  6331   001260  0005               	push	
  6332   001262  6EFA               	movwf	pclath,c
  6333   001264  0009               	tblrd		*+
  6334   001266  50F5               	movf	tablat,w,c
  6335   001268  6EFD               	movwf	tosl,c
  6336   00126A  0009               	tblrd		*+
  6337   00126C  50F5               	movf	tablat,w,c
  6338   00126E  6EFE               	movwf	tosh,c
  6339   001270  50F8               	movf	tblptru,w,c
  6340   001272  6EFF               	movwf	tosu,c
  6341   001274  50FA               	movf	pclath,w,c
  6342   001276  0012               	return		;indir
  6343   001278                     u4149:
  6344   001278  0900               	iorlw	0
  6345   00127A  B4D8               	btfsc	status,2,c
  6346   00127C  EF42  F009         	goto	u4151
  6347   001280  EF44  F009         	goto	u4150
  6348   001284                     u4151:
  6349   001284  EF5E  F009         	goto	l5125
  6350   001288                     u4150:
  6351   001288                     
  6352                           ;mcc_generated_files/bootloader/library/com_adapter/com_adapter.c: 141:                 
      +                          {;mcc_generated_files/bootloader/library/com_adapter/com_adapter.c: 142:                
      +                               data[byteIndex] = ((UART1)).Read();
  6353   001288  5003               	movf	DataReceive@data^0,w,c
  6354   00128A  2407               	addwf	DataReceive@byteIndex^0,w,c
  6355   00128C  6ED9               	movwf	fsr2l,c
  6356   00128E  6ADA               	clrf	fsr2h,c
  6357   001290  0E35               	movlw	low (_UART1+4)
  6358   001292  6EF6               	movwf	tblptrl,c
  6359   001294                     	if	1	;There is more than 1 active tblptr byte
  6360   001294  0E06               	movlw	high __smallconst
  6361   001296  6EF7               	movwf	tblptrh,c
  6362   001298                     	endif
  6363   001298                     	if	0	;tblptru may be non-zero
  6364   001298                     	endif
  6365   001298                     	if	0	;tblptru may be non-zero
  6366   001298                     	endif
  6367   001298  D802               	call	u4168
  6368   00129A  EF5B  F009         	goto	u4169
  6369   00129E                     u4168:
  6370   00129E  0005               	push	
  6371   0012A0  6EFA               	movwf	pclath,c
  6372   0012A2  0009               	tblrd		*+
  6373   0012A4  50F5               	movf	tablat,w,c
  6374   0012A6  6EFD               	movwf	tosl,c
  6375   0012A8  0009               	tblrd		*+
  6376   0012AA  50F5               	movf	tablat,w,c
  6377   0012AC  6EFE               	movwf	tosh,c
  6378   0012AE  50F8               	movf	tblptru,w,c
  6379   0012B0  6EFF               	movwf	tosu,c
  6380   0012B2  50FA               	movf	pclath,w,c
  6381   0012B4  0012               	return		;indir
  6382   0012B6                     u4169:
  6383   0012B6  6EDF               	movwf	indf2,c
  6384                           
  6385                           ;mcc_generated_files/bootloader/library/com_adapter/com_adapter.c: 143:                 
      +                          }
  6386   0012B8  EF8A  F009         	goto	l5133
  6387   0012BC                     l5125:
  6388                           
  6389                           ;mcc_generated_files/bootloader/library/com_adapter/com_adapter.c: 145:                 
      +                          {;mcc_generated_files/bootloader/library/com_adapter/com_adapter.c: 146:                
      +                               status = COM_FAIL;
  6390   0012BC  0EC3               	movlw	195
  6391   0012BE  6E06               	movwf	DataReceive@status^0,c
  6392   0012C0  EF8A  F009         	goto	l5133
  6393   0012C4                     l5127:
  6394                           
  6395                           ;mcc_generated_files/bootloader/library/com_adapter/com_adapter.c: 150:             {;mc
      +                          c_generated_files/bootloader/library/com_adapter/com_adapter.c: 151:                 sta
      +                          tus = COM_FAIL;
  6396   0012C4  0EC3               	movlw	195
  6397   0012C6  6E06               	movwf	DataReceive@status^0,c
  6398   0012C8                     
  6399                           ;mcc_generated_files/bootloader/library/com_adapter/com_adapter.c: 153:                 
      +                          ((UART1)).Deinitialize();
  6400   0012C8  0E33               	movlw	low (_UART1+2)
  6401   0012CA  6EF6               	movwf	tblptrl,c
  6402   0012CC                     	if	1	;There is more than 1 active tblptr byte
  6403   0012CC  0E06               	movlw	high __smallconst
  6404   0012CE  6EF7               	movwf	tblptrh,c
  6405   0012D0                     	endif
  6406   0012D0                     	if	0	;tblptru may be non-zero
  6407   0012D0                     	endif
  6408   0012D0                     	if	0	;tblptru may be non-zero
  6409   0012D0                     	endif
  6410   0012D0  D802               	call	u4178
  6411   0012D2  EF77  F009         	goto	u4179
  6412   0012D6                     u4178:
  6413   0012D6  0005               	push	
  6414   0012D8  6EFA               	movwf	pclath,c
  6415   0012DA  0009               	tblrd		*+
  6416   0012DC  50F5               	movf	tablat,w,c
  6417   0012DE  6EFD               	movwf	tosl,c
  6418   0012E0  0009               	tblrd		*+
  6419   0012E2  50F5               	movf	tablat,w,c
  6420   0012E4  6EFE               	movwf	tosh,c
  6421   0012E6  50F8               	movf	tblptru,w,c
  6422   0012E8  6EFF               	movwf	tosu,c
  6423   0012EA  50FA               	movf	pclath,w,c
  6424   0012EC  0012               	return		;indir
  6425   0012EE                     u4179:
  6426   0012EE                     
  6427                           ;mcc_generated_files/bootloader/library/com_adapter/com_adapter.c: 154:                 
      +                          ((UART1)).Initialize();
  6428   0012EE  0E31               	movlw	low _UART1
  6429   0012F0  6EF6               	movwf	tblptrl,c
  6430   0012F2                     	if	1	;There is more than 1 active tblptr byte
  6431   0012F2  0E06               	movlw	high _UART1
  6432   0012F4  6EF7               	movwf	tblptrh,c
  6433   0012F6                     	endif
  6434   0012F6                     	if	0	;There are less than 3 active tblptr bytes
  6435   0012F6                     	endif
  6436   0012F6  D802               	call	u4188
  6437   0012F8  EF8A  F009         	goto	u4189
  6438   0012FC                     u4188:
  6439   0012FC  0005               	push	
  6440   0012FE  6EFA               	movwf	pclath,c
  6441   001300  0009               	tblrd		*+
  6442   001302  50F5               	movf	tablat,w,c
  6443   001304  6EFD               	movwf	tosl,c
  6444   001306  0009               	tblrd		*+
  6445   001308  50F5               	movf	tablat,w,c
  6446   00130A  6EFE               	movwf	tosh,c
  6447   00130C  50F8               	movf	tblptru,w,c
  6448   00130E  6EFF               	movwf	tosu,c
  6449   001310  50FA               	movf	pclath,w,c
  6450   001312  0012               	return		;indir
  6451   001314                     u4189:
  6452   001314                     l5133:
  6453                           
  6454                           ;mcc_generated_files/bootloader/library/com_adapter/com_adapter.c: 156:         }
  6455   001314  4A07               	infsnz	DataReceive@byteIndex^0,f,c
  6456   001316  2A08               	incf	(DataReceive@byteIndex+1)^0,f,c
  6457   001318                     l5135:
  6458   001318  5004               	movf	DataReceive@length^0,w,c
  6459   00131A  1807               	xorwf	DataReceive@byteIndex^0,w,c
  6460   00131C  E107               	bnz	u4191
  6461   00131E  5005               	movf	(DataReceive@length+1)^0,w,c
  6462   001320  1808               	xorwf	(DataReceive@byteIndex+1)^0,w,c
  6463   001322  A4D8               	btfss	status,2,c
  6464   001324  EF96  F009         	goto	u4191
  6465   001328  EF98  F009         	goto	u4190
  6466   00132C                     u4191:
  6467   00132C  EF0B  F009         	goto	l5117
  6468   001330                     u4190:
  6469   001330                     l5137:
  6470                           
  6471                           ;mcc_generated_files/bootloader/library/com_adapter/com_adapter.c: 158:     return statu
      +                          s;
  6472   001330  5006               	movf	DataReceive@status^0,w,c
  6473   001332  0012               	return		;funcret
  6474   001334                     __end_of_DataReceive:
  6475                           	callstack 0
  6476                           
  6477 ;; *************** function _EUSART1_Read *****************
  6478 ;; Defined at:
  6479 ;;		line 213 in file "mcc_generated_files/uart/src/eusart1.c"
  6480 ;; Parameters:    Size  Location     Type
  6481 ;;		None
  6482 ;; Auto vars:     Size  Location     Type
  6483 ;;		None
  6484 ;; Return value:  Size  Location     Type
  6485 ;;                  1    wreg      unsigned char 
  6486 ;; Registers used:
  6487 ;;		wreg, status,2, status,0, pcl, pclath, pclatu, tosl, cstack
  6488 ;; Tracked objects:
  6489 ;;		On entry : 0/0
  6490 ;;		On exit  : 0/0
  6491 ;;		Unchanged: 0/0
  6492 ;; Data sizes:     COMRAM   BANK0   BANK1   BANK2   BANK3   BANK4   BANK5
  6493 ;;      Params:         0       0       0       0       0       0       0
  6494 ;;      Locals:         0       0       0       0       0       0       0
  6495 ;;      Temps:          0       0       0       0       0       0       0
  6496 ;;      Totals:         0       0       0       0       0       0       0
  6497 ;;Total ram usage:        0 bytes
  6498 ;; Hardware stack levels used: 1
  6499 ;; Hardware stack levels required when called: 1
  6500 ;; This function calls:
  6501 ;;		NULL
  6502 ;;		_EUSART1_DefaultFramingErrorCallback
  6503 ;;		_EUSART1_DefaultOverrunErrorCallback
  6504 ;;		_EUSART2_DefaultFramingErrorCallback
  6505 ;;		_EUSART2_DefaultOverrunErrorCallback
  6506 ;; This function is called by:
  6507 ;;		_DataReceive
  6508 ;; This function uses a non-reentrant model
  6509 ;;
  6510                           
  6511                           	psect	text46
  6512   0019DE                     __ptext46:
  6513                           	callstack 0
  6514   0019DE                     _EUSART1_Read:
  6515                           	callstack 25
  6516   0019DE                     
  6517                           ;mcc_generated_files/uart/src/eusart1.c: 215:     eusart1RxLastError.status = 0;
  6518   0019DE  0E00               	movlw	0
  6519   0019E0  0100               	movlb	0	; () banked
  6520   0019E2  6F74               	movwf	(_eusart1RxLastError+1)& (0+255),b	;volatile
  6521   0019E4  0E00               	movlw	0
  6522   0019E6  6F73               	movwf	_eusart1RxLastError& (0+255),b	;volatile
  6523   0019E8                     
  6524                           ; BSR set to: 0
  6525                           ;mcc_generated_files/uart/src/eusart1.c: 216:     if(RCSTA1bits.OERR)
  6526   0019E8  A2AB               	btfss	171,1,c	;volatile
  6527   0019EA  EFF9  F00C         	goto	u3861
  6528   0019EE  EFFB  F00C         	goto	u3860
  6529   0019F2                     u3861:
  6530   0019F2  EF12  F00D         	goto	l5021
  6531   0019F6                     u3860:
  6532   0019F6                     
  6533                           ; BSR set to: 0
  6534                           ;mcc_generated_files/uart/src/eusart1.c: 217:     {;mcc_generated_files/uart/src/eusart1
      +                          .c: 218:         eusart1RxLastError.oerr = 1;
  6535   0019F6  8573               	bsf	_eusart1RxLastError& (0+255),2,b	;volatile
  6536   0019F8                     
  6537                           ; BSR set to: 0
  6538                           ;mcc_generated_files/uart/src/eusart1.c: 219:         if(((void*)0) != EUSART1_OverrunEr
      +                          rorHandler)
  6539   0019F8  516F               	movf	_EUSART1_OverrunErrorHandler& (0+255),w,b
  6540   0019FA  1170               	iorwf	(_EUSART1_OverrunErrorHandler+1)& (0+255),w,b
  6541   0019FC  B4D8               	btfsc	status,2,c
  6542   0019FE  EF03  F00D         	goto	u3871
  6543   001A02  EF05  F00D         	goto	u3870
  6544   001A06                     u3871:
  6545   001A06  EF12  F00D         	goto	l5021
  6546   001A0A                     u3870:
  6547   001A0A                     
  6548                           ; BSR set to: 0
  6549                           ;mcc_generated_files/uart/src/eusart1.c: 220:         {;mcc_generated_files/uart/src/eus
      +                          art1.c: 221:             EUSART1_OverrunErrorHandler();
  6550   001A0A  D802               	call	u3888
  6551   001A0C  EF12  F00D         	goto	u3889
  6552   001A10                     u3888:
  6553   001A10  0005               	push	
  6554   001A12  6EFA               	movwf	pclath,c
  6555   001A14  516F               	movf	_EUSART1_OverrunErrorHandler& (0+255),w,b
  6556   001A16  6EFD               	movwf	tosl,c
  6557   001A18  5170               	movf	(_EUSART1_OverrunErrorHandler+1)& (0+255),w,b
  6558   001A1A  6EFE               	movwf	tosh,c
  6559   001A1C  50F8               	movf	tblptru,w,c
  6560   001A1E  6EFF               	movwf	tosu,c
  6561   001A20  50FA               	movf	pclath,w,c
  6562   001A22  0012               	return		;indir
  6563   001A24                     u3889:
  6564   001A24                     l5021:
  6565                           
  6566                           ;mcc_generated_files/uart/src/eusart1.c: 224:     if(RCSTA1bits.FERR)
  6567   001A24  A4AB               	btfss	171,2,c	;volatile
  6568   001A26  EF17  F00D         	goto	u3891
  6569   001A2A  EF19  F00D         	goto	u3890
  6570   001A2E                     u3891:
  6571   001A2E  EF31  F00D         	goto	l5029
  6572   001A32                     u3890:
  6573   001A32                     
  6574                           ;mcc_generated_files/uart/src/eusart1.c: 225:     {;mcc_generated_files/uart/src/eusart1
      +                          .c: 226:         eusart1RxLastError.ferr = 1;
  6575   001A32  0100               	movlb	0	; () banked
  6576   001A34  8373               	bsf	_eusart1RxLastError& (0+255),1,b	;volatile
  6577   001A36                     
  6578                           ; BSR set to: 0
  6579                           ;mcc_generated_files/uart/src/eusart1.c: 227:         if(((void*)0) != EUSART1_FramingEr
      +                          rorHandler)
  6580   001A36  5171               	movf	_EUSART1_FramingErrorHandler& (0+255),w,b
  6581   001A38  1172               	iorwf	(_EUSART1_FramingErrorHandler+1)& (0+255),w,b
  6582   001A3A  B4D8               	btfsc	status,2,c
  6583   001A3C  EF22  F00D         	goto	u3901
  6584   001A40  EF24  F00D         	goto	u3900
  6585   001A44                     u3901:
  6586   001A44  EF31  F00D         	goto	l5029
  6587   001A48                     u3900:
  6588   001A48                     
  6589                           ; BSR set to: 0
  6590                           ;mcc_generated_files/uart/src/eusart1.c: 228:         {;mcc_generated_files/uart/src/eus
      +                          art1.c: 229:             EUSART1_FramingErrorHandler();
  6591   001A48  D802               	call	u3918
  6592   001A4A  EF31  F00D         	goto	u3919
  6593   001A4E                     u3918:
  6594   001A4E  0005               	push	
  6595   001A50  6EFA               	movwf	pclath,c
  6596   001A52  5171               	movf	_EUSART1_FramingErrorHandler& (0+255),w,b
  6597   001A54  6EFD               	movwf	tosl,c
  6598   001A56  5172               	movf	(_EUSART1_FramingErrorHandler+1)& (0+255),w,b
  6599   001A58  6EFE               	movwf	tosh,c
  6600   001A5A  50F8               	movf	tblptru,w,c
  6601   001A5C  6EFF               	movwf	tosu,c
  6602   001A5E  50FA               	movf	pclath,w,c
  6603   001A60  0012               	return		;indir
  6604   001A62                     u3919:
  6605   001A62                     l5029:
  6606                           
  6607                           ;mcc_generated_files/uart/src/eusart1.c: 232:     return RCREG1;
  6608   001A62  50AE               	movf	174,w,c	;volatile
  6609   001A64  0012               	return		;funcret
  6610   001A66                     __end_of_EUSART1_Read:
  6611                           	callstack 0
  6612                           
  6613 ;; *************** function _EUSART2_Read *****************
  6614 ;; Defined at:
  6615 ;;		line 213 in file "mcc_generated_files/uart/src/eusart2.c"
  6616 ;; Parameters:    Size  Location     Type
  6617 ;;		None
  6618 ;; Auto vars:     Size  Location     Type
  6619 ;;		None
  6620 ;; Return value:  Size  Location     Type
  6621 ;;                  1    wreg      unsigned char 
  6622 ;; Registers used:
  6623 ;;		wreg, status,2, status,0, pcl, pclath, pclatu, tosl, cstack
  6624 ;; Tracked objects:
  6625 ;;		On entry : 0/0
  6626 ;;		On exit  : 0/0
  6627 ;;		Unchanged: 0/0
  6628 ;; Data sizes:     COMRAM   BANK0   BANK1   BANK2   BANK3   BANK4   BANK5
  6629 ;;      Params:         0       0       0       0       0       0       0
  6630 ;;      Locals:         0       0       0       0       0       0       0
  6631 ;;      Temps:          0       0       0       0       0       0       0
  6632 ;;      Totals:         0       0       0       0       0       0       0
  6633 ;;Total ram usage:        0 bytes
  6634 ;; Hardware stack levels used: 1
  6635 ;; Hardware stack levels required when called: 1
  6636 ;; This function calls:
  6637 ;;		NULL
  6638 ;;		_EUSART1_DefaultFramingErrorCallback
  6639 ;;		_EUSART1_DefaultOverrunErrorCallback
  6640 ;;		_EUSART2_DefaultFramingErrorCallback
  6641 ;;		_EUSART2_DefaultOverrunErrorCallback
  6642 ;; This function is called by:
  6643 ;;		_getch
  6644 ;;		_DataReceive
  6645 ;; This function uses a non-reentrant model
  6646 ;;
  6647                           
  6648                           	psect	text47
  6649   001A66                     __ptext47:
  6650                           	callstack 0
  6651   001A66                     _EUSART2_Read:
  6652                           	callstack 25
  6653   001A66                     
  6654                           ;mcc_generated_files/uart/src/eusart2.c: 215:     eusart2RxLastError.status = 0;
  6655   001A66  0E00               	movlw	0
  6656   001A68  0100               	movlb	0	; () banked
  6657   001A6A  6F6E               	movwf	(_eusart2RxLastError+1)& (0+255),b	;volatile
  6658   001A6C  0E00               	movlw	0
  6659   001A6E  6F6D               	movwf	_eusart2RxLastError& (0+255),b	;volatile
  6660   001A70                     
  6661                           ; BSR set to: 0
  6662                           ;mcc_generated_files/uart/src/eusart2.c: 216:     if(RCSTA2bits.OERR)
  6663   001A70  A271               	btfss	113,1,c	;volatile
  6664   001A72  EF3D  F00D         	goto	u3941
  6665   001A76  EF3F  F00D         	goto	u3940
  6666   001A7A                     u3941:
  6667   001A7A  EF56  F00D         	goto	l5057
  6668   001A7E                     u3940:
  6669   001A7E                     
  6670                           ; BSR set to: 0
  6671                           ;mcc_generated_files/uart/src/eusart2.c: 217:     {;mcc_generated_files/uart/src/eusart2
      +                          .c: 218:         eusart2RxLastError.oerr = 1;
  6672   001A7E  856D               	bsf	_eusart2RxLastError& (0+255),2,b	;volatile
  6673   001A80                     
  6674                           ; BSR set to: 0
  6675                           ;mcc_generated_files/uart/src/eusart2.c: 219:         if(((void*)0) != EUSART2_OverrunEr
      +                          rorHandler)
  6676   001A80  5169               	movf	_EUSART2_OverrunErrorHandler& (0+255),w,b
  6677   001A82  116A               	iorwf	(_EUSART2_OverrunErrorHandler+1)& (0+255),w,b
  6678   001A84  B4D8               	btfsc	status,2,c
  6679   001A86  EF47  F00D         	goto	u3951
  6680   001A8A  EF49  F00D         	goto	u3950
  6681   001A8E                     u3951:
  6682   001A8E  EF56  F00D         	goto	l5057
  6683   001A92                     u3950:
  6684   001A92                     
  6685                           ; BSR set to: 0
  6686                           ;mcc_generated_files/uart/src/eusart2.c: 220:         {;mcc_generated_files/uart/src/eus
      +                          art2.c: 221:             EUSART2_OverrunErrorHandler();
  6687   001A92  D802               	call	u3968
  6688   001A94  EF56  F00D         	goto	u3969
  6689   001A98                     u3968:
  6690   001A98  0005               	push	
  6691   001A9A  6EFA               	movwf	pclath,c
  6692   001A9C  5169               	movf	_EUSART2_OverrunErrorHandler& (0+255),w,b
  6693   001A9E  6EFD               	movwf	tosl,c
  6694   001AA0  516A               	movf	(_EUSART2_OverrunErrorHandler+1)& (0+255),w,b
  6695   001AA2  6EFE               	movwf	tosh,c
  6696   001AA4  50F8               	movf	tblptru,w,c
  6697   001AA6  6EFF               	movwf	tosu,c
  6698   001AA8  50FA               	movf	pclath,w,c
  6699   001AAA  0012               	return		;indir
  6700   001AAC                     u3969:
  6701   001AAC                     l5057:
  6702                           
  6703                           ;mcc_generated_files/uart/src/eusart2.c: 224:     if(RCSTA2bits.FERR)
  6704   001AAC  A471               	btfss	113,2,c	;volatile
  6705   001AAE  EF5B  F00D         	goto	u3971
  6706   001AB2  EF5D  F00D         	goto	u3970
  6707   001AB6                     u3971:
  6708   001AB6  EF75  F00D         	goto	l5065
  6709   001ABA                     u3970:
  6710   001ABA                     
  6711                           ;mcc_generated_files/uart/src/eusart2.c: 225:     {;mcc_generated_files/uart/src/eusart2
      +                          .c: 226:         eusart2RxLastError.ferr = 1;
  6712   001ABA  0100               	movlb	0	; () banked
  6713   001ABC  836D               	bsf	_eusart2RxLastError& (0+255),1,b	;volatile
  6714   001ABE                     
  6715                           ; BSR set to: 0
  6716                           ;mcc_generated_files/uart/src/eusart2.c: 227:         if(((void*)0) != EUSART2_FramingEr
      +                          rorHandler)
  6717   001ABE  516B               	movf	_EUSART2_FramingErrorHandler& (0+255),w,b
  6718   001AC0  116C               	iorwf	(_EUSART2_FramingErrorHandler+1)& (0+255),w,b
  6719   001AC2  B4D8               	btfsc	status,2,c
  6720   001AC4  EF66  F00D         	goto	u3981
  6721   001AC8  EF68  F00D         	goto	u3980
  6722   001ACC                     u3981:
  6723   001ACC  EF75  F00D         	goto	l5065
  6724   001AD0                     u3980:
  6725   001AD0                     
  6726                           ; BSR set to: 0
  6727                           ;mcc_generated_files/uart/src/eusart2.c: 228:         {;mcc_generated_files/uart/src/eus
      +                          art2.c: 229:             EUSART2_FramingErrorHandler();
  6728   001AD0  D802               	call	u3998
  6729   001AD2  EF75  F00D         	goto	u3999
  6730   001AD6                     u3998:
  6731   001AD6  0005               	push	
  6732   001AD8  6EFA               	movwf	pclath,c
  6733   001ADA  516B               	movf	_EUSART2_FramingErrorHandler& (0+255),w,b
  6734   001ADC  6EFD               	movwf	tosl,c
  6735   001ADE  516C               	movf	(_EUSART2_FramingErrorHandler+1)& (0+255),w,b
  6736   001AE0  6EFE               	movwf	tosh,c
  6737   001AE2  50F8               	movf	tblptru,w,c
  6738   001AE4  6EFF               	movwf	tosu,c
  6739   001AE6  50FA               	movf	pclath,w,c
  6740   001AE8  0012               	return		;indir
  6741   001AEA                     u3999:
  6742   001AEA                     l5065:
  6743                           
  6744                           ;mcc_generated_files/uart/src/eusart2.c: 232:     return RCREG2;
  6745   001AEA  5074               	movf	116,w,c	;volatile
  6746   001AEC  0012               	return		;funcret
  6747   001AEE                     __end_of_EUSART2_Read:
  6748                           	callstack 0
  6749                           
  6750 ;; *************** function _EUSART1_IsRxReady *****************
  6751 ;; Defined at:
  6752 ;;		line 193 in file "mcc_generated_files/uart/src/eusart1.c"
  6753 ;; Parameters:    Size  Location     Type
  6754 ;;		None
  6755 ;; Auto vars:     Size  Location     Type
  6756 ;;		None
  6757 ;; Return value:  Size  Location     Type
  6758 ;;                  1    wreg      _Bool 
  6759 ;; Registers used:
  6760 ;;		wreg
  6761 ;; Tracked objects:
  6762 ;;		On entry : 0/0
  6763 ;;		On exit  : 0/0
  6764 ;;		Unchanged: 0/0
  6765 ;; Data sizes:     COMRAM   BANK0   BANK1   BANK2   BANK3   BANK4   BANK5
  6766 ;;      Params:         0       0       0       0       0       0       0
  6767 ;;      Locals:         0       0       0       0       0       0       0
  6768 ;;      Temps:          0       0       0       0       0       0       0
  6769 ;;      Totals:         0       0       0       0       0       0       0
  6770 ;;Total ram usage:        0 bytes
  6771 ;; Hardware stack levels used: 1
  6772 ;; This function calls:
  6773 ;;		Nothing
  6774 ;; This function is called by:
  6775 ;;		_DataReceive
  6776 ;;		_COM_FrameTransfer
  6777 ;; This function uses a non-reentrant model
  6778 ;;
  6779                           
  6780                           	psect	text48
  6781   002214                     __ptext48:
  6782                           	callstack 0
  6783   002214                     _EUSART1_IsRxReady:
  6784                           	callstack 27
  6785   002214                     
  6786                           ;mcc_generated_files/uart/src/eusart1.c: 195:     return (_Bool)(PIR1bits.RC1IF);
  6787   002214  BA9E               	btfsc	158,5,c	;volatile
  6788   002216  EF0F  F011         	goto	u3821
  6789   00221A  EF12  F011         	goto	u3820
  6790   00221E                     u3821:
  6791   00221E  0E01               	movlw	1
  6792   002220  EF13  F011         	goto	u3826
  6793   002224                     u3820:
  6794   002224  0E00               	movlw	0
  6795   002226                     u3826:
  6796   002226  0012               	return		;funcret
  6797   002228                     __end_of_EUSART1_IsRxReady:
  6798                           	callstack 0
  6799                           
  6800 ;; *************** function _EUSART2_IsRxReady *****************
  6801 ;; Defined at:
  6802 ;;		line 193 in file "mcc_generated_files/uart/src/eusart2.c"
  6803 ;; Parameters:    Size  Location     Type
  6804 ;;		None
  6805 ;; Auto vars:     Size  Location     Type
  6806 ;;		None
  6807 ;; Return value:  Size  Location     Type
  6808 ;;                  1    wreg      _Bool 
  6809 ;; Registers used:
  6810 ;;		wreg
  6811 ;; Tracked objects:
  6812 ;;		On entry : 0/0
  6813 ;;		On exit  : 0/0
  6814 ;;		Unchanged: 0/0
  6815 ;; Data sizes:     COMRAM   BANK0   BANK1   BANK2   BANK3   BANK4   BANK5
  6816 ;;      Params:         0       0       0       0       0       0       0
  6817 ;;      Locals:         0       0       0       0       0       0       0
  6818 ;;      Temps:          0       0       0       0       0       0       0
  6819 ;;      Totals:         0       0       0       0       0       0       0
  6820 ;;Total ram usage:        0 bytes
  6821 ;; Hardware stack levels used: 1
  6822 ;; This function calls:
  6823 ;;		Nothing
  6824 ;; This function is called by:
  6825 ;;		_getch
  6826 ;;		_DataReceive
  6827 ;;		_COM_FrameTransfer
  6828 ;; This function uses a non-reentrant model
  6829 ;;
  6830                           
  6831                           	psect	text49
  6832   002228                     __ptext49:
  6833                           	callstack 0
  6834   002228                     _EUSART2_IsRxReady:
  6835                           	callstack 27
  6836   002228                     
  6837                           ;mcc_generated_files/uart/src/eusart2.c: 195:     return (_Bool)(PIR3bits.RC2IF);
  6838   002228  BAA4               	btfsc	164,5,c	;volatile
  6839   00222A  EF19  F011         	goto	u3921
  6840   00222E  EF1C  F011         	goto	u3920
  6841   002232                     u3921:
  6842   002232  0E01               	movlw	1
  6843   002234  EF1D  F011         	goto	u3926
  6844   002238                     u3920:
  6845   002238  0E00               	movlw	0
  6846   00223A                     u3926:
  6847   00223A  0012               	return		;funcret
  6848   00223C                     __end_of_EUSART2_IsRxReady:
  6849                           	callstack 0
  6850                           
  6851 ;; *************** function _EUSART1_Initialize *****************
  6852 ;; Defined at:
  6853 ;;		line 94 in file "mcc_generated_files/uart/src/eusart1.c"
  6854 ;; Parameters:    Size  Location     Type
  6855 ;;		None
  6856 ;; Auto vars:     Size  Location     Type
  6857 ;;		None
  6858 ;; Return value:  Size  Location     Type
  6859 ;;                  1    wreg      void 
  6860 ;; Registers used:
  6861 ;;		wreg, status,2, status,0, cstack
  6862 ;; Tracked objects:
  6863 ;;		On entry : 0/0
  6864 ;;		On exit  : 0/0
  6865 ;;		Unchanged: 0/0
  6866 ;; Data sizes:     COMRAM   BANK0   BANK1   BANK2   BANK3   BANK4   BANK5
  6867 ;;      Params:         0       0       0       0       0       0       0
  6868 ;;      Locals:         0       0       0       0       0       0       0
  6869 ;;      Temps:          0       0       0       0       0       0       0
  6870 ;;      Totals:         0       0       0       0       0       0       0
  6871 ;;Total ram usage:        0 bytes
  6872 ;; Hardware stack levels used: 1
  6873 ;; Hardware stack levels required when called: 1
  6874 ;; This function calls:
  6875 ;;		_EUSART1_FramingErrorCallbackRegister
  6876 ;;		_EUSART1_OverrunErrorCallbackRegister
  6877 ;; This function is called by:
  6878 ;;		_SYSTEM_Initialize
  6879 ;;		_DataReceive
  6880 ;; This function uses a non-reentrant model
  6881 ;;
  6882                           
  6883                           	psect	text50
  6884   001E86                     __ptext50:
  6885                           	callstack 0
  6886   001E86                     _EUSART1_Initialize:
  6887                           	callstack 28
  6888   001E86                     
  6889                           ;mcc_generated_files/uart/src/eusart1.c: 99:     BAUDCON1 = 0x48;
  6890   001E86  0E48               	movlw	72
  6891   001E88  6EB8               	movwf	184,c	;volatile
  6892                           
  6893                           ;mcc_generated_files/uart/src/eusart1.c: 101:     RCSTA1 = 0x90;
  6894   001E8A  0E90               	movlw	144
  6895   001E8C  6EAB               	movwf	171,c	;volatile
  6896                           
  6897                           ;mcc_generated_files/uart/src/eusart1.c: 103:     TXSTA1 = 0x26;
  6898   001E8E  0E26               	movlw	38
  6899   001E90  6EAC               	movwf	172,c	;volatile
  6900                           
  6901                           ;mcc_generated_files/uart/src/eusart1.c: 105:     SPBRG1 = 0xA0;
  6902   001E92  0EA0               	movlw	160
  6903   001E94  6EAF               	movwf	175,c	;volatile
  6904                           
  6905                           ;mcc_generated_files/uart/src/eusart1.c: 107:     SPBRGH1 = 0x1;
  6906   001E96  0E01               	movlw	1
  6907   001E98  6EB0               	movwf	176,c	;volatile
  6908   001E9A                     
  6909                           ;mcc_generated_files/uart/src/eusart1.c: 109:     EUSART1_FramingErrorCallbackRegister(E
      +                          USART1_DefaultFramingErrorCallback);
  6910   001E9A  0E02               	movlw	low _EUSART1_DefaultFramingErrorCallback
  6911   001E9C  6E01               	movwf	EUSART1_FramingErrorCallbackRegister@callbackHandler^0,c
  6912   001E9E  0E23               	movlw	high _EUSART1_DefaultFramingErrorCallback
  6913   001EA0  6E02               	movwf	(EUSART1_FramingErrorCallbackRegister@callbackHandler+1)^0,c
  6914   001EA2  ECC0  F010         	call	_EUSART1_FramingErrorCallbackRegister	;wreg free
  6915   001EA6                     
  6916                           ;mcc_generated_files/uart/src/eusart1.c: 110:     EUSART1_OverrunErrorCallbackRegister(E
      +                          USART1_DefaultOverrunErrorCallback);
  6917   001EA6  0EF2               	movlw	low _EUSART1_DefaultOverrunErrorCallback
  6918   001EA8  6E01               	movwf	EUSART1_OverrunErrorCallbackRegister@callbackHandler^0,c
  6919   001EAA  0E22               	movlw	high _EUSART1_DefaultOverrunErrorCallback
  6920   001EAC  6E02               	movwf	(EUSART1_OverrunErrorCallbackRegister@callbackHandler+1)^0,c
  6921   001EAE  ECB2  F010         	call	_EUSART1_OverrunErrorCallbackRegister	;wreg free
  6922                           
  6923                           ;mcc_generated_files/uart/src/eusart1.c: 111:     eusart1RxLastError.status = 0;
  6924   001EB2  0E00               	movlw	0
  6925   001EB4  0100               	movlb	0	; () banked
  6926   001EB6  6F74               	movwf	(_eusart1RxLastError+1)& (0+255),b	;volatile
  6927   001EB8  0E00               	movlw	0
  6928   001EBA  6F73               	movwf	_eusart1RxLastError& (0+255),b	;volatile
  6929   001EBC                     
  6930                           ; BSR set to: 0
  6931   001EBC  0012               	return		;funcret
  6932   001EBE                     __end_of_EUSART1_Initialize:
  6933                           	callstack 0
  6934                           
  6935 ;; *************** function _EUSART2_Initialize *****************
  6936 ;; Defined at:
  6937 ;;		line 94 in file "mcc_generated_files/uart/src/eusart2.c"
  6938 ;; Parameters:    Size  Location     Type
  6939 ;;		None
  6940 ;; Auto vars:     Size  Location     Type
  6941 ;;		None
  6942 ;; Return value:  Size  Location     Type
  6943 ;;                  1    wreg      void 
  6944 ;; Registers used:
  6945 ;;		wreg, status,2, status,0, cstack
  6946 ;; Tracked objects:
  6947 ;;		On entry : 0/0
  6948 ;;		On exit  : 0/0
  6949 ;;		Unchanged: 0/0
  6950 ;; Data sizes:     COMRAM   BANK0   BANK1   BANK2   BANK3   BANK4   BANK5
  6951 ;;      Params:         0       0       0       0       0       0       0
  6952 ;;      Locals:         0       0       0       0       0       0       0
  6953 ;;      Temps:          0       0       0       0       0       0       0
  6954 ;;      Totals:         0       0       0       0       0       0       0
  6955 ;;Total ram usage:        0 bytes
  6956 ;; Hardware stack levels used: 1
  6957 ;; Hardware stack levels required when called: 1
  6958 ;; This function calls:
  6959 ;;		_EUSART2_FramingErrorCallbackRegister
  6960 ;;		_EUSART2_OverrunErrorCallbackRegister
  6961 ;; This function is called by:
  6962 ;;		_SYSTEM_Initialize
  6963 ;;		_DataReceive
  6964 ;; This function uses a non-reentrant model
  6965 ;;
  6966                           
  6967                           	psect	text51
  6968   001EBE                     __ptext51:
  6969                           	callstack 0
  6970   001EBE                     _EUSART2_Initialize:
  6971                           	callstack 28
  6972   001EBE                     
  6973                           ;mcc_generated_files/uart/src/eusart2.c: 99:     BAUDCON2 = 0x48;
  6974   001EBE  0E48               	movlw	72
  6975   001EC0  6E70               	movwf	112,c	;volatile
  6976                           
  6977                           ;mcc_generated_files/uart/src/eusart2.c: 101:     RCSTA2 = 0x90;
  6978   001EC2  0E90               	movlw	144
  6979   001EC4  6E71               	movwf	113,c	;volatile
  6980                           
  6981                           ;mcc_generated_files/uart/src/eusart2.c: 103:     TXSTA2 = 0x26;
  6982   001EC6  0E26               	movlw	38
  6983   001EC8  6E72               	movwf	114,c	;volatile
  6984                           
  6985                           ;mcc_generated_files/uart/src/eusart2.c: 105:     SPBRG2 = 0x67;
  6986   001ECA  0E67               	movlw	103
  6987   001ECC  6E75               	movwf	117,c	;volatile
  6988                           
  6989                           ;mcc_generated_files/uart/src/eusart2.c: 107:     SPBRGH2 = 0x0;
  6990   001ECE  0E00               	movlw	0
  6991   001ED0  6E76               	movwf	118,c	;volatile
  6992   001ED2                     
  6993                           ;mcc_generated_files/uart/src/eusart2.c: 109:     EUSART2_FramingErrorCallbackRegister(E
      +                          USART2_DefaultFramingErrorCallback);
  6994   001ED2  0E04               	movlw	low _EUSART2_DefaultFramingErrorCallback
  6995   001ED4  6E01               	movwf	EUSART2_FramingErrorCallbackRegister@callbackHandler^0,c
  6996   001ED6  0E23               	movlw	high _EUSART2_DefaultFramingErrorCallback
  6997   001ED8  6E02               	movwf	(EUSART2_FramingErrorCallbackRegister@callbackHandler+1)^0,c
  6998   001EDA  ECA4  F010         	call	_EUSART2_FramingErrorCallbackRegister	;wreg free
  6999   001EDE                     
  7000                           ;mcc_generated_files/uart/src/eusart2.c: 110:     EUSART2_OverrunErrorCallbackRegister(E
      +                          USART2_DefaultOverrunErrorCallback);
  7001   001EDE  0EF8               	movlw	low _EUSART2_DefaultOverrunErrorCallback
  7002   001EE0  6E01               	movwf	EUSART2_OverrunErrorCallbackRegister@callbackHandler^0,c
  7003   001EE2  0E22               	movlw	high _EUSART2_DefaultOverrunErrorCallback
  7004   001EE4  6E02               	movwf	(EUSART2_OverrunErrorCallbackRegister@callbackHandler+1)^0,c
  7005   001EE6  EC96  F010         	call	_EUSART2_OverrunErrorCallbackRegister	;wreg free
  7006                           
  7007                           ;mcc_generated_files/uart/src/eusart2.c: 111:     eusart2RxLastError.status = 0;
  7008   001EEA  0E00               	movlw	0
  7009   001EEC  0100               	movlb	0	; () banked
  7010   001EEE  6F6E               	movwf	(_eusart2RxLastError+1)& (0+255),b	;volatile
  7011   001EF0  0E00               	movlw	0
  7012   001EF2  6F6D               	movwf	_eusart2RxLastError& (0+255),b	;volatile
  7013   001EF4                     
  7014                           ; BSR set to: 0
  7015   001EF4  0012               	return		;funcret
  7016   001EF6                     __end_of_EUSART2_Initialize:
  7017                           	callstack 0
  7018                           
  7019 ;; *************** function _EUSART2_OverrunErrorCallbackRegister *****************
  7020 ;; Defined at:
  7021 ;;		line 272 in file "mcc_generated_files/uart/src/eusart2.c"
  7022 ;; Parameters:    Size  Location     Type
  7023 ;;  callbackHand    2    0[COMRAM] PTR FTN()void 
  7024 ;;		 -> EUSART2_DefaultOverrunErrorCallback(1), EUSART1_DefaultOverrunErrorCallback(1), 
  7025 ;; Auto vars:     Size  Location     Type
  7026 ;;		None
  7027 ;; Return value:  Size  Location     Type
  7028 ;;                  1    wreg      void 
  7029 ;; Registers used:
  7030 ;;		wreg, status,2, status,0
  7031 ;; Tracked objects:
  7032 ;;		On entry : 0/0
  7033 ;;		On exit  : 0/0
  7034 ;;		Unchanged: 0/0
  7035 ;; Data sizes:     COMRAM   BANK0   BANK1   BANK2   BANK3   BANK4   BANK5
  7036 ;;      Params:         2       0       0       0       0       0       0
  7037 ;;      Locals:         0       0       0       0       0       0       0
  7038 ;;      Temps:          0       0       0       0       0       0       0
  7039 ;;      Totals:         2       0       0       0       0       0       0
  7040 ;;Total ram usage:        2 bytes
  7041 ;; Hardware stack levels used: 1
  7042 ;; This function calls:
  7043 ;;		Nothing
  7044 ;; This function is called by:
  7045 ;;		_EUSART2_Initialize
  7046 ;; This function uses a non-reentrant model
  7047 ;;
  7048                           
  7049                           	psect	text52
  7050   00212C                     __ptext52:
  7051                           	callstack 0
  7052   00212C                     _EUSART2_OverrunErrorCallbackRegister:
  7053                           	callstack 28
  7054   00212C                     
  7055                           ;mcc_generated_files/uart/src/eusart2.c: 272: void EUSART2_OverrunErrorCallbackRegister(
      +                          void (* callbackHandler)(void));mcc_generated_files/uart/src/eusart2.c: 273: {;mcc_gener
      +                          ated_files/uart/src/eusart2.c: 274:     if(((void*)0) != callbackHandler)
  7056   00212C  5001               	movf	EUSART2_OverrunErrorCallbackRegister@callbackHandler^0,w,c
  7057   00212E  1002               	iorwf	(EUSART2_OverrunErrorCallbackRegister@callbackHandler+1)^0,w,c
  7058   002130  B4D8               	btfsc	status,2,c
  7059   002132  EF9D  F010         	goto	u3651
  7060   002136  EF9F  F010         	goto	u3650
  7061   00213A                     u3651:
  7062   00213A  EFA3  F010         	goto	l996
  7063   00213E                     u3650:
  7064   00213E                     
  7065                           ;mcc_generated_files/uart/src/eusart2.c: 275:     {;mcc_generated_files/uart/src/eusart2
      +                          .c: 276:         EUSART2_OverrunErrorHandler = callbackHandler;
  7066   00213E  C001  F069         	movff	EUSART2_OverrunErrorCallbackRegister@callbackHandler,_EUSART2_OverrunErrorHandler
  7067   002142  C002  F06A         	movff	EUSART2_OverrunErrorCallbackRegister@callbackHandler+1,_EUSART2_OverrunErrorHandl
      +                          er+1
  7068   002146                     l996:
  7069   002146  0012               	return		;funcret
  7070   002148                     __end_of_EUSART2_OverrunErrorCallbackRegister:
  7071                           	callstack 0
  7072                           
  7073 ;; *************** function _EUSART2_FramingErrorCallbackRegister *****************
  7074 ;; Defined at:
  7075 ;;		line 264 in file "mcc_generated_files/uart/src/eusart2.c"
  7076 ;; Parameters:    Size  Location     Type
  7077 ;;  callbackHand    2    0[COMRAM] PTR FTN()void 
  7078 ;;		 -> EUSART2_DefaultFramingErrorCallback(1), EUSART1_DefaultFramingErrorCallback(1), 
  7079 ;; Auto vars:     Size  Location     Type
  7080 ;;		None
  7081 ;; Return value:  Size  Location     Type
  7082 ;;                  1    wreg      void 
  7083 ;; Registers used:
  7084 ;;		wreg, status,2, status,0
  7085 ;; Tracked objects:
  7086 ;;		On entry : 0/0
  7087 ;;		On exit  : 0/0
  7088 ;;		Unchanged: 0/0
  7089 ;; Data sizes:     COMRAM   BANK0   BANK1   BANK2   BANK3   BANK4   BANK5
  7090 ;;      Params:         2       0       0       0       0       0       0
  7091 ;;      Locals:         0       0       0       0       0       0       0
  7092 ;;      Temps:          0       0       0       0       0       0       0
  7093 ;;      Totals:         2       0       0       0       0       0       0
  7094 ;;Total ram usage:        2 bytes
  7095 ;; Hardware stack levels used: 1
  7096 ;; This function calls:
  7097 ;;		Nothing
  7098 ;; This function is called by:
  7099 ;;		_EUSART2_Initialize
  7100 ;; This function uses a non-reentrant model
  7101 ;;
  7102                           
  7103                           	psect	text53
  7104   002148                     __ptext53:
  7105                           	callstack 0
  7106   002148                     _EUSART2_FramingErrorCallbackRegister:
  7107                           	callstack 28
  7108   002148                     
  7109                           ;mcc_generated_files/uart/src/eusart2.c: 264: void EUSART2_FramingErrorCallbackRegister(
      +                          void (* callbackHandler)(void));mcc_generated_files/uart/src/eusart2.c: 265: {;mcc_gener
      +                          ated_files/uart/src/eusart2.c: 266:     if(((void*)0) != callbackHandler)
  7110   002148  5001               	movf	EUSART2_FramingErrorCallbackRegister@callbackHandler^0,w,c
  7111   00214A  1002               	iorwf	(EUSART2_FramingErrorCallbackRegister@callbackHandler+1)^0,w,c
  7112   00214C  B4D8               	btfsc	status,2,c
  7113   00214E  EFAB  F010         	goto	u3641
  7114   002152  EFAD  F010         	goto	u3640
  7115   002156                     u3641:
  7116   002156  EFB1  F010         	goto	l992
  7117   00215A                     u3640:
  7118   00215A                     
  7119                           ;mcc_generated_files/uart/src/eusart2.c: 267:     {;mcc_generated_files/uart/src/eusart2
      +                          .c: 268:         EUSART2_FramingErrorHandler = callbackHandler;
  7120   00215A  C001  F06B         	movff	EUSART2_FramingErrorCallbackRegister@callbackHandler,_EUSART2_FramingErrorHandler
  7121   00215E  C002  F06C         	movff	EUSART2_FramingErrorCallbackRegister@callbackHandler+1,_EUSART2_FramingErrorHandl
      +                          er+1
  7122   002162                     l992:
  7123   002162  0012               	return		;funcret
  7124   002164                     __end_of_EUSART2_FramingErrorCallbackRegister:
  7125                           	callstack 0
  7126                           
  7127 ;; *************** function _EUSART1_Deinitialize *****************
  7128 ;; Defined at:
  7129 ;;		line 115 in file "mcc_generated_files/uart/src/eusart1.c"
  7130 ;; Parameters:    Size  Location     Type
  7131 ;;		None
  7132 ;; Auto vars:     Size  Location     Type
  7133 ;;		None
  7134 ;; Return value:  Size  Location     Type
  7135 ;;                  1    wreg      void 
  7136 ;; Registers used:
  7137 ;;		wreg, status,2
  7138 ;; Tracked objects:
  7139 ;;		On entry : 0/0
  7140 ;;		On exit  : 0/0
  7141 ;;		Unchanged: 0/0
  7142 ;; Data sizes:     COMRAM   BANK0   BANK1   BANK2   BANK3   BANK4   BANK5
  7143 ;;      Params:         0       0       0       0       0       0       0
  7144 ;;      Locals:         0       0       0       0       0       0       0
  7145 ;;      Temps:          0       0       0       0       0       0       0
  7146 ;;      Totals:         0       0       0       0       0       0       0
  7147 ;;Total ram usage:        0 bytes
  7148 ;; Hardware stack levels used: 1
  7149 ;; This function calls:
  7150 ;;		Nothing
  7151 ;; This function is called by:
  7152 ;;		_DataReceive
  7153 ;; This function uses a non-reentrant model
  7154 ;;
  7155                           
  7156                           	psect	text54
  7157   0021E8                     __ptext54:
  7158                           	callstack 0
  7159   0021E8                     _EUSART1_Deinitialize:
  7160                           	callstack 26
  7161   0021E8                     
  7162                           ;mcc_generated_files/uart/src/eusart1.c: 117:     BAUDCON1 = 0x00;
  7163   0021E8  0E00               	movlw	0
  7164   0021EA  6EB8               	movwf	184,c	;volatile
  7165                           
  7166                           ;mcc_generated_files/uart/src/eusart1.c: 118:     RCSTA1 = 0x00;
  7167   0021EC  0E00               	movlw	0
  7168   0021EE  6EAB               	movwf	171,c	;volatile
  7169                           
  7170                           ;mcc_generated_files/uart/src/eusart1.c: 119:     TXSTA1 = 0x00;
  7171   0021F0  0E00               	movlw	0
  7172   0021F2  6EAC               	movwf	172,c	;volatile
  7173                           
  7174                           ;mcc_generated_files/uart/src/eusart1.c: 120:     SPBRG1 = 0x00;
  7175   0021F4  0E00               	movlw	0
  7176   0021F6  6EAF               	movwf	175,c	;volatile
  7177                           
  7178                           ;mcc_generated_files/uart/src/eusart1.c: 121:     SPBRGH1 = 0x00;
  7179   0021F8  0E00               	movlw	0
  7180   0021FA  6EB0               	movwf	176,c	;volatile
  7181   0021FC  0012               	return		;funcret
  7182   0021FE                     __end_of_EUSART1_Deinitialize:
  7183                           	callstack 0
  7184                           
  7185 ;; *************** function _EUSART2_Deinitialize *****************
  7186 ;; Defined at:
  7187 ;;		line 115 in file "mcc_generated_files/uart/src/eusart2.c"
  7188 ;; Parameters:    Size  Location     Type
  7189 ;;		None
  7190 ;; Auto vars:     Size  Location     Type
  7191 ;;		None
  7192 ;; Return value:  Size  Location     Type
  7193 ;;                  1    wreg      void 
  7194 ;; Registers used:
  7195 ;;		wreg, status,2
  7196 ;; Tracked objects:
  7197 ;;		On entry : 0/0
  7198 ;;		On exit  : 0/0
  7199 ;;		Unchanged: 0/0
  7200 ;; Data sizes:     COMRAM   BANK0   BANK1   BANK2   BANK3   BANK4   BANK5
  7201 ;;      Params:         0       0       0       0       0       0       0
  7202 ;;      Locals:         0       0       0       0       0       0       0
  7203 ;;      Temps:          0       0       0       0       0       0       0
  7204 ;;      Totals:         0       0       0       0       0       0       0
  7205 ;;Total ram usage:        0 bytes
  7206 ;; Hardware stack levels used: 1
  7207 ;; This function calls:
  7208 ;;		Nothing
  7209 ;; This function is called by:
  7210 ;;		_DataReceive
  7211 ;; This function uses a non-reentrant model
  7212 ;;
  7213                           
  7214                           	psect	text55
  7215   0021FE                     __ptext55:
  7216                           	callstack 0
  7217   0021FE                     _EUSART2_Deinitialize:
  7218                           	callstack 26
  7219   0021FE                     
  7220                           ;mcc_generated_files/uart/src/eusart2.c: 117:     BAUDCON2 = 0x00;
  7221   0021FE  0E00               	movlw	0
  7222   002200  6E70               	movwf	112,c	;volatile
  7223                           
  7224                           ;mcc_generated_files/uart/src/eusart2.c: 118:     RCSTA2 = 0x00;
  7225   002202  0E00               	movlw	0
  7226   002204  6E71               	movwf	113,c	;volatile
  7227                           
  7228                           ;mcc_generated_files/uart/src/eusart2.c: 119:     TXSTA2 = 0x00;
  7229   002206  0E00               	movlw	0
  7230   002208  6E72               	movwf	114,c	;volatile
  7231                           
  7232                           ;mcc_generated_files/uart/src/eusart2.c: 120:     SPBRG2 = 0x00;
  7233   00220A  0E00               	movlw	0
  7234   00220C  6E75               	movwf	117,c	;volatile
  7235                           
  7236                           ;mcc_generated_files/uart/src/eusart2.c: 121:     SPBRGH2 = 0x00;
  7237   00220E  0E00               	movlw	0
  7238   002210  6E76               	movwf	118,c	;volatile
  7239   002212  0012               	return		;funcret
  7240   002214                     __end_of_EUSART2_Deinitialize:
  7241                           	callstack 0
  7242                           
  7243 ;; *************** function _EUSART1_DefaultOverrunErrorCallback *****************
  7244 ;; Defined at:
  7245 ;;		line 245 in file "mcc_generated_files/uart/src/eusart1.c"
  7246 ;; Parameters:    Size  Location     Type
  7247 ;;		None
  7248 ;; Auto vars:     Size  Location     Type
  7249 ;;		None
  7250 ;; Return value:  Size  Location     Type
  7251 ;;                  1    wreg      void 
  7252 ;; Registers used:
  7253 ;;		None
  7254 ;; Tracked objects:
  7255 ;;		On entry : 0/0
  7256 ;;		On exit  : 0/0
  7257 ;;		Unchanged: 0/0
  7258 ;; Data sizes:     COMRAM   BANK0   BANK1   BANK2   BANK3   BANK4   BANK5
  7259 ;;      Params:         0       0       0       0       0       0       0
  7260 ;;      Locals:         0       0       0       0       0       0       0
  7261 ;;      Temps:          0       0       0       0       0       0       0
  7262 ;;      Totals:         0       0       0       0       0       0       0
  7263 ;;Total ram usage:        0 bytes
  7264 ;; Hardware stack levels used: 1
  7265 ;; This function calls:
  7266 ;;		Nothing
  7267 ;; This function is called by:
  7268 ;;		_EUSART1_Initialize
  7269 ;;		_EUSART1_Read
  7270 ;;		_EUSART2_Read
  7271 ;; This function uses a non-reentrant model
  7272 ;;
  7273                           
  7274                           	psect	text56
  7275   0022F2                     __ptext56:
  7276                           	callstack 0
  7277   0022F2                     _EUSART1_DefaultOverrunErrorCallback:
  7278                           	callstack 25
  7279   0022F2                     
  7280                           ;mcc_generated_files/uart/src/eusart1.c: 248:     RCSTA1bits.CREN = 0;
  7281   0022F2  98AB               	bcf	171,4,c	;volatile
  7282                           
  7283                           ;mcc_generated_files/uart/src/eusart1.c: 249:     RCSTA1bits.CREN = 1;
  7284   0022F4  88AB               	bsf	171,4,c	;volatile
  7285   0022F6  0012               	return		;funcret
  7286   0022F8                     __end_of_EUSART1_DefaultOverrunErrorCallback:
  7287                           	callstack 0
  7288                           
  7289 ;; *************** function _EUSART2_DefaultOverrunErrorCallback *****************
  7290 ;; Defined at:
  7291 ;;		line 257 in file "mcc_generated_files/uart/src/eusart2.c"
  7292 ;; Parameters:    Size  Location     Type
  7293 ;;		None
  7294 ;; Auto vars:     Size  Location     Type
  7295 ;;		None
  7296 ;; Return value:  Size  Location     Type
  7297 ;;                  1    wreg      void 
  7298 ;; Registers used:
  7299 ;;		None
  7300 ;; Tracked objects:
  7301 ;;		On entry : 0/0
  7302 ;;		On exit  : 0/0
  7303 ;;		Unchanged: 0/0
  7304 ;; Data sizes:     COMRAM   BANK0   BANK1   BANK2   BANK3   BANK4   BANK5
  7305 ;;      Params:         0       0       0       0       0       0       0
  7306 ;;      Locals:         0       0       0       0       0       0       0
  7307 ;;      Temps:          0       0       0       0       0       0       0
  7308 ;;      Totals:         0       0       0       0       0       0       0
  7309 ;;Total ram usage:        0 bytes
  7310 ;; Hardware stack levels used: 1
  7311 ;; This function calls:
  7312 ;;		Nothing
  7313 ;; This function is called by:
  7314 ;;		_EUSART2_Initialize
  7315 ;;		_EUSART1_Read
  7316 ;;		_EUSART2_Read
  7317 ;; This function uses a non-reentrant model
  7318 ;;
  7319                           
  7320                           	psect	text57
  7321   0022F8                     __ptext57:
  7322                           	callstack 0
  7323   0022F8                     _EUSART2_DefaultOverrunErrorCallback:
  7324                           	callstack 25
  7325   0022F8                     
  7326                           ;mcc_generated_files/uart/src/eusart2.c: 260:     RCSTA2bits.CREN = 0;
  7327   0022F8  9871               	bcf	113,4,c	;volatile
  7328                           
  7329                           ;mcc_generated_files/uart/src/eusart2.c: 261:     RCSTA2bits.CREN = 1;
  7330   0022FA  8871               	bsf	113,4,c	;volatile
  7331   0022FC  0012               	return		;funcret
  7332   0022FE                     __end_of_EUSART2_DefaultOverrunErrorCallback:
  7333                           	callstack 0
  7334                           
  7335 ;; *************** function _EUSART1_DefaultFramingErrorCallback *****************
  7336 ;; Defined at:
  7337 ;;		line 240 in file "mcc_generated_files/uart/src/eusart1.c"
  7338 ;; Parameters:    Size  Location     Type
  7339 ;;		None
  7340 ;; Auto vars:     Size  Location     Type
  7341 ;;		None
  7342 ;; Return value:  Size  Location     Type
  7343 ;;                  1    wreg      void 
  7344 ;; Registers used:
  7345 ;;		None
  7346 ;; Tracked objects:
  7347 ;;		On entry : 0/0
  7348 ;;		On exit  : 0/0
  7349 ;;		Unchanged: 0/0
  7350 ;; Data sizes:     COMRAM   BANK0   BANK1   BANK2   BANK3   BANK4   BANK5
  7351 ;;      Params:         0       0       0       0       0       0       0
  7352 ;;      Locals:         0       0       0       0       0       0       0
  7353 ;;      Temps:          0       0       0       0       0       0       0
  7354 ;;      Totals:         0       0       0       0       0       0       0
  7355 ;;Total ram usage:        0 bytes
  7356 ;; Hardware stack levels used: 1
  7357 ;; This function calls:
  7358 ;;		Nothing
  7359 ;; This function is called by:
  7360 ;;		_EUSART1_Initialize
  7361 ;;		_EUSART1_Read
  7362 ;;		_EUSART2_Read
  7363 ;; This function uses a non-reentrant model
  7364 ;;
  7365                           
  7366                           	psect	text58
  7367   002302                     __ptext58:
  7368                           	callstack 0
  7369   002302                     _EUSART1_DefaultFramingErrorCallback:
  7370                           	callstack 25
  7371   002302  0012               	return		;funcret
  7372   002304                     __end_of_EUSART1_DefaultFramingErrorCallback:
  7373                           	callstack 0
  7374                           
  7375 ;; *************** function _EUSART2_DefaultFramingErrorCallback *****************
  7376 ;; Defined at:
  7377 ;;		line 252 in file "mcc_generated_files/uart/src/eusart2.c"
  7378 ;; Parameters:    Size  Location     Type
  7379 ;;		None
  7380 ;; Auto vars:     Size  Location     Type
  7381 ;;		None
  7382 ;; Return value:  Size  Location     Type
  7383 ;;                  1    wreg      void 
  7384 ;; Registers used:
  7385 ;;		None
  7386 ;; Tracked objects:
  7387 ;;		On entry : 0/0
  7388 ;;		On exit  : 0/0
  7389 ;;		Unchanged: 0/0
  7390 ;; Data sizes:     COMRAM   BANK0   BANK1   BANK2   BANK3   BANK4   BANK5
  7391 ;;      Params:         0       0       0       0       0       0       0
  7392 ;;      Locals:         0       0       0       0       0       0       0
  7393 ;;      Temps:          0       0       0       0       0       0       0
  7394 ;;      Totals:         0       0       0       0       0       0       0
  7395 ;;Total ram usage:        0 bytes
  7396 ;; Hardware stack levels used: 1
  7397 ;; This function calls:
  7398 ;;		Nothing
  7399 ;; This function is called by:
  7400 ;;		_EUSART2_Initialize
  7401 ;;		_EUSART1_Read
  7402 ;;		_EUSART2_Read
  7403 ;; This function uses a non-reentrant model
  7404 ;;
  7405                           
  7406                           	psect	text59
  7407   002304                     __ptext59:
  7408                           	callstack 0
  7409   002304                     _EUSART2_DefaultFramingErrorCallback:
  7410                           	callstack 25
  7411   002304  0012               	return		;funcret
  7412   002306                     __end_of_EUSART2_DefaultFramingErrorCallback:
  7413                           	callstack 0
  7414                           
  7415 ;; *************** function _EUSART1_OverrunErrorCallbackRegister *****************
  7416 ;; Defined at:
  7417 ;;		line 260 in file "mcc_generated_files/uart/src/eusart1.c"
  7418 ;; Parameters:    Size  Location     Type
  7419 ;;  callbackHand    2    0[COMRAM] PTR FTN()void 
  7420 ;;		 -> EUSART2_DefaultOverrunErrorCallback(1), EUSART1_DefaultOverrunErrorCallback(1), 
  7421 ;; Auto vars:     Size  Location     Type
  7422 ;;		None
  7423 ;; Return value:  Size  Location     Type
  7424 ;;                  1    wreg      void 
  7425 ;; Registers used:
  7426 ;;		wreg, status,2, status,0
  7427 ;; Tracked objects:
  7428 ;;		On entry : 0/0
  7429 ;;		On exit  : 0/0
  7430 ;;		Unchanged: 0/0
  7431 ;; Data sizes:     COMRAM   BANK0   BANK1   BANK2   BANK3   BANK4   BANK5
  7432 ;;      Params:         2       0       0       0       0       0       0
  7433 ;;      Locals:         0       0       0       0       0       0       0
  7434 ;;      Temps:          0       0       0       0       0       0       0
  7435 ;;      Totals:         2       0       0       0       0       0       0
  7436 ;;Total ram usage:        2 bytes
  7437 ;; Hardware stack levels used: 1
  7438 ;; This function calls:
  7439 ;;		Nothing
  7440 ;; This function is called by:
  7441 ;;		_EUSART1_Initialize
  7442 ;; This function uses a non-reentrant model
  7443 ;;
  7444                           
  7445                           	psect	text60
  7446   002164                     __ptext60:
  7447                           	callstack 0
  7448   002164                     _EUSART1_OverrunErrorCallbackRegister:
  7449                           	callstack 28
  7450   002164                     
  7451                           ;mcc_generated_files/uart/src/eusart1.c: 260: void EUSART1_OverrunErrorCallbackRegister(
      +                          void (* callbackHandler)(void));mcc_generated_files/uart/src/eusart1.c: 261: {;mcc_gener
      +                          ated_files/uart/src/eusart1.c: 262:     if(((void*)0) != callbackHandler)
  7452   002164  5001               	movf	EUSART1_OverrunErrorCallbackRegister@callbackHandler^0,w,c
  7453   002166  1002               	iorwf	(EUSART1_OverrunErrorCallbackRegister@callbackHandler+1)^0,w,c
  7454   002168  B4D8               	btfsc	status,2,c
  7455   00216A  EFB9  F010         	goto	u3631
  7456   00216E  EFBB  F010         	goto	u3630
  7457   002172                     u3631:
  7458   002172  EFBF  F010         	goto	l840
  7459   002176                     u3630:
  7460   002176                     
  7461                           ;mcc_generated_files/uart/src/eusart1.c: 263:     {;mcc_generated_files/uart/src/eusart1
      +                          .c: 264:         EUSART1_OverrunErrorHandler = callbackHandler;
  7462   002176  C001  F06F         	movff	EUSART1_OverrunErrorCallbackRegister@callbackHandler,_EUSART1_OverrunErrorHandler
  7463   00217A  C002  F070         	movff	EUSART1_OverrunErrorCallbackRegister@callbackHandler+1,_EUSART1_OverrunErrorHandl
      +                          er+1
  7464   00217E                     l840:
  7465   00217E  0012               	return		;funcret
  7466   002180                     __end_of_EUSART1_OverrunErrorCallbackRegister:
  7467                           	callstack 0
  7468                           
  7469 ;; *************** function _EUSART1_FramingErrorCallbackRegister *****************
  7470 ;; Defined at:
  7471 ;;		line 252 in file "mcc_generated_files/uart/src/eusart1.c"
  7472 ;; Parameters:    Size  Location     Type
  7473 ;;  callbackHand    2    0[COMRAM] PTR FTN()void 
  7474 ;;		 -> EUSART2_DefaultFramingErrorCallback(1), EUSART1_DefaultFramingErrorCallback(1), 
  7475 ;; Auto vars:     Size  Location     Type
  7476 ;;		None
  7477 ;; Return value:  Size  Location     Type
  7478 ;;                  1    wreg      void 
  7479 ;; Registers used:
  7480 ;;		wreg, status,2, status,0
  7481 ;; Tracked objects:
  7482 ;;		On entry : 0/0
  7483 ;;		On exit  : 0/0
  7484 ;;		Unchanged: 0/0
  7485 ;; Data sizes:     COMRAM   BANK0   BANK1   BANK2   BANK3   BANK4   BANK5
  7486 ;;      Params:         2       0       0       0       0       0       0
  7487 ;;      Locals:         0       0       0       0       0       0       0
  7488 ;;      Temps:          0       0       0       0       0       0       0
  7489 ;;      Totals:         2       0       0       0       0       0       0
  7490 ;;Total ram usage:        2 bytes
  7491 ;; Hardware stack levels used: 1
  7492 ;; This function calls:
  7493 ;;		Nothing
  7494 ;; This function is called by:
  7495 ;;		_EUSART1_Initialize
  7496 ;; This function uses a non-reentrant model
  7497 ;;
  7498                           
  7499                           	psect	text61
  7500   002180                     __ptext61:
  7501                           	callstack 0
  7502   002180                     _EUSART1_FramingErrorCallbackRegister:
  7503                           	callstack 28
  7504   002180                     
  7505                           ;mcc_generated_files/uart/src/eusart1.c: 252: void EUSART1_FramingErrorCallbackRegister(
      +                          void (* callbackHandler)(void));mcc_generated_files/uart/src/eusart1.c: 253: {;mcc_gener
      +                          ated_files/uart/src/eusart1.c: 254:     if(((void*)0) != callbackHandler)
  7506   002180  5001               	movf	EUSART1_FramingErrorCallbackRegister@callbackHandler^0,w,c
  7507   002182  1002               	iorwf	(EUSART1_FramingErrorCallbackRegister@callbackHandler+1)^0,w,c
  7508   002184  B4D8               	btfsc	status,2,c
  7509   002186  EFC7  F010         	goto	u3621
  7510   00218A  EFC9  F010         	goto	u3620
  7511   00218E                     u3621:
  7512   00218E  EFCD  F010         	goto	l836
  7513   002192                     u3620:
  7514   002192                     
  7515                           ;mcc_generated_files/uart/src/eusart1.c: 255:     {;mcc_generated_files/uart/src/eusart1
      +                          .c: 256:         EUSART1_FramingErrorHandler = callbackHandler;
  7516   002192  C001  F071         	movff	EUSART1_FramingErrorCallbackRegister@callbackHandler,_EUSART1_FramingErrorHandler
  7517   002196  C002  F072         	movff	EUSART1_FramingErrorCallbackRegister@callbackHandler+1,_EUSART1_FramingErrorHandl
      +                          er+1
  7518   00219A                     l836:
  7519   00219A  0012               	return		;funcret
  7520   00219C                     __end_of_EUSART1_FramingErrorCallbackRegister:
  7521                           	callstack 0
  7522                           
  7523 ;; *************** function _COM_FrameSet *****************
  7524 ;; Defined at:
  7525 ;;		line 278 in file "mcc_generated_files/bootloader/library/com_adapter/com_adapter.c"
  7526 ;; Parameters:    Size  Location     Type
  7527 ;;  responseBuff    2    8[COMRAM] PTR unsigned char 
  7528 ;;		 -> FTP_RESPONSE_BUFFER(19), FTP_RECEIVE_BUFFER(74), FTP_RETRY_BUFFER(19), 
  7529 ;;  responseLeng    2   10[COMRAM] unsigned short 
  7530 ;; Auto vars:     Size  Location     Type
  7531 ;;  sentByteCoun    2   16[COMRAM] unsigned short 
  7532 ;;  nextByte        1   19[COMRAM] unsigned char 
  7533 ;;  frameCheck      2   14[COMRAM] unsigned short 
  7534 ;;  processResul    1   18[COMRAM] enum E6610
  7535 ;; Return value:  Size  Location     Type
  7536 ;;                  1    wreg      enum E6610
  7537 ;; Registers used:
  7538 ;;		wreg, fsr2l, fsr2h, status,2, status,0, pcl, pclath, pclatu, tosl, tblptrl, tblptrh, tblptru, cstack
  7539 ;; Tracked objects:
  7540 ;;		On entry : 0/0
  7541 ;;		On exit  : 0/0
  7542 ;;		Unchanged: 0/0
  7543 ;; Data sizes:     COMRAM   BANK0   BANK1   BANK2   BANK3   BANK4   BANK5
  7544 ;;      Params:         4       0       0       0       0       0       0
  7545 ;;      Locals:         6       0       0       0       0       0       0
  7546 ;;      Temps:          2       0       0       0       0       0       0
  7547 ;;      Totals:        12       0       0       0       0       0       0
  7548 ;;Total ram usage:       12 bytes
  7549 ;; Hardware stack levels used: 1
  7550 ;; Hardware stack levels required when called: 2
  7551 ;; This function calls:
  7552 ;;		_DataSend
  7553 ;;		_FrameCheckCalculate
  7554 ;; This function is called by:
  7555 ;;		_FTP_Task
  7556 ;; This function uses a non-reentrant model
  7557 ;;
  7558                           
  7559                           	psect	text62
  7560   000F24                     __ptext62:
  7561                           	callstack 0
  7562   000F24                     _COM_FrameSet:
  7563                           	callstack 26
  7564   000F24                     
  7565                           ;mcc_generated_files/bootloader/library/com_adapter/com_adapter.c: 282:     if((response
      +                          BufferPtr == ((void*)0)) || (responseLength == 0U))
  7566   000F24  5009               	movf	COM_FrameSet@responseBufferPtr^0,w,c
  7567   000F26  100A               	iorwf	(COM_FrameSet@responseBufferPtr+1)^0,w,c
  7568   000F28  B4D8               	btfsc	status,2,c
  7569   000F2A  EF99  F007         	goto	u4391
  7570   000F2E  EF9B  F007         	goto	u4390
  7571   000F32                     u4391:
  7572   000F32  EFA4  F007         	goto	l5297
  7573   000F36                     u4390:
  7574   000F36  500B               	movf	COM_FrameSet@responseLength^0,w,c
  7575   000F38  100C               	iorwf	(COM_FrameSet@responseLength+1)^0,w,c
  7576   000F3A  A4D8               	btfss	status,2,c
  7577   000F3C  EFA2  F007         	goto	u4401
  7578   000F40  EFA4  F007         	goto	u4400
  7579   000F44                     u4401:
  7580   000F44  EFA8  F007         	goto	l5299
  7581   000F48                     u4400:
  7582   000F48                     l5297:
  7583                           
  7584                           ;mcc_generated_files/bootloader/library/com_adapter/com_adapter.c: 283:     {;mcc_genera
      +                          ted_files/bootloader/library/com_adapter/com_adapter.c: 284:         processResult = COM
      +                          _INVALID_ARG;
  7585   000F48  0E96               	movlw	150
  7586   000F4A  6E13               	movwf	COM_FrameSet@processResult^0,c
  7587                           
  7588                           ;mcc_generated_files/bootloader/library/com_adapter/com_adapter.c: 285:     }
  7589   000F4C  EF44  F008         	goto	l5339
  7590   000F50                     l5299:
  7591                           
  7592                           ;mcc_generated_files/bootloader/library/com_adapter/com_adapter.c: 287:     {;mcc_genera
      +                          ted_files/bootloader/library/com_adapter/com_adapter.c: 289:         uint16_t frameCheck
      +                           = FrameCheckCalculate(responseBufferPtr, responseLength);
  7593   000F50  C009  F001         	movff	COM_FrameSet@responseBufferPtr,FrameCheckCalculate@ftpData
  7594   000F54  C00A  F002         	movff	COM_FrameSet@responseBufferPtr+1,FrameCheckCalculate@ftpData+1
  7595   000F58  C00B  F003         	movff	COM_FrameSet@responseLength,FrameCheckCalculate@bufferLength
  7596   000F5C  EC95  F00F         	call	_FrameCheckCalculate	;wreg free
  7597   000F60  6E0D               	movwf	??_COM_FrameSet^0,c
  7598   000F62  500D               	movf	??_COM_FrameSet^0,w,c
  7599   000F64  6E0F               	movwf	COM_FrameSet@frameCheck^0,c
  7600   000F66  6A10               	clrf	(COM_FrameSet@frameCheck+1)^0,c
  7601   000F68                     
  7602                           ;mcc_generated_files/bootloader/library/com_adapter/com_adapter.c: 291:         processR
      +                          esult = DataSend(&(ftpSpecialCharacters.StartOfPacketCharacter), 1U);
  7603   000F68  0EE0               	movlw	low (_ftpSpecialCharacters+1)
  7604   000F6A  6E03               	movwf	DataSend@data^0,c
  7605   000F6C  0E00               	movlw	0
  7606   000F6E  6E05               	movwf	(DataSend@length+1)^0,c
  7607   000F70  0E01               	movlw	1
  7608   000F72  6E04               	movwf	DataSend@length^0,c
  7609   000F74  EC3F  F00A         	call	_DataSend	;wreg free
  7610   000F78  6E13               	movwf	COM_FrameSet@processResult^0,c
  7611   000F7A                     
  7612                           ;mcc_generated_files/bootloader/library/com_adapter/com_adapter.c: 293:         if(proce
      +                          ssResult == COM_PASS)
  7613   000F7A  0EE7               	movlw	231
  7614   000F7C  1813               	xorwf	COM_FrameSet@processResult^0,w,c
  7615   000F7E  A4D8               	btfss	status,2,c
  7616   000F80  EFC4  F007         	goto	u4411
  7617   000F84  EFC6  F007         	goto	u4410
  7618   000F88                     u4411:
  7619   000F88  EF44  F008         	goto	l5339
  7620   000F8C                     u4410:
  7621   000F8C                     
  7622                           ;mcc_generated_files/bootloader/library/com_adapter/com_adapter.c: 294:         {;mcc_ge
      +                          nerated_files/bootloader/library/com_adapter/com_adapter.c: 295:             uint8_t nex
      +                          tByte;;mcc_generated_files/bootloader/library/com_adapter/com_adapter.c: 296:           
      +                            uint16_t sentByteCount = 0x00U;
  7623   000F8C  0E00               	movlw	0
  7624   000F8E  6E12               	movwf	(COM_FrameSet@sentByteCount+1)^0,c
  7625   000F90  0E00               	movlw	0
  7626   000F92  6E11               	movwf	COM_FrameSet@sentByteCount^0,c
  7627                           
  7628                           ;mcc_generated_files/bootloader/library/com_adapter/com_adapter.c: 298:             whil
      +                          e (sentByteCount < (responseLength + (1U)))
  7629   000F94  EF2A  F008         	goto	l5335
  7630   000F98                     l5307:
  7631                           
  7632                           ;mcc_generated_files/bootloader/library/com_adapter/com_adapter.c: 299:             {;mc
      +                          c_generated_files/bootloader/library/com_adapter/com_adapter.c: 300:                 if(
      +                          sentByteCount == responseLength)
  7633   000F98  500B               	movf	COM_FrameSet@responseLength^0,w,c
  7634   000F9A  1811               	xorwf	COM_FrameSet@sentByteCount^0,w,c
  7635   000F9C  E107               	bnz	u4421
  7636   000F9E  500C               	movf	(COM_FrameSet@responseLength+1)^0,w,c
  7637   000FA0  1812               	xorwf	(COM_FrameSet@sentByteCount+1)^0,w,c
  7638   000FA2  A4D8               	btfss	status,2,c
  7639   000FA4  EFD6  F007         	goto	u4421
  7640   000FA8  EFD8  F007         	goto	u4420
  7641   000FAC                     u4421:
  7642   000FAC  EFDC  F007         	goto	l5311
  7643   000FB0                     u4420:
  7644   000FB0                     
  7645                           ;mcc_generated_files/bootloader/library/com_adapter/com_adapter.c: 301:                 
      +                          {;mcc_generated_files/bootloader/library/com_adapter/com_adapter.c: 304:                
      +                               nextByte = frameCheck;
  7646   000FB0  C00F  F014         	movff	COM_FrameSet@frameCheck,COM_FrameSet@nextByte
  7647                           
  7648                           ;mcc_generated_files/bootloader/library/com_adapter/com_adapter.c: 305:                 
      +                          }
  7649   000FB4  EFE4  F007         	goto	l5313
  7650   000FB8                     l5311:
  7651                           
  7652                           ;mcc_generated_files/bootloader/library/com_adapter/com_adapter.c: 312:                 
      +                          {;mcc_generated_files/bootloader/library/com_adapter/com_adapter.c: 313:                
      +                               nextByte = responseBufferPtr[sentByteCount];
  7653   000FB8  5011               	movf	COM_FrameSet@sentByteCount^0,w,c
  7654   000FBA  2409               	addwf	COM_FrameSet@responseBufferPtr^0,w,c
  7655   000FBC  6ED9               	movwf	fsr2l,c
  7656   000FBE  5012               	movf	(COM_FrameSet@sentByteCount+1)^0,w,c
  7657   000FC0  200A               	addwfc	(COM_FrameSet@responseBufferPtr+1)^0,w,c
  7658   000FC2  6EDA               	movwf	fsr2h,c
  7659   000FC4  50DF               	movf	indf2,w,c
  7660   000FC6  6E14               	movwf	COM_FrameSet@nextByte^0,c
  7661   000FC8                     l5313:
  7662                           
  7663                           ;mcc_generated_files/bootloader/library/com_adapter/com_adapter.c: 316:                 
      +                          if ((nextByte == (0x56U)) || (nextByte == (0x9EU)) || (nextByte == (0xCCU)))
  7664   000FC8  0E56               	movlw	86
  7665   000FCA  1814               	xorwf	COM_FrameSet@nextByte^0,w,c
  7666   000FCC  B4D8               	btfsc	status,2,c
  7667   000FCE  EFEB  F007         	goto	u4431
  7668   000FD2  EFED  F007         	goto	u4430
  7669   000FD6                     u4431:
  7670   000FD6  EFFF  F007         	goto	l5319
  7671   000FDA                     u4430:
  7672   000FDA  0E9E               	movlw	158
  7673   000FDC  1814               	xorwf	COM_FrameSet@nextByte^0,w,c
  7674   000FDE  B4D8               	btfsc	status,2,c
  7675   000FE0  EFF4  F007         	goto	u4441
  7676   000FE4  EFF6  F007         	goto	u4440
  7677   000FE8                     u4441:
  7678   000FE8  EFFF  F007         	goto	l5319
  7679   000FEC                     u4440:
  7680   000FEC  0ECC               	movlw	204
  7681   000FEE  1814               	xorwf	COM_FrameSet@nextByte^0,w,c
  7682   000FF0  A4D8               	btfss	status,2,c
  7683   000FF2  EFFD  F007         	goto	u4451
  7684   000FF6  EFFF  F007         	goto	u4450
  7685   000FFA                     u4451:
  7686   000FFA  EF14  F008         	goto	l5327
  7687   000FFE                     u4450:
  7688   000FFE                     l5319:
  7689                           
  7690                           ;mcc_generated_files/bootloader/library/com_adapter/com_adapter.c: 317:                 
      +                          {;mcc_generated_files/bootloader/library/com_adapter/com_adapter.c: 318:                
      +                               processResult = DataSend(&(ftpSpecialCharacters.EscapeCharacter), 1U);
  7691   000FFE  0EDF               	movlw	low _ftpSpecialCharacters
  7692   001000  6E03               	movwf	DataSend@data^0,c
  7693   001002  0E00               	movlw	0
  7694   001004  6E05               	movwf	(DataSend@length+1)^0,c
  7695   001006  0E01               	movlw	1
  7696   001008  6E04               	movwf	DataSend@length^0,c
  7697   00100A  EC3F  F00A         	call	_DataSend	;wreg free
  7698   00100E  6E13               	movwf	COM_FrameSet@processResult^0,c
  7699   001010                     
  7700                           ;mcc_generated_files/bootloader/library/com_adapter/com_adapter.c: 319:                 
      +                              if (processResult != COM_PASS)
  7701   001010  0EE7               	movlw	231
  7702   001012  1813               	xorwf	COM_FrameSet@processResult^0,w,c
  7703   001014  B4D8               	btfsc	status,2,c
  7704   001016  EF0F  F008         	goto	u4461
  7705   00101A  EF11  F008         	goto	u4460
  7706   00101E                     u4461:
  7707   00101E  EF13  F008         	goto	l5325
  7708   001022                     u4460:
  7709   001022  EF3B  F008         	goto	l5337
  7710   001026                     l5325:
  7711                           
  7712                           ;mcc_generated_files/bootloader/library/com_adapter/com_adapter.c: 324:                 
      +                              nextByte = ~nextByte;
  7713   001026  1E14               	comf	COM_FrameSet@nextByte^0,f,c
  7714   001028                     l5327:
  7715                           
  7716                           ;mcc_generated_files/bootloader/library/com_adapter/com_adapter.c: 327:                 
      +                          processResult = DataSend((uint8_t *) & nextByte, 1U);
  7717   001028  0E14               	movlw	low COM_FrameSet@nextByte
  7718   00102A  6E03               	movwf	DataSend@data^0,c
  7719   00102C  0E00               	movlw	0
  7720   00102E  6E05               	movwf	(DataSend@length+1)^0,c
  7721   001030  0E01               	movlw	1
  7722   001032  6E04               	movwf	DataSend@length^0,c
  7723   001034  EC3F  F00A         	call	_DataSend	;wreg free
  7724   001038  6E13               	movwf	COM_FrameSet@processResult^0,c
  7725   00103A                     
  7726                           ;mcc_generated_files/bootloader/library/com_adapter/com_adapter.c: 328:                 
      +                          if (processResult != COM_PASS)
  7727   00103A  0EE7               	movlw	231
  7728   00103C  1813               	xorwf	COM_FrameSet@processResult^0,w,c
  7729   00103E  B4D8               	btfsc	status,2,c
  7730   001040  EF24  F008         	goto	u4471
  7731   001044  EF26  F008         	goto	u4470
  7732   001048                     u4471:
  7733   001048  EF28  F008         	goto	l5333
  7734   00104C                     u4470:
  7735   00104C  EF3B  F008         	goto	l5337
  7736   001050                     l5333:
  7737                           
  7738                           ;mcc_generated_files/bootloader/library/com_adapter/com_adapter.c: 334:                 
      +                          sentByteCount++;
  7739   001050  4A11               	infsnz	COM_FrameSet@sentByteCount^0,f,c
  7740   001052  2A12               	incf	(COM_FrameSet@sentByteCount+1)^0,f,c
  7741   001054                     l5335:
  7742                           
  7743                           ;mcc_generated_files/bootloader/library/com_adapter/com_adapter.c: 298:             whil
      +                          e (sentByteCount < (responseLength + (1U)))
  7744   001054  0E01               	movlw	1
  7745   001056  240B               	addwf	COM_FrameSet@responseLength^0,w,c
  7746   001058  6E0D               	movwf	??_COM_FrameSet^0,c
  7747   00105A  0E00               	movlw	0
  7748   00105C  200C               	addwfc	(COM_FrameSet@responseLength+1)^0,w,c
  7749   00105E  6E0E               	movwf	(??_COM_FrameSet+1)^0,c
  7750   001060  500D               	movf	??_COM_FrameSet^0,w,c
  7751   001062  5C11               	subwf	COM_FrameSet@sentByteCount^0,w,c
  7752   001064  500E               	movf	(??_COM_FrameSet+1)^0,w,c
  7753   001066  5812               	subwfb	(COM_FrameSet@sentByteCount+1)^0,w,c
  7754   001068  A0D8               	btfss	status,0,c
  7755   00106A  EF39  F008         	goto	u4481
  7756   00106E  EF3B  F008         	goto	u4480
  7757   001072                     u4481:
  7758   001072  EFCC  F007         	goto	l5307
  7759   001076                     u4480:
  7760   001076                     l5337:
  7761                           
  7762                           ;mcc_generated_files/bootloader/library/com_adapter/com_adapter.c: 337:             proc
      +                          essResult = DataSend((uint8_t *)& (ftpSpecialCharacters.EndOfPacketCharacter), 1U);
  7763   001076  0EE1               	movlw	low (_ftpSpecialCharacters+2)
  7764   001078  6E03               	movwf	DataSend@data^0,c
  7765   00107A  0E00               	movlw	0
  7766   00107C  6E05               	movwf	(DataSend@length+1)^0,c
  7767   00107E  0E01               	movlw	1
  7768   001080  6E04               	movwf	DataSend@length^0,c
  7769   001082  EC3F  F00A         	call	_DataSend	;wreg free
  7770   001086  6E13               	movwf	COM_FrameSet@processResult^0,c
  7771   001088                     l5339:
  7772                           
  7773                           ;mcc_generated_files/bootloader/library/com_adapter/com_adapter.c: 345:     return proce
      +                          ssResult;
  7774   001088  5013               	movf	COM_FrameSet@processResult^0,w,c
  7775   00108A  0012               	return		;funcret
  7776   00108C                     __end_of_COM_FrameSet:
  7777                           	callstack 0
  7778                           
  7779 ;; *************** function _FrameCheckCalculate *****************
  7780 ;; Defined at:
  7781 ;;		line 76 in file "mcc_generated_files/bootloader/library/com_adapter/com_adapter.c"
  7782 ;; Parameters:    Size  Location     Type
  7783 ;;  ftpData         2    0[COMRAM] PTR unsigned char 
  7784 ;;		 -> FTP_RESPONSE_BUFFER(19), FTP_RECEIVE_BUFFER(74), FTP_RETRY_BUFFER(19), 
  7785 ;;  bufferLength    1    2[COMRAM] unsigned char 
  7786 ;; Auto vars:     Size  Location     Type
  7787 ;;  numBytesChec    1    4[COMRAM] unsigned char 
  7788 ;;  checksum        1    3[COMRAM] unsigned char 
  7789 ;; Return value:  Size  Location     Type
  7790 ;;                  1    wreg      unsigned char 
  7791 ;; Registers used:
  7792 ;;		wreg, fsr2l, fsr2h, status,2, status,0
  7793 ;; Tracked objects:
  7794 ;;		On entry : 0/0
  7795 ;;		On exit  : 0/0
  7796 ;;		Unchanged: 0/0
  7797 ;; Data sizes:     COMRAM   BANK0   BANK1   BANK2   BANK3   BANK4   BANK5
  7798 ;;      Params:         3       0       0       0       0       0       0
  7799 ;;      Locals:         2       0       0       0       0       0       0
  7800 ;;      Temps:          0       0       0       0       0       0       0
  7801 ;;      Totals:         5       0       0       0       0       0       0
  7802 ;;Total ram usage:        5 bytes
  7803 ;; Hardware stack levels used: 1
  7804 ;; This function calls:
  7805 ;;		Nothing
  7806 ;; This function is called by:
  7807 ;;		_COM_FrameTransfer
  7808 ;;		_COM_FrameSet
  7809 ;; This function uses a non-reentrant model
  7810 ;;
  7811                           
  7812                           	psect	text63
  7813   001F2A                     __ptext63:
  7814                           	callstack 0
  7815   001F2A                     _FrameCheckCalculate:
  7816                           	callstack 27
  7817   001F2A                     
  7818                           ;mcc_generated_files/bootloader/library/com_adapter/com_adapter.c: 76: static uint8_t Fr
      +                          ameCheckCalculate(uint8_t * ftpData, uint8_t bufferLength);mcc_generated_files/bootloade
      +                          r/library/com_adapter/com_adapter.c: 77: {;mcc_generated_files/bootloader/library/com_ad
      +                          apter/com_adapter.c: 78:     uint8_t numBytesChecksummed = 0;
  7819   001F2A  0E00               	movlw	0
  7820   001F2C  6E05               	movwf	FrameCheckCalculate@numBytesChecksummed^0,c
  7821                           
  7822                           ;mcc_generated_files/bootloader/library/com_adapter/com_adapter.c: 79:     uint8_t check
      +                          sum = 0;
  7823   001F2E  0E00               	movlw	0
  7824   001F30  6E04               	movwf	FrameCheckCalculate@checksum^0,c
  7825                           
  7826                           ;mcc_generated_files/bootloader/library/com_adapter/com_adapter.c: 80:     while (numByt
      +                          esChecksummed < (bufferLength))
  7827   001F32  EFA4  F00F         	goto	l5075
  7828   001F36                     l5071:
  7829                           
  7830                           ;mcc_generated_files/bootloader/library/com_adapter/com_adapter.c: 81:     {;mcc_generat
      +                          ed_files/bootloader/library/com_adapter/com_adapter.c: 82:         checksum += ((uint8_t
      +                          ) (ftpData[numBytesChecksummed]));
  7831   001F36  5005               	movf	FrameCheckCalculate@numBytesChecksummed^0,w,c
  7832   001F38  2401               	addwf	FrameCheckCalculate@ftpData^0,w,c
  7833   001F3A  6ED9               	movwf	fsr2l,c
  7834   001F3C  0E00               	movlw	0
  7835   001F3E  2002               	addwfc	(FrameCheckCalculate@ftpData+1)^0,w,c
  7836   001F40  6EDA               	movwf	fsr2h,c
  7837   001F42  50DF               	movf	indf2,w,c
  7838   001F44  2604               	addwf	FrameCheckCalculate@checksum^0,f,c
  7839   001F46                     
  7840                           ;mcc_generated_files/bootloader/library/com_adapter/com_adapter.c: 83:         numBytesC
      +                          hecksummed++;
  7841   001F46  2A05               	incf	FrameCheckCalculate@numBytesChecksummed^0,f,c
  7842   001F48                     l5075:
  7843                           
  7844                           ;mcc_generated_files/bootloader/library/com_adapter/com_adapter.c: 80:     while (numByt
      +                          esChecksummed < (bufferLength))
  7845   001F48  5003               	movf	FrameCheckCalculate@bufferLength^0,w,c
  7846   001F4A  5C05               	subwf	FrameCheckCalculate@numBytesChecksummed^0,w,c
  7847   001F4C  A0D8               	btfss	status,0,c
  7848   001F4E  EFAB  F00F         	goto	u4001
  7849   001F52  EFAD  F00F         	goto	u4000
  7850   001F56                     u4001:
  7851   001F56  EF9B  F00F         	goto	l5071
  7852   001F5A                     u4000:
  7853   001F5A                     
  7854                           ;mcc_generated_files/bootloader/library/com_adapter/com_adapter.c: 85:     return checks
      +                          um;
  7855   001F5A  5004               	movf	FrameCheckCalculate@checksum^0,w,c
  7856   001F5C  0012               	return		;funcret
  7857   001F5E                     __end_of_FrameCheckCalculate:
  7858                           	callstack 0
  7859                           
  7860 ;; *************** function _DataSend *****************
  7861 ;; Defined at:
  7862 ;;		line 88 in file "mcc_generated_files/bootloader/library/com_adapter/com_adapter.c"
  7863 ;; Parameters:    Size  Location     Type
  7864 ;;  data            1    2[COMRAM] PTR unsigned char 
  7865 ;;		 -> COM_FrameSet@nextByte(1), ftpSpecialCharacters(3), 
  7866 ;;  length          2    3[COMRAM] unsigned int 
  7867 ;; Auto vars:     Size  Location     Type
  7868 ;;  byteIndex       2    6[COMRAM] unsigned short 
  7869 ;;  status          1    5[COMRAM] enum E6610
  7870 ;; Return value:  Size  Location     Type
  7871 ;;                  1    wreg      enum E6610
  7872 ;; Registers used:
  7873 ;;		wreg, fsr2l, fsr2h, status,2, status,0, pcl, pclath, pclatu, tosl, tblptrl, tblptrh, tblptru, cstack
  7874 ;; Tracked objects:
  7875 ;;		On entry : 0/0
  7876 ;;		On exit  : 0/0
  7877 ;;		Unchanged: 0/0
  7878 ;; Data sizes:     COMRAM   BANK0   BANK1   BANK2   BANK3   BANK4   BANK5
  7879 ;;      Params:         3       0       0       0       0       0       0
  7880 ;;      Locals:         3       0       0       0       0       0       0
  7881 ;;      Temps:          0       0       0       0       0       0       0
  7882 ;;      Totals:         6       0       0       0       0       0       0
  7883 ;;Total ram usage:        6 bytes
  7884 ;; Hardware stack levels used: 1
  7885 ;; Hardware stack levels required when called: 1
  7886 ;; This function calls:
  7887 ;;		_EUSART1_ErrorGet
  7888 ;;		_EUSART1_IsTxDone
  7889 ;;		_EUSART1_IsTxReady
  7890 ;;		_EUSART1_Write
  7891 ;;		_EUSART2_ErrorGet
  7892 ;;		_EUSART2_IsTxDone
  7893 ;;		_EUSART2_IsTxReady
  7894 ;;		_EUSART2_Write
  7895 ;; This function is called by:
  7896 ;;		_COM_FrameSet
  7897 ;; This function uses a non-reentrant model
  7898 ;;
  7899                           
  7900                           	psect	text64
  7901   00147E                     __ptext64:
  7902                           	callstack 0
  7903   00147E                     _DataSend:
  7904                           	callstack 26
  7905   00147E                     
  7906                           ;mcc_generated_files/bootloader/library/com_adapter/com_adapter.c: 88: static com_adapte
      +                          r_result_t DataSend(uint8_t *data, size_t length);mcc_generated_files/bootloader/library
      +                          /com_adapter/com_adapter.c: 89: {;mcc_generated_files/bootloader/library/com_adapter/com
      +                          _adapter.c: 90:     com_adapter_result_t status = COM_PASS;
  7907   00147E  0EE7               	movlw	231
  7908   001480  6E06               	movwf	DataSend@status^0,c
  7909   001482                     
  7910                           ;mcc_generated_files/bootloader/library/com_adapter/com_adapter.c: 92:     if ((length =
      +                          = 0U) || (data == ((void*)0)))
  7911   001482  5004               	movf	DataSend@length^0,w,c
  7912   001484  1005               	iorwf	(DataSend@length+1)^0,w,c
  7913   001486  B4D8               	btfsc	status,2,c
  7914   001488  EF48  F00A         	goto	u4011
  7915   00148C  EF4A  F00A         	goto	u4010
  7916   001490                     u4011:
  7917   001490  EF52  F00A         	goto	l5087
  7918   001494                     u4010:
  7919   001494  5003               	movf	DataSend@data^0,w,c
  7920   001496  A4D8               	btfss	status,2,c
  7921   001498  EF50  F00A         	goto	u4021
  7922   00149C  EF52  F00A         	goto	u4020
  7923   0014A0                     u4021:
  7924   0014A0  EF56  F00A         	goto	l5089
  7925   0014A4                     u4020:
  7926   0014A4                     l5087:
  7927                           
  7928                           ;mcc_generated_files/bootloader/library/com_adapter/com_adapter.c: 93:     {;mcc_generat
      +                          ed_files/bootloader/library/com_adapter/com_adapter.c: 94:         status = COM_INVALID_
      +                          ARG;
  7929   0014A4  0E96               	movlw	150
  7930   0014A6  6E06               	movwf	DataSend@status^0,c
  7931                           
  7932                           ;mcc_generated_files/bootloader/library/com_adapter/com_adapter.c: 95:     }
  7933   0014A8  EFB2  F00A         	goto	l5103
  7934   0014AC                     l5089:
  7935                           
  7936                           ;mcc_generated_files/bootloader/library/com_adapter/com_adapter.c: 97:     {;mcc_generat
      +                          ed_files/bootloader/library/com_adapter/com_adapter.c: 98:         for (uint16_t byteInd
      +                          ex = 0U; byteIndex != length; byteIndex++)
  7937   0014AC  0E00               	movlw	0
  7938   0014AE  6E08               	movwf	(DataSend@byteIndex+1)^0,c
  7939   0014B0  0E00               	movlw	0
  7940   0014B2  6E07               	movwf	DataSend@byteIndex^0,c
  7941   0014B4  EFA6  F00A         	goto	l5101
  7942   0014B8                     l5091:
  7943                           
  7944                           ;mcc_generated_files/bootloader/library/com_adapter/com_adapter.c: 99:         {;mcc_gen
      +                          erated_files/bootloader/library/com_adapter/com_adapter.c: 100:             status = COM
      +                          _PASS;
  7945   0014B8  0EE7               	movlw	231
  7946   0014BA  6E06               	movwf	DataSend@status^0,c
  7947   0014BC                     l5093:
  7948                           
  7949                           ;mcc_generated_files/bootloader/library/com_adapter/com_adapter.c: 102:             whil
      +                          e (!((UART1)).IsTxReady())
  7950   0014BC  0E3B               	movlw	low (_UART1+10)
  7951   0014BE  6EF6               	movwf	tblptrl,c
  7952   0014C0                     	if	1	;There is more than 1 active tblptr byte
  7953   0014C0  0E06               	movlw	high __smallconst
  7954   0014C2  6EF7               	movwf	tblptrh,c
  7955   0014C4                     	endif
  7956   0014C4                     	if	0	;tblptru may be non-zero
  7957   0014C4                     	endif
  7958   0014C4                     	if	0	;tblptru may be non-zero
  7959   0014C4                     	endif
  7960   0014C4  D802               	call	u4038
  7961   0014C6  EF71  F00A         	goto	u4039
  7962   0014CA                     u4038:
  7963   0014CA  0005               	push	
  7964   0014CC  6EFA               	movwf	pclath,c
  7965   0014CE  0009               	tblrd		*+
  7966   0014D0  50F5               	movf	tablat,w,c
  7967   0014D2  6EFD               	movwf	tosl,c
  7968   0014D4  0009               	tblrd		*+
  7969   0014D6  50F5               	movf	tablat,w,c
  7970   0014D8  6EFE               	movwf	tosh,c
  7971   0014DA  50F8               	movf	tblptru,w,c
  7972   0014DC  6EFF               	movwf	tosu,c
  7973   0014DE  50FA               	movf	pclath,w,c
  7974   0014E0  0012               	return		;indir
  7975   0014E2                     u4039:
  7976   0014E2  0900               	iorlw	0
  7977   0014E4  B4D8               	btfsc	status,2,c
  7978   0014E6  EF77  F00A         	goto	u4041
  7979   0014EA  EF79  F00A         	goto	u4040
  7980   0014EE                     u4041:
  7981   0014EE  EF5E  F00A         	goto	l5093
  7982   0014F2                     u4040:
  7983   0014F2                     
  7984                           ;mcc_generated_files/bootloader/library/com_adapter/com_adapter.c: 107:             ((UA
      +                          RT1)).Write(data[byteIndex]);
  7985   0014F2  0E37               	movlw	low (_UART1+6)
  7986   0014F4  6EF6               	movwf	tblptrl,c
  7987   0014F6                     	if	1	;There is more than 1 active tblptr byte
  7988   0014F6  0E06               	movlw	high __smallconst
  7989   0014F8  6EF7               	movwf	tblptrh,c
  7990   0014FA                     	endif
  7991   0014FA                     	if	0	;tblptru may be non-zero
  7992   0014FA                     	endif
  7993   0014FA                     	if	0	;tblptru may be non-zero
  7994   0014FA                     	endif
  7995   0014FA  D802               	call	u4058
  7996   0014FC  EF91  F00A         	goto	u4059
  7997   001500                     u4058:
  7998   001500  0005               	push	
  7999   001502  6EFA               	movwf	pclath,c
  8000   001504  0009               	tblrd		*+
  8001   001506  50F5               	movf	tablat,w,c
  8002   001508  6EFD               	movwf	tosl,c
  8003   00150A  0009               	tblrd		*+
  8004   00150C  50F5               	movf	tablat,w,c
  8005   00150E  6EFE               	movwf	tosh,c
  8006   001510  50F8               	movf	tblptru,w,c
  8007   001512  6EFF               	movwf	tosu,c
  8008   001514  50FA               	movf	pclath,w,c
  8009   001516  5003               	movf	DataSend@data^0,w,c
  8010   001518  2407               	addwf	DataSend@byteIndex^0,w,c
  8011   00151A  6ED9               	movwf	fsr2l,c
  8012   00151C  6ADA               	clrf	fsr2h,c
  8013   00151E  50DF               	movf	indf2,w,c
  8014   001520  0012               	return		;indir
  8015   001522                     u4059:
  8016   001522                     
  8017                           ;mcc_generated_files/bootloader/library/com_adapter/com_adapter.c: 109:             if (
      +                          ((UART1)).ErrorGet() != 0U)
  8018   001522  0E51               	movlw	low (_UART1+32)
  8019   001524  6EF6               	movwf	tblptrl,c
  8020   001526                     	if	1	;There is more than 1 active tblptr byte
  8021   001526  0E06               	movlw	high __smallconst
  8022   001528  6EF7               	movwf	tblptrh,c
  8023   00152A                     	endif
  8024   00152A                     	if	0	;tblptru may be non-zero
  8025   00152A                     	endif
  8026   00152A                     	if	0	;tblptru may be non-zero
  8027   00152A                     	endif
  8028   00152A  D802               	call	u4068
  8029   00152C  EFA4  F00A         	goto	u4069
  8030   001530                     u4068:
  8031   001530  0005               	push	
  8032   001532  6EFA               	movwf	pclath,c
  8033   001534  0009               	tblrd		*+
  8034   001536  50F5               	movf	tablat,w,c
  8035   001538  6EFD               	movwf	tosl,c
  8036   00153A  0009               	tblrd		*+
  8037   00153C  50F5               	movf	tablat,w,c
  8038   00153E  6EFE               	movwf	tosh,c
  8039   001540  50F8               	movf	tblptru,w,c
  8040   001542  6EFF               	movwf	tosu,c
  8041   001544  50FA               	movf	pclath,w,c
  8042   001546  0012               	return		;indir
  8043   001548                     u4069:
  8044   001548                     
  8045                           ;mcc_generated_files/bootloader/library/com_adapter/com_adapter.c: 113:         }
  8046   001548  4A07               	infsnz	DataSend@byteIndex^0,f,c
  8047   00154A  2A08               	incf	(DataSend@byteIndex+1)^0,f,c
  8048   00154C                     l5101:
  8049   00154C  5004               	movf	DataSend@length^0,w,c
  8050   00154E  1807               	xorwf	DataSend@byteIndex^0,w,c
  8051   001550  E107               	bnz	u4071
  8052   001552  5005               	movf	(DataSend@length+1)^0,w,c
  8053   001554  1808               	xorwf	(DataSend@byteIndex+1)^0,w,c
  8054   001556  A4D8               	btfss	status,2,c
  8055   001558  EFB0  F00A         	goto	u4071
  8056   00155C  EFB2  F00A         	goto	u4070
  8057   001560                     u4071:
  8058   001560  EF5C  F00A         	goto	l5091
  8059   001564                     u4070:
  8060   001564                     l5103:
  8061                           
  8062                           ;mcc_generated_files/bootloader/library/com_adapter/com_adapter.c: 116:     while(!((UAR
      +                          T1)).IsTxDone())
  8063   001564  0E3D               	movlw	low (_UART1+12)
  8064   001566  6EF6               	movwf	tblptrl,c
  8065   001568                     	if	1	;There is more than 1 active tblptr byte
  8066   001568  0E06               	movlw	high __smallconst
  8067   00156A  6EF7               	movwf	tblptrh,c
  8068   00156C                     	endif
  8069   00156C                     	if	0	;tblptru may be non-zero
  8070   00156C                     	endif
  8071   00156C                     	if	0	;tblptru may be non-zero
  8072   00156C                     	endif
  8073   00156C  D802               	call	u4088
  8074   00156E  EFC5  F00A         	goto	u4089
  8075   001572                     u4088:
  8076   001572  0005               	push	
  8077   001574  6EFA               	movwf	pclath,c
  8078   001576  0009               	tblrd		*+
  8079   001578  50F5               	movf	tablat,w,c
  8080   00157A  6EFD               	movwf	tosl,c
  8081   00157C  0009               	tblrd		*+
  8082   00157E  50F5               	movf	tablat,w,c
  8083   001580  6EFE               	movwf	tosh,c
  8084   001582  50F8               	movf	tblptru,w,c
  8085   001584  6EFF               	movwf	tosu,c
  8086   001586  50FA               	movf	pclath,w,c
  8087   001588  0012               	return		;indir
  8088   00158A                     u4089:
  8089   00158A  0900               	iorlw	0
  8090   00158C  B4D8               	btfsc	status,2,c
  8091   00158E  EFCB  F00A         	goto	u4091
  8092   001592  EFCD  F00A         	goto	u4090
  8093   001596                     u4091:
  8094   001596  EFB2  F00A         	goto	l5103
  8095   00159A                     u4090:
  8096   00159A                     
  8097                           ;mcc_generated_files/bootloader/library/com_adapter/com_adapter.c: 121:     return statu
      +                          s;
  8098   00159A  5006               	movf	DataSend@status^0,w,c
  8099   00159C  0012               	return		;funcret
  8100   00159E                     __end_of_DataSend:
  8101                           	callstack 0
  8102                           
  8103 ;; *************** function _EUSART1_Write *****************
  8104 ;; Defined at:
  8105 ;;		line 235 in file "mcc_generated_files/uart/src/eusart1.c"
  8106 ;; Parameters:    Size  Location     Type
  8107 ;;  txData          1    wreg     unsigned char 
  8108 ;; Auto vars:     Size  Location     Type
  8109 ;;  txData          1    0[COMRAM] unsigned char 
  8110 ;; Return value:  Size  Location     Type
  8111 ;;                  1    wreg      void 
  8112 ;; Registers used:
  8113 ;;		wreg
  8114 ;; Tracked objects:
  8115 ;;		On entry : 0/0
  8116 ;;		On exit  : 0/0
  8117 ;;		Unchanged: 0/0
  8118 ;; Data sizes:     COMRAM   BANK0   BANK1   BANK2   BANK3   BANK4   BANK5
  8119 ;;      Params:         0       0       0       0       0       0       0
  8120 ;;      Locals:         1       0       0       0       0       0       0
  8121 ;;      Temps:          0       0       0       0       0       0       0
  8122 ;;      Totals:         1       0       0       0       0       0       0
  8123 ;;Total ram usage:        1 bytes
  8124 ;; Hardware stack levels used: 1
  8125 ;; This function calls:
  8126 ;;		Nothing
  8127 ;; This function is called by:
  8128 ;;		_DataSend
  8129 ;; This function uses a non-reentrant model
  8130 ;;
  8131                           
  8132                           	psect	text65
  8133   0022DC                     __ptext65:
  8134                           	callstack 0
  8135   0022DC                     _EUSART1_Write:
  8136                           	callstack 26
  8137                           
  8138                           ;incstack = 0
  8139                           ;EUSART1_Write@txData stored from wreg
  8140   0022DC  6E01               	movwf	EUSART1_Write@txData^0,c
  8141   0022DE                     
  8142                           ;mcc_generated_files/uart/src/eusart1.c: 235: void EUSART1_Write(uint8_t txData);mcc_gen
      +                          erated_files/uart/src/eusart1.c: 236: {;mcc_generated_files/uart/src/eusart1.c: 237:    
      +                           TXREG1 = txData;
  8143   0022DE  C001  FFAD         	movff	EUSART1_Write@txData,4013	;volatile
  8144   0022E2  0012               	return		;funcret
  8145   0022E4                     __end_of_EUSART1_Write:
  8146                           	callstack 0
  8147                           
  8148 ;; *************** function _EUSART2_Write *****************
  8149 ;; Defined at:
  8150 ;;		line 235 in file "mcc_generated_files/uart/src/eusart2.c"
  8151 ;; Parameters:    Size  Location     Type
  8152 ;;  txData          1    wreg     unsigned char 
  8153 ;; Auto vars:     Size  Location     Type
  8154 ;;  txData          1    0[COMRAM] unsigned char 
  8155 ;; Return value:  Size  Location     Type
  8156 ;;                  1    wreg      void 
  8157 ;; Registers used:
  8158 ;;		wreg
  8159 ;; Tracked objects:
  8160 ;;		On entry : 0/0
  8161 ;;		On exit  : 0/0
  8162 ;;		Unchanged: 0/0
  8163 ;; Data sizes:     COMRAM   BANK0   BANK1   BANK2   BANK3   BANK4   BANK5
  8164 ;;      Params:         0       0       0       0       0       0       0
  8165 ;;      Locals:         1       0       0       0       0       0       0
  8166 ;;      Temps:          0       0       0       0       0       0       0
  8167 ;;      Totals:         1       0       0       0       0       0       0
  8168 ;;Total ram usage:        1 bytes
  8169 ;; Hardware stack levels used: 1
  8170 ;; This function calls:
  8171 ;;		Nothing
  8172 ;; This function is called by:
  8173 ;;		_putch
  8174 ;;		_DataSend
  8175 ;; This function uses a non-reentrant model
  8176 ;;
  8177                           
  8178                           	psect	text66
  8179   0022E4                     __ptext66:
  8180                           	callstack 0
  8181   0022E4                     _EUSART2_Write:
  8182                           	callstack 25
  8183                           
  8184                           ;incstack = 0
  8185                           ;EUSART2_Write@txData stored from wreg
  8186   0022E4  6E01               	movwf	EUSART2_Write@txData^0,c
  8187   0022E6                     
  8188                           ;mcc_generated_files/uart/src/eusart2.c: 235: void EUSART2_Write(uint8_t txData);mcc_gen
      +                          erated_files/uart/src/eusart2.c: 236: {;mcc_generated_files/uart/src/eusart2.c: 237:    
      +                           TXREG2 = txData;
  8189   0022E6  C001  FF73         	movff	EUSART2_Write@txData,3955	;volatile
  8190   0022EA  0012               	return		;funcret
  8191   0022EC                     __end_of_EUSART2_Write:
  8192                           	callstack 0
  8193                           
  8194 ;; *************** function _EUSART1_IsTxReady *****************
  8195 ;; Defined at:
  8196 ;;		line 198 in file "mcc_generated_files/uart/src/eusart1.c"
  8197 ;; Parameters:    Size  Location     Type
  8198 ;;		None
  8199 ;; Auto vars:     Size  Location     Type
  8200 ;;		None
  8201 ;; Return value:  Size  Location     Type
  8202 ;;                  1    wreg      _Bool 
  8203 ;; Registers used:
  8204 ;;		wreg, status,2
  8205 ;; Tracked objects:
  8206 ;;		On entry : 0/0
  8207 ;;		On exit  : 0/0
  8208 ;;		Unchanged: 0/0
  8209 ;; Data sizes:     COMRAM   BANK0   BANK1   BANK2   BANK3   BANK4   BANK5
  8210 ;;      Params:         0       0       0       0       0       0       0
  8211 ;;      Locals:         1       0       0       0       0       0       0
  8212 ;;      Temps:          0       0       0       0       0       0       0
  8213 ;;      Totals:         1       0       0       0       0       0       0
  8214 ;;Total ram usage:        1 bytes
  8215 ;; Hardware stack levels used: 1
  8216 ;; This function calls:
  8217 ;;		Nothing
  8218 ;; This function is called by:
  8219 ;;		_DataSend
  8220 ;; This function uses a non-reentrant model
  8221 ;;
  8222                           
  8223                           	psect	text67
  8224   00203C                     __ptext67:
  8225                           	callstack 0
  8226   00203C                     _EUSART1_IsTxReady:
  8227                           	callstack 26
  8228   00203C                     
  8229                           ;mcc_generated_files/uart/src/eusart1.c: 200:     return (_Bool)(PIR1bits.TX1IF && TXSTA
      +                          1bits.TXEN);
  8230   00203C  0E00               	movlw	0
  8231   00203E  6E01               	movwf	_EUSART1_IsTxReady$1936^0,c
  8232   002040  A89E               	btfss	158,4,c	;volatile
  8233   002042  EF25  F010         	goto	u3831
  8234   002046  EF27  F010         	goto	u3830
  8235   00204A                     u3831:
  8236   00204A  EF30  F010         	goto	l809
  8237   00204E                     u3830:
  8238   00204E  AAAC               	btfss	172,5,c	;volatile
  8239   002050  EF2C  F010         	goto	u3841
  8240   002054  EF2E  F010         	goto	u3840
  8241   002058                     u3841:
  8242   002058  EF30  F010         	goto	l809
  8243   00205C                     u3840:
  8244   00205C  0E01               	movlw	1
  8245   00205E  6E01               	movwf	_EUSART1_IsTxReady$1936^0,c
  8246   002060                     l809:
  8247   002060  5001               	movf	_EUSART1_IsTxReady$1936^0,w,c
  8248   002062  0012               	return		;funcret
  8249   002064                     __end_of_EUSART1_IsTxReady:
  8250                           	callstack 0
  8251                           
  8252 ;; *************** function _EUSART2_IsTxReady *****************
  8253 ;; Defined at:
  8254 ;;		line 198 in file "mcc_generated_files/uart/src/eusart2.c"
  8255 ;; Parameters:    Size  Location     Type
  8256 ;;		None
  8257 ;; Auto vars:     Size  Location     Type
  8258 ;;		None
  8259 ;; Return value:  Size  Location     Type
  8260 ;;                  1    wreg      _Bool 
  8261 ;; Registers used:
  8262 ;;		wreg, status,2
  8263 ;; Tracked objects:
  8264 ;;		On entry : 0/0
  8265 ;;		On exit  : 0/0
  8266 ;;		Unchanged: 0/0
  8267 ;; Data sizes:     COMRAM   BANK0   BANK1   BANK2   BANK3   BANK4   BANK5
  8268 ;;      Params:         0       0       0       0       0       0       0
  8269 ;;      Locals:         1       0       0       0       0       0       0
  8270 ;;      Temps:          0       0       0       0       0       0       0
  8271 ;;      Totals:         1       0       0       0       0       0       0
  8272 ;;Total ram usage:        1 bytes
  8273 ;; Hardware stack levels used: 1
  8274 ;; This function calls:
  8275 ;;		Nothing
  8276 ;; This function is called by:
  8277 ;;		_putch
  8278 ;;		_DataSend
  8279 ;; This function uses a non-reentrant model
  8280 ;;
  8281                           
  8282                           	psect	text68
  8283   002064                     __ptext68:
  8284                           	callstack 0
  8285   002064                     _EUSART2_IsTxReady:
  8286                           	callstack 25
  8287   002064                     
  8288                           ;mcc_generated_files/uart/src/eusart2.c: 200:     return (_Bool)(PIR3bits.TX2IF && TXSTA
      +                          2bits.TXEN);
  8289   002064  0E00               	movlw	0
  8290   002066  6E01               	movwf	_EUSART2_IsTxReady$2462^0,c
  8291   002068  A8A4               	btfss	164,4,c	;volatile
  8292   00206A  EF39  F010         	goto	u3351
  8293   00206E  EF3B  F010         	goto	u3350
  8294   002072                     u3351:
  8295   002072  EF44  F010         	goto	l953
  8296   002076                     u3350:
  8297   002076  AA72               	btfss	114,5,c	;volatile
  8298   002078  EF40  F010         	goto	u3361
  8299   00207C  EF42  F010         	goto	u3360
  8300   002080                     u3361:
  8301   002080  EF44  F010         	goto	l953
  8302   002084                     u3360:
  8303   002084  0E01               	movlw	1
  8304   002086  6E01               	movwf	_EUSART2_IsTxReady$2462^0,c
  8305   002088                     l953:
  8306   002088  5001               	movf	_EUSART2_IsTxReady$2462^0,w,c
  8307   00208A  0012               	return		;funcret
  8308   00208C                     __end_of_EUSART2_IsTxReady:
  8309                           	callstack 0
  8310                           
  8311 ;; *************** function _EUSART1_IsTxDone *****************
  8312 ;; Defined at:
  8313 ;;		line 203 in file "mcc_generated_files/uart/src/eusart1.c"
  8314 ;; Parameters:    Size  Location     Type
  8315 ;;		None
  8316 ;; Auto vars:     Size  Location     Type
  8317 ;;		None
  8318 ;; Return value:  Size  Location     Type
  8319 ;;                  1    wreg      _Bool 
  8320 ;; Registers used:
  8321 ;;		wreg
  8322 ;; Tracked objects:
  8323 ;;		On entry : 0/0
  8324 ;;		On exit  : 0/0
  8325 ;;		Unchanged: 0/0
  8326 ;; Data sizes:     COMRAM   BANK0   BANK1   BANK2   BANK3   BANK4   BANK5
  8327 ;;      Params:         0       0       0       0       0       0       0
  8328 ;;      Locals:         0       0       0       0       0       0       0
  8329 ;;      Temps:          0       0       0       0       0       0       0
  8330 ;;      Totals:         0       0       0       0       0       0       0
  8331 ;;Total ram usage:        0 bytes
  8332 ;; Hardware stack levels used: 1
  8333 ;; This function calls:
  8334 ;;		Nothing
  8335 ;; This function is called by:
  8336 ;;		_DataSend
  8337 ;; This function uses a non-reentrant model
  8338 ;;
  8339                           
  8340                           	psect	text69
  8341   00223C                     __ptext69:
  8342                           	callstack 0
  8343   00223C                     _EUSART1_IsTxDone:
  8344                           	callstack 26
  8345   00223C                     
  8346                           ;mcc_generated_files/uart/src/eusart1.c: 205:     return TXSTA1bits.TRMT;
  8347   00223C  B2AC               	btfsc	172,1,c	;volatile
  8348   00223E  EF23  F011         	goto	u3851
  8349   002242  EF26  F011         	goto	u3850
  8350   002246                     u3851:
  8351   002246  0E01               	movlw	1
  8352   002248  EF27  F011         	goto	u3856
  8353   00224C                     u3850:
  8354   00224C  0E00               	movlw	0
  8355   00224E                     u3856:
  8356   00224E  0012               	return		;funcret
  8357   002250                     __end_of_EUSART1_IsTxDone:
  8358                           	callstack 0
  8359                           
  8360 ;; *************** function _EUSART2_IsTxDone *****************
  8361 ;; Defined at:
  8362 ;;		line 203 in file "mcc_generated_files/uart/src/eusart2.c"
  8363 ;; Parameters:    Size  Location     Type
  8364 ;;		None
  8365 ;; Auto vars:     Size  Location     Type
  8366 ;;		None
  8367 ;; Return value:  Size  Location     Type
  8368 ;;                  1    wreg      _Bool 
  8369 ;; Registers used:
  8370 ;;		wreg
  8371 ;; Tracked objects:
  8372 ;;		On entry : 0/0
  8373 ;;		On exit  : 0/0
  8374 ;;		Unchanged: 0/0
  8375 ;; Data sizes:     COMRAM   BANK0   BANK1   BANK2   BANK3   BANK4   BANK5
  8376 ;;      Params:         0       0       0       0       0       0       0
  8377 ;;      Locals:         0       0       0       0       0       0       0
  8378 ;;      Temps:          0       0       0       0       0       0       0
  8379 ;;      Totals:         0       0       0       0       0       0       0
  8380 ;;Total ram usage:        0 bytes
  8381 ;; Hardware stack levels used: 1
  8382 ;; This function calls:
  8383 ;;		Nothing
  8384 ;; This function is called by:
  8385 ;;		_DataSend
  8386 ;; This function uses a non-reentrant model
  8387 ;;
  8388                           
  8389                           	psect	text70
  8390   002250                     __ptext70:
  8391                           	callstack 0
  8392   002250                     _EUSART2_IsTxDone:
  8393                           	callstack 26
  8394   002250                     
  8395                           ;mcc_generated_files/uart/src/eusart2.c: 205:     return TXSTA2bits.TRMT;
  8396   002250  B272               	btfsc	114,1,c	;volatile
  8397   002252  EF2D  F011         	goto	u3931
  8398   002256  EF30  F011         	goto	u3930
  8399   00225A                     u3931:
  8400   00225A  0E01               	movlw	1
  8401   00225C  EF31  F011         	goto	u3936
  8402   002260                     u3930:
  8403   002260  0E00               	movlw	0
  8404   002262                     u3936:
  8405   002262  0012               	return		;funcret
  8406   002264                     __end_of_EUSART2_IsTxDone:
  8407                           	callstack 0
  8408                           
  8409 ;; *************** function _EUSART1_ErrorGet *****************
  8410 ;; Defined at:
  8411 ;;		line 208 in file "mcc_generated_files/uart/src/eusart1.c"
  8412 ;; Parameters:    Size  Location     Type
  8413 ;;		None
  8414 ;; Auto vars:     Size  Location     Type
  8415 ;;		None
  8416 ;; Return value:  Size  Location     Type
  8417 ;;                  2    0[COMRAM] unsigned int 
  8418 ;; Registers used:
  8419 ;;		None
  8420 ;; Tracked objects:
  8421 ;;		On entry : 0/0
  8422 ;;		On exit  : 0/0
  8423 ;;		Unchanged: 0/0
  8424 ;; Data sizes:     COMRAM   BANK0   BANK1   BANK2   BANK3   BANK4   BANK5
  8425 ;;      Params:         2       0       0       0       0       0       0
  8426 ;;      Locals:         0       0       0       0       0       0       0
  8427 ;;      Temps:          0       0       0       0       0       0       0
  8428 ;;      Totals:         2       0       0       0       0       0       0
  8429 ;;Total ram usage:        2 bytes
  8430 ;; Hardware stack levels used: 1
  8431 ;; This function calls:
  8432 ;;		Nothing
  8433 ;; This function is called by:
  8434 ;;		_DataSend
  8435 ;;		_DataReceive
  8436 ;; This function uses a non-reentrant model
  8437 ;;
  8438                           
  8439                           	psect	text71
  8440   0022C8                     __ptext71:
  8441                           	callstack 0
  8442   0022C8                     _EUSART1_ErrorGet:
  8443                           	callstack 26
  8444   0022C8                     
  8445                           ;mcc_generated_files/uart/src/eusart1.c: 210:     return eusart1RxLastError.status;
  8446   0022C8  C073  F001         	movff	_eusart1RxLastError,?_EUSART1_ErrorGet	;volatile
  8447   0022CC  C074  F002         	movff	_eusart1RxLastError+1,?_EUSART1_ErrorGet+1	;volatile
  8448   0022D0  0012               	return		;funcret
  8449   0022D2                     __end_of_EUSART1_ErrorGet:
  8450                           	callstack 0
  8451                           
  8452 ;; *************** function _EUSART2_ErrorGet *****************
  8453 ;; Defined at:
  8454 ;;		line 208 in file "mcc_generated_files/uart/src/eusart2.c"
  8455 ;; Parameters:    Size  Location     Type
  8456 ;;		None
  8457 ;; Auto vars:     Size  Location     Type
  8458 ;;		None
  8459 ;; Return value:  Size  Location     Type
  8460 ;;                  2    0[COMRAM] unsigned int 
  8461 ;; Registers used:
  8462 ;;		None
  8463 ;; Tracked objects:
  8464 ;;		On entry : 0/0
  8465 ;;		On exit  : 0/0
  8466 ;;		Unchanged: 0/0
  8467 ;; Data sizes:     COMRAM   BANK0   BANK1   BANK2   BANK3   BANK4   BANK5
  8468 ;;      Params:         2       0       0       0       0       0       0
  8469 ;;      Locals:         0       0       0       0       0       0       0
  8470 ;;      Temps:          0       0       0       0       0       0       0
  8471 ;;      Totals:         2       0       0       0       0       0       0
  8472 ;;Total ram usage:        2 bytes
  8473 ;; Hardware stack levels used: 1
  8474 ;; This function calls:
  8475 ;;		Nothing
  8476 ;; This function is called by:
  8477 ;;		_DataSend
  8478 ;;		_DataReceive
  8479 ;; This function uses a non-reentrant model
  8480 ;;
  8481                           
  8482                           	psect	text72
  8483   0022D2                     __ptext72:
  8484                           	callstack 0
  8485   0022D2                     _EUSART2_ErrorGet:
  8486                           	callstack 26
  8487   0022D2                     
  8488                           ;mcc_generated_files/uart/src/eusart2.c: 210:     return eusart2RxLastError.status;
  8489   0022D2  C06D  F001         	movff	_eusart2RxLastError,?_EUSART2_ErrorGet	;volatile
  8490   0022D6  C06E  F002         	movff	_eusart2RxLastError+1,?_EUSART2_ErrorGet+1	;volatile
  8491   0022DA  0012               	return		;funcret
  8492   0022DC                     __end_of_EUSART2_ErrorGet:
  8493                           	callstack 0
  8494                           
  8495 ;; *************** function _BL_ApplicationStart *****************
  8496 ;; Defined at:
  8497 ;;		line 155 in file "mcc_generated_files/bootloader/library/core/bl_core.c"
  8498 ;; Parameters:    Size  Location     Type
  8499 ;;		None
  8500 ;; Auto vars:     Size  Location     Type
  8501 ;;		None
  8502 ;; Return value:  Size  Location     Type
  8503 ;;                  1    wreg      void 
  8504 ;; Registers used:
  8505 ;;		wreg, status,2
  8506 ;; Tracked objects:
  8507 ;;		On entry : 0/0
  8508 ;;		On exit  : 0/0
  8509 ;;		Unchanged: 0/0
  8510 ;; Data sizes:     COMRAM   BANK0   BANK1   BANK2   BANK3   BANK4   BANK5
  8511 ;;      Params:         0       0       0       0       0       0       0
  8512 ;;      Locals:         0       0       0       0       0       0       0
  8513 ;;      Temps:          0       0       0       0       0       0       0
  8514 ;;      Totals:         0       0       0       0       0       0       0
  8515 ;;Total ram usage:        0 bytes
  8516 ;; Hardware stack levels used: 1
  8517 ;; This function calls:
  8518 ;;		Nothing
  8519 ;; This function is called by:
  8520 ;;		_BL_Example
  8521 ;; This function uses a non-reentrant model
  8522 ;;
  8523                           
  8524                           	psect	text73
  8525   002272                     __ptext73:
  8526                           	callstack 0
  8527   002272                     _BL_ApplicationStart:
  8528                           	callstack 29
  8529   002272                     
  8530                           ;mcc_generated_files/bootloader/library/core/bl_core.c: 163:     STKPTR = 0x00U;
  8531   002272  0E00               	movlw	0
  8532   002274  6EFC               	movwf	252,c	;volatile
  8533                           
  8534                           ;mcc_generated_files/bootloader/library/core/bl_core.c: 164:     BSR = 0x00U;
  8535   002276  0E00               	movlw	0
  8536   002278  6EE0               	movwf	224,c	;volatile
  8537   00227A  EF00 F018          	goto	12288	;# 
  8538   00227E  0012               	return		;funcret
  8539   002280                     __end_of_BL_ApplicationStart:
  8540                           	callstack 0
  8541                           
  8542                           	psect	rparam
  8543   000000                     
  8544                           	psect	config
  8545                           
  8546                           ; Padding undefined space
  8547   300000                     	org	3145728
  8548   300000  FF                 	db	255
  8549                           
  8550                           ;Config register CONFIG1H @ 0x300001
  8551                           ;	Oscillator Selection bits
  8552                           ;	FOSC = INTIO67, Internal oscillator block
  8553                           ;	4X PLL Enable
  8554                           ;	PLLCFG = OFF, Oscillator used directly
  8555                           ;	Primary clock enable bit
  8556                           ;	PRICLKEN = ON, Primary clock is always enabled
  8557                           ;	Fail-Safe Clock Monitor Enable bit
  8558                           ;	FCMEN = OFF, Fail-Safe Clock Monitor disabled
  8559                           ;	Internal/External Oscillator Switchover bit
  8560                           ;	IESO = OFF, Oscillator Switchover mode disabled
  8561   300001                     	org	3145729
  8562   300001  28                 	db	40
  8563                           
  8564                           ;Config register CONFIG2L @ 0x300002
  8565                           ;	Power-up Timer Enable bit
  8566                           ;	PWRTEN = OFF, Power up timer disabled
  8567                           ;	Brown-out Reset Enable bits
  8568                           ;	BOREN = SBORDIS, Brown-out Reset enabled in hardware only (SBOREN is disabled)
  8569                           ;	Brown Out Reset Voltage bits
  8570                           ;	BORV = 190, VBOR set to 1.90 V nominal
  8571   300002                     	org	3145730
  8572   300002  1F                 	db	31
  8573                           
  8574                           ;Config register CONFIG2H @ 0x300003
  8575                           ;	Watchdog Timer Enable bits
  8576                           ;	WDTEN = OFF, Watch dog timer is always disabled. SWDTEN has no effect.
  8577                           ;	Watchdog Timer Postscale Select bits
  8578                           ;	WDTPS = 32768, 1:32768
  8579   300003                     	org	3145731
  8580   300003  3C                 	db	60
  8581                           
  8582                           ; Padding undefined space
  8583   300004                     	org	3145732
  8584   300004  FF                 	db	255
  8585                           
  8586                           ;Config register CONFIG3H @ 0x300005
  8587                           ;	CCP2 MUX bit
  8588                           ;	CCP2MX = PORTC1, CCP2 input/output is multiplexed with RC1
  8589                           ;	PORTB A/D Enable bit
  8590                           ;	PBADEN = ON, PORTB<5:0> pins are configured as analog input channels on Reset
  8591                           ;	P3A/CCP3 Mux bit
  8592                           ;	CCP3MX = PORTB5, P3A/CCP3 input/output is multiplexed with RB5
  8593                           ;	HFINTOSC Fast Start-up
  8594                           ;	HFOFST = ON, HFINTOSC output and ready status are not delayed by the oscillator stable
      +                           status
  8595                           ;	Timer3 Clock input mux bit
  8596                           ;	T3CMX = PORTC0, T3CKI is on RC0
  8597                           ;	ECCP2 B output mux bit
  8598                           ;	P2BMX = PORTD2, P2B is on RD2
  8599                           ;	MCLR Pin Enable bit
  8600                           ;	MCLRE = EXTMCLR, MCLR pin enabled, RE3 input pin disabled
  8601   300005                     	org	3145733
  8602   300005  BF                 	db	191
  8603                           
  8604                           ;Config register CONFIG4L @ 0x300006
  8605                           ;	Stack Full/Underflow Reset Enable bit
  8606                           ;	STVREN = ON, Stack full/underflow will cause Reset
  8607                           ;	Single-Supply ICSP Enable bit
  8608                           ;	LVP = ON, Single-Supply ICSP enabled if MCLRE is also 1
  8609                           ;	Extended Instruction Set Enable bit
  8610                           ;	XINST = OFF, Instruction set extension and Indexed Addressing mode disabled (Legacy mo
      +                          de)
  8611                           ;	Background Debug
  8612                           ;	DEBUG = 0x1, unprogrammed default
  8613   300006                     	org	3145734
  8614   300006  85                 	db	133
  8615                           
  8616                           ; Padding undefined space
  8617   300007                     	org	3145735
  8618   300007  FF                 	db	255
  8619                           
  8620                           ;Config register CONFIG5L @ 0x300008
  8621                           ;	Code Protection Block 0
  8622                           ;	CP0 = OFF, Block 0 (000800-001FFFh) not code-protected
  8623                           ;	Code Protection Block 1
  8624                           ;	CP1 = OFF, Block 1 (002000-003FFFh) not code-protected
  8625                           ;	Code Protection Block 2
  8626                           ;	CP2 = OFF, Block 2 (004000-005FFFh) not code-protected
  8627                           ;	Code Protection Block 3
  8628                           ;	CP3 = OFF, Block 3 (006000-007FFFh) not code-protected
  8629   300008                     	org	3145736
  8630   300008  0F                 	db	15
  8631                           
  8632                           ;Config register CONFIG5H @ 0x300009
  8633                           ;	Boot Block Code Protection bit
  8634                           ;	CPB = OFF, Boot block (000000-0007FFh) not code-protected
  8635                           ;	Data EEPROM Code Protection bit
  8636                           ;	CPD = OFF, Data EEPROM not code-protected
  8637   300009                     	org	3145737
  8638   300009  C0                 	db	192
  8639                           
  8640                           ;Config register CONFIG6L @ 0x30000A
  8641                           ;	Write Protection Block 0
  8642                           ;	WRT0 = OFF, Block 0 (000800-001FFFh) not write-protected
  8643                           ;	Write Protection Block 1
  8644                           ;	WRT1 = OFF, Block 1 (002000-003FFFh) not write-protected
  8645                           ;	Write Protection Block 2
  8646                           ;	WRT2 = OFF, Block 2 (004000-005FFFh) not write-protected
  8647                           ;	Write Protection Block 3
  8648                           ;	WRT3 = OFF, Block 3 (006000-007FFFh) not write-protected
  8649   30000A                     	org	3145738
  8650   30000A  0F                 	db	15
  8651                           
  8652                           ;Config register CONFIG6H @ 0x30000B
  8653                           ;	Configuration Register Write Protection bit
  8654                           ;	WRTC = OFF, Configuration registers (300000-3000FFh) not write-protected
  8655                           ;	Boot Block Write Protection bit
  8656                           ;	WRTB = OFF, Boot Block (000000-0007FFh) not write-protected
  8657                           ;	Data EEPROM Write Protection bit
  8658                           ;	WRTD = OFF, Data EEPROM not write-protected
  8659   30000B                     	org	3145739
  8660   30000B  E0                 	db	224
  8661                           
  8662                           ;Config register CONFIG7L @ 0x30000C
  8663                           ;	Table Read Protection Block 0
  8664                           ;	EBTR0 = OFF, Block 0 (000800-001FFFh) not protected from table reads executed in other
      +                           blocks
  8665                           ;	Table Read Protection Block 1
  8666                           ;	EBTR1 = OFF, Block 1 (002000-003FFFh) not protected from table reads executed in other
      +                           blocks
  8667                           ;	Table Read Protection Block 2
  8668                           ;	EBTR2 = OFF, Block 2 (004000-005FFFh) not protected from table reads executed in other
      +                           blocks
  8669                           ;	Table Read Protection Block 3
  8670                           ;	EBTR3 = OFF, Block 3 (006000-007FFFh) not protected from table reads executed in other
      +                           blocks
  8671   30000C                     	org	3145740
  8672   30000C  0F                 	db	15
  8673                           
  8674                           ;Config register CONFIG7H @ 0x30000D
  8675                           ;	Boot Block Table Read Protection bit
  8676                           ;	EBTRB = OFF, Boot Block (000000-0007FFh) not protected from table reads executed in ot
      +                          her blocks
  8677   30000D                     	org	3145741
  8678   30000D  40                 	db	64
  8679                           tosu	equ	0xFFF
  8680                           tosh	equ	0xFFE
  8681                           tosl	equ	0xFFD
  8682                           stkptr	equ	0xFFC
  8683                           pclatu	equ	0xFFB
  8684                           pclath	equ	0xFFA
  8685                           pcl	equ	0xFF9
  8686                           tblptru	equ	0xFF8
  8687                           tblptrh	equ	0xFF7
  8688                           tblptrl	equ	0xFF6
  8689                           tablat	equ	0xFF5
  8690                           prodh	equ	0xFF4
  8691                           prodl	equ	0xFF3
  8692                           indf0	equ	0xFEF
  8693                           postinc0	equ	0xFEE
  8694                           postdec0	equ	0xFED
  8695                           preinc0	equ	0xFEC
  8696                           plusw0	equ	0xFEB
  8697                           fsr0h	equ	0xFEA
  8698                           fsr0l	equ	0xFE9
  8699                           wreg	equ	0xFE8
  8700                           indf1	equ	0xFE7
  8701                           postinc1	equ	0xFE6
  8702                           postdec1	equ	0xFE5
  8703                           preinc1	equ	0xFE4
  8704                           plusw1	equ	0xFE3
  8705                           fsr1h	equ	0xFE2
  8706                           fsr1l	equ	0xFE1
  8707                           bsr	equ	0xFE0
  8708                           indf2	equ	0xFDF
  8709                           postinc2	equ	0xFDE
  8710                           postdec2	equ	0xFDD
  8711                           preinc2	equ	0xFDC
  8712                           plusw2	equ	0xFDB
  8713                           fsr2h	equ	0xFDA
  8714                           fsr2l	equ	0xFD9
  8715                           status	equ	0xFD8

Data Sizes:
    Strings     50
    Constant    96
    Data        48
    BSS         254
    Persistent  0
    Stack       0

Auto Spaces:
    Space          Size  Autos    Used
    COMRAM           95     92      94
    BANK0           160      5     135
    BANK1           256      0     170
    BANK2           256      0       0
    BANK3           256      0       0
    BANK4           256      0       0
    BANK5           256      0       0

Pointer List with Targets:

    BL_BootCommandProcess@bootDataPtr	PTR unsigned char  size(2) Largest target is 74
		 -> FTP_RECEIVE_BUFFER(BANK1[74]), FTP_RESPONSE_BUFFER(BANK0[19]), FTP_RETRY_BUFFER(BANK0[19]), 

    BL_FlashWrite@buffer	PTR unsigned char  size(2) Largest target is 74
		 -> FTP_RECEIVE_BUFFER(BANK1[74]), FTP_RESPONSE_BUFFER(BANK0[19]), FTP_RETRY_BUFFER(BANK0[19]), 

    BootloaderProcessorUnlock@bufferPtr	PTR unsigned char  size(2) Largest target is 74
		 -> FTP_RECEIVE_BUFFER(BANK1[74]), FTP_RESPONSE_BUFFER(BANK0[19]), FTP_RETRY_BUFFER(BANK0[19]), 

    ClientInfoResponseSet@responseData	PTR struct . size(1) Largest target is 7
		 -> ftpResponseSender(BANK0[6]), 

    ClientInfoResponseSet@responseData$bufferPtr	PTR unsigned char  size(2) Largest target is 74
		 -> FTP_RECEIVE_BUFFER(BANK1[74]), FTP_RESPONSE_BUFFER(BANK0[19]), FTP_RETRY_BUFFER(BANK0[19]), 

    COM_FrameSet@responseBufferPtr	PTR unsigned char  size(2) Largest target is 74
		 -> FTP_RECEIVE_BUFFER(BANK1[74]), FTP_RESPONSE_BUFFER(BANK0[19]), FTP_RETRY_BUFFER(BANK0[19]), 

    COM_FrameTransfer@receiveBufferPtr	PTR unsigned char  size(2) Largest target is 74
		 -> FTP_RECEIVE_BUFFER(BANK1[74]), FTP_RESPONSE_BUFFER(BANK0[19]), FTP_RETRY_BUFFER(BANK0[19]), 

    COM_FrameTransfer@receiveIndexPtr	PTR unsigned short  size(1) Largest target is 7
		 -> ftpCommandReceiver(BANK0[6]), 

    COM_FrameTransfer@startOfWord	PTR unsigned char  size(2) Largest target is 74
		 -> FTP_RECEIVE_BUFFER(BANK1[74]), FTP_RESPONSE_BUFFER(BANK0[19]), FTP_RETRY_BUFFER(BANK0[19]), 

    COM_FrameTransfer@workPtr	PTR unsigned char  size(2) Largest target is 74
		 -> FTP_RECEIVE_BUFFER(BANK1[74]), FTP_RESPONSE_BUFFER(BANK0[19]), FTP_RETRY_BUFFER(BANK0[19]), 

    DataReceive@data	PTR unsigned char  size(1) Largest target is 1
		 -> COM_FrameTransfer@nextByte(COMRAM[1]), 

    DataSend@data	PTR unsigned char  size(1) Largest target is 3
		 -> COM_FrameSet@nextByte(COMRAM[1]), ftpSpecialCharacters(BANK0[3]), 

    EUSART1_FramingErrorCallbackRegister@callbackHandler	PTR FTN()void  size(2) Largest target is 1
		 -> EUSART1_DefaultFramingErrorCallback(), EUSART2_DefaultFramingErrorCallback(), 

    EUSART1_FramingErrorHandler	PTR FTN()void  size(2) Largest target is 1
		 -> EUSART1_DefaultFramingErrorCallback(), EUSART2_DefaultFramingErrorCallback(), NULL(), 

    EUSART1_OverrunErrorCallbackRegister@callbackHandler	PTR FTN()void  size(2) Largest target is 1
		 -> EUSART1_DefaultOverrunErrorCallback(), EUSART2_DefaultOverrunErrorCallback(), 

    EUSART1_OverrunErrorHandler	PTR FTN()void  size(2) Largest target is 1
		 -> EUSART1_DefaultOverrunErrorCallback(), EUSART2_DefaultOverrunErrorCallback(), NULL(), 

    EUSART2_FramingErrorCallbackRegister@callbackHandler	PTR FTN()void  size(2) Largest target is 1
		 -> EUSART1_DefaultFramingErrorCallback(), EUSART2_DefaultFramingErrorCallback(), 

    EUSART2_FramingErrorHandler	PTR FTN()void  size(2) Largest target is 1
		 -> EUSART1_DefaultFramingErrorCallback(), EUSART2_DefaultFramingErrorCallback(), NULL(), 

    EUSART2_OverrunErrorCallbackRegister@callbackHandler	PTR FTN()void  size(2) Largest target is 1
		 -> EUSART1_DefaultOverrunErrorCallback(), EUSART2_DefaultOverrunErrorCallback(), 

    EUSART2_OverrunErrorHandler	PTR FTN()void  size(2) Largest target is 1
		 -> EUSART1_DefaultOverrunErrorCallback(), EUSART2_DefaultOverrunErrorCallback(), NULL(), 

    FLASH_RowWrite@dataBuffer	PTR unsigned char  size(2) Largest target is 74
		 -> FTP_RECEIVE_BUFFER(BANK1[74]), FTP_RESPONSE_BUFFER(BANK0[19]), FTP_RETRY_BUFFER(BANK0[19]), writeBuffer(BANK1[64]), 

    fputc@fp	PTR struct _IO_FILE size(2) Largest target is 0
		 -> NULL(NULL[0]), 

    fputc@fp$.$buffer	PTR unsigned char  size(2) Largest target is 0

    fputc@fp$.$source	PTR const unsigned char  size(2) Largest target is 0

    FrameCheckCalculate@ftpData	PTR unsigned char  size(2) Largest target is 74
		 -> FTP_RECEIVE_BUFFER(BANK1[74]), FTP_RESPONSE_BUFFER(BANK0[19]), FTP_RETRY_BUFFER(BANK0[19]), 

    ftpCommandReceiver$bufferPtr	PTR unsigned char  size(2) Largest target is 74
		 -> FTP_RECEIVE_BUFFER(BANK1[74]), FTP_RESPONSE_BUFFER(BANK0[19]), FTP_RETRY_BUFFER(BANK0[19]), 

    ftpResponseSender$bufferPtr	PTR unsigned char  size(2) Largest target is 74
		 -> FTP_RECEIVE_BUFFER(BANK1[74]), FTP_RESPONSE_BUFFER(BANK0[19]), FTP_RETRY_BUFFER(BANK0[19]), 

    ftpRetrySender$bufferPtr	PTR unsigned char  size(2) Largest target is 74
		 -> FTP_RECEIVE_BUFFER(BANK1[74]), FTP_RESPONSE_BUFFER(BANK0[19]), FTP_RETRY_BUFFER(BANK0[19]), 

    ftpTimeoutTLVData$valueBuffer	PTR unsigned char  size(1) Largest target is 3
		 -> discoveryData(BANK0[3]), ftpVersionData(BANK0[3]), generalCommandTimeoutData(BANK0[3]), 

    ftpTransferParametersTLVData$valueBuffer	PTR unsigned char  size(1) Largest target is 3
		 -> discoveryData(BANK0[3]), ftpVersionData(BANK0[3]), generalCommandTimeoutData(BANK0[3]), 

    ftpVersionTLVData$valueBuffer	PTR unsigned char  size(1) Largest target is 3
		 -> discoveryData(BANK0[3]), ftpVersionData(BANK0[3]), generalCommandTimeoutData(BANK0[3]), 

    INT0_InterruptHandler	PTR FTN()void  size(2) Largest target is 1
		 -> INT0_DefaultInterruptHandler(), NULL(), 

    INT0_SetInterruptHandler@InterruptHandler	PTR FTN()void  size(2) Largest target is 1
		 -> INT0_DefaultInterruptHandler(), 

    INT1_InterruptHandler	PTR FTN()void  size(2) Largest target is 1
		 -> INT1_DefaultInterruptHandler(), NULL(), 

    INT1_SetInterruptHandler@InterruptHandler	PTR FTN()void  size(2) Largest target is 1
		 -> INT1_DefaultInterruptHandler(), 

    INT2_InterruptHandler	PTR FTN()void  size(2) Largest target is 1
		 -> INT2_DefaultInterruptHandler(), NULL(), 

    INT2_SetInterruptHandler@InterruptHandler	PTR FTN()void  size(2) Largest target is 1
		 -> INT2_DefaultInterruptHandler(), 

    printf@ap	PTR void [1] size(1) Largest target is 2
		 -> ?_printf(COMRAM[2]), 

    printf@fmt	PTR const unsigned char  size(1) Largest target is 14
		 -> STR_1(CODE[7]), STR_2(CODE[5]), STR_3(CODE[14]), STR_4(CODE[6]), 
		 -> STR_5(CODE[9]), STR_6(CODE[9]), 

    ResponseSet@responseData	PTR struct . size(1) Largest target is 7
		 -> ftpResponseSender(BANK0[6]), ftpRetrySender(BANK0[6]), 

    ResponseSet@responseData$bufferPtr	PTR unsigned char  size(2) Largest target is 74
		 -> FTP_RECEIVE_BUFFER(BANK1[74]), FTP_RESPONSE_BUFFER(BANK0[19]), FTP_RETRY_BUFFER(BANK0[19]), 

    ResponseSet@responsePayload	PTR unsigned char  size(2) Largest target is 1
		 -> FTP_Task@transportCode(BANK0[1]), OperationalBlockExecute@abortCode(COMRAM[1]), NULL(NULL[0]), 

    S2996$buffer	PTR unsigned char  size(2) Largest target is 0

    S2996$source	PTR const unsigned char  size(2) Largest target is 0

    S310$20$0	PTR FTN()void  size(2) Largest target is 1
		 -> EUSART1_DefaultFramingErrorCallback(), EUSART2_DefaultFramingErrorCallback(), 

    S310$21$0	PTR FTN()void  size(2) Largest target is 1
		 -> EUSART1_DefaultOverrunErrorCallback(), EUSART2_DefaultOverrunErrorCallback(), 

    S310$AutoBaudEventEnableGet	PTR FTN()_Bool  size(2) Largest target is 1
		 -> NULL(), 

    S310$AutoBaudQuery	PTR FTN()_Bool  size(2) Largest target is 1
		 -> EUSART1_AutoBaudQuery(), EUSART2_AutoBaudQuery(), 

    S310$AutoBaudSet	PTR FTN(_Bool ,)void  size(2) Largest target is 1
		 -> EUSART1_AutoBaudSet(), EUSART2_AutoBaudSet(), 

    S310$BaudRateGet	PTR FTN()unsigned long  size(2) Largest target is 1
		 -> NULL(), 

    S310$BaudRateSet	PTR FTN(unsigned long ,)void  size(2) Largest target is 1
		 -> NULL(), 

    S310$BRGCountGet	PTR FTN()unsigned long  size(2) Largest target is 1
		 -> NULL(), 

    S310$BRGCountSet	PTR FTN(unsigned long ,)void  size(2) Largest target is 1
		 -> NULL(), 

    S310$Deinitialize	PTR FTN()void  size(2) Largest target is 1
		 -> EUSART1_Deinitialize(), EUSART2_Deinitialize(), 

    S310$ErrorGet	PTR FTN()unsigned int  size(2) Largest target is 2
		 -> EUSART1_ErrorGet(), EUSART2_ErrorGet(), 

    S310$EventCallbackRegister	PTR FTN(PTR FTN()void ,)void  size(2) Largest target is 1
		 -> NULL(), 

    S310$FramingErrorCallbackRegister	PTR FTN(PTR FTN()void ,)void  size(2) Largest target is 1
		 -> EUSART1_FramingErrorCallbackRegister(), EUSART2_FramingErrorCallbackRegister(), 

    S310$Initialize	PTR FTN()void  size(2) Largest target is 1
		 -> EUSART1_Initialize(), EUSART2_Initialize(), 

    S310$IsRxReady	PTR FTN()_Bool  size(2) Largest target is 1
		 -> EUSART1_IsRxReady(), EUSART2_IsRxReady(), 

    S310$IsTxDone	PTR FTN()_Bool  size(2) Largest target is 1
		 -> EUSART1_IsTxDone(), EUSART2_IsTxDone(), 

    S310$IsTxReady	PTR FTN()_Bool  size(2) Largest target is 1
		 -> EUSART1_IsTxReady(), EUSART2_IsTxReady(), 

    S310$OverrunErrorCallbackRegister	PTR FTN(PTR FTN()void ,)void  size(2) Largest target is 1
		 -> EUSART1_OverrunErrorCallbackRegister(), EUSART2_OverrunErrorCallbackRegister(), 

    S310$ParityErrorCallbackRegister	PTR FTN(PTR FTN()void ,)void  size(2) Largest target is 1
		 -> NULL(), 

    S310$Read	PTR FTN()unsigned char  size(2) Largest target is 1
		 -> EUSART1_Read(), EUSART2_Read(), 

    S310$RxCompleteCallbackRegister	PTR FTN(PTR FTN()void ,)void  size(2) Largest target is 1
		 -> NULL(), 

    S310$TransmitDisable	PTR FTN()void  size(2) Largest target is 1
		 -> EUSART1_TransmitDisable(), EUSART2_TransmitDisable(), 

    S310$TransmitEnable	PTR FTN()void  size(2) Largest target is 1
		 -> EUSART1_TransmitEnable(), EUSART2_TransmitEnable(), 

    S310$TxCollisionCallbackRegister	PTR FTN(PTR FTN()void ,)void  size(2) Largest target is 1
		 -> NULL(), 

    S310$TxCompleteCallbackRegister	PTR FTN(PTR FTN()void ,)void  size(2) Largest target is 1
		 -> NULL(), 

    S310$Write	PTR FTN(unsigned char ,)void  size(2) Largest target is 1
		 -> EUSART1_Write(), EUSART2_Write(), 

    S457$bufferPtr	PTR unsigned char  size(2) Largest target is 74
		 -> FTP_RECEIVE_BUFFER(BANK1[74]), FTP_RESPONSE_BUFFER(BANK0[19]), FTP_RETRY_BUFFER(BANK0[19]), 

    S485$valueBuffer	PTR unsigned char  size(1) Largest target is 3
		 -> discoveryData(BANK0[3]), ftpVersionData(BANK0[3]), generalCommandTimeoutData(BANK0[3]), 

    tlvData$valueBuffer	PTR unsigned char  size(1) Largest target is 3
		 -> discoveryData(BANK0[3]), ftpVersionData(BANK0[3]), generalCommandTimeoutData(BANK0[3]), 

    UART1$AutoBaudEventEnableGet	PTR FTN()_Bool  size(2) Largest target is 1
		 -> NULL(), 

    UART1$AutoBaudQuery	PTR FTN()_Bool  size(2) Largest target is 1
		 -> EUSART1_AutoBaudQuery(), EUSART2_AutoBaudQuery(), 

    UART1$AutoBaudSet	PTR FTN(_Bool ,)void  size(2) Largest target is 1
		 -> EUSART1_AutoBaudSet(), EUSART2_AutoBaudSet(), 

    UART1$BaudRateGet	PTR FTN()unsigned long  size(2) Largest target is 1
		 -> NULL(), 

    UART1$BaudRateSet	PTR FTN(unsigned long ,)void  size(2) Largest target is 1
		 -> NULL(), 

    UART1$BRGCountGet	PTR FTN()unsigned long  size(2) Largest target is 1
		 -> NULL(), 

    UART1$BRGCountSet	PTR FTN(unsigned long ,)void  size(2) Largest target is 1
		 -> NULL(), 

    UART1$Deinitialize	PTR FTN()void  size(2) Largest target is 1
		 -> EUSART1_Deinitialize(), EUSART2_Deinitialize(), 

    UART1$ErrorGet	PTR FTN()unsigned int  size(2) Largest target is 2
		 -> EUSART1_ErrorGet(), EUSART2_ErrorGet(), 

    UART1$EventCallbackRegister	PTR FTN(PTR FTN()void ,)void  size(2) Largest target is 1
		 -> NULL(), 

    UART1$FramingErrorCallbackRegister	PTR FTN(PTR FTN()void ,)void  size(2) Largest target is 1
		 -> EUSART1_FramingErrorCallbackRegister(), EUSART2_FramingErrorCallbackRegister(), 

    UART1$Initialize	PTR FTN()void  size(2) Largest target is 1
		 -> EUSART1_Initialize(), EUSART2_Initialize(), 

    UART1$IsRxReady	PTR FTN()_Bool  size(2) Largest target is 1
		 -> EUSART1_IsRxReady(), EUSART2_IsRxReady(), 

    UART1$IsTxDone	PTR FTN()_Bool  size(2) Largest target is 1
		 -> EUSART1_IsTxDone(), EUSART2_IsTxDone(), 

    UART1$IsTxReady	PTR FTN()_Bool  size(2) Largest target is 1
		 -> EUSART1_IsTxReady(), EUSART2_IsTxReady(), 

    UART1$OverrunErrorCallbackRegister	PTR FTN(PTR FTN()void ,)void  size(2) Largest target is 1
		 -> EUSART1_OverrunErrorCallbackRegister(), EUSART2_OverrunErrorCallbackRegister(), 

    UART1$ParityErrorCallbackRegister	PTR FTN(PTR FTN()void ,)void  size(2) Largest target is 1
		 -> NULL(), 

    UART1$Read	PTR FTN()unsigned char  size(2) Largest target is 1
		 -> EUSART1_Read(), EUSART2_Read(), 

    UART1$RxCompleteCallbackRegister	PTR FTN(PTR FTN()void ,)void  size(2) Largest target is 1
		 -> NULL(), 

    UART1$TransmitDisable	PTR FTN()void  size(2) Largest target is 1
		 -> EUSART1_TransmitDisable(), EUSART2_TransmitDisable(), 

    UART1$TransmitEnable	PTR FTN()void  size(2) Largest target is 1
		 -> EUSART1_TransmitEnable(), EUSART2_TransmitEnable(), 

    UART1$TxCollisionCallbackRegister	PTR FTN(PTR FTN()void ,)void  size(2) Largest target is 1
		 -> NULL(), 

    UART1$TxCompleteCallbackRegister	PTR FTN(PTR FTN()void ,)void  size(2) Largest target is 1
		 -> NULL(), 

    UART1$Write	PTR FTN(unsigned char ,)void  size(2) Largest target is 1
		 -> EUSART1_Write(), EUSART2_Write(), 

    UART2$AutoBaudEventEnableGet	PTR FTN()_Bool  size(2) Largest target is 1
		 -> NULL(), 

    UART2$AutoBaudQuery	PTR FTN()_Bool  size(2) Largest target is 1
		 -> EUSART1_AutoBaudQuery(), EUSART2_AutoBaudQuery(), 

    UART2$AutoBaudSet	PTR FTN(_Bool ,)void  size(2) Largest target is 1
		 -> EUSART1_AutoBaudSet(), EUSART2_AutoBaudSet(), 

    UART2$BaudRateGet	PTR FTN()unsigned long  size(2) Largest target is 1
		 -> NULL(), 

    UART2$BaudRateSet	PTR FTN(unsigned long ,)void  size(2) Largest target is 1
		 -> NULL(), 

    UART2$BRGCountGet	PTR FTN()unsigned long  size(2) Largest target is 1
		 -> NULL(), 

    UART2$BRGCountSet	PTR FTN(unsigned long ,)void  size(2) Largest target is 1
		 -> NULL(), 

    UART2$Deinitialize	PTR FTN()void  size(2) Largest target is 1
		 -> EUSART1_Deinitialize(), EUSART2_Deinitialize(), 

    UART2$ErrorGet	PTR FTN()unsigned int  size(2) Largest target is 2
		 -> EUSART1_ErrorGet(), EUSART2_ErrorGet(), 

    UART2$EventCallbackRegister	PTR FTN(PTR FTN()void ,)void  size(2) Largest target is 1
		 -> NULL(), 

    UART2$FramingErrorCallbackRegister	PTR FTN(PTR FTN()void ,)void  size(2) Largest target is 1
		 -> EUSART1_FramingErrorCallbackRegister(), EUSART2_FramingErrorCallbackRegister(), 

    UART2$Initialize	PTR FTN()void  size(2) Largest target is 1
		 -> EUSART1_Initialize(), EUSART2_Initialize(), 

    UART2$IsRxReady	PTR FTN()_Bool  size(2) Largest target is 1
		 -> EUSART1_IsRxReady(), EUSART2_IsRxReady(), 

    UART2$IsTxDone	PTR FTN()_Bool  size(2) Largest target is 1
		 -> EUSART1_IsTxDone(), EUSART2_IsTxDone(), 

    UART2$IsTxReady	PTR FTN()_Bool  size(2) Largest target is 1
		 -> EUSART1_IsTxReady(), EUSART2_IsTxReady(), 

    UART2$OverrunErrorCallbackRegister	PTR FTN(PTR FTN()void ,)void  size(2) Largest target is 1
		 -> EUSART1_OverrunErrorCallbackRegister(), EUSART2_OverrunErrorCallbackRegister(), 

    UART2$ParityErrorCallbackRegister	PTR FTN(PTR FTN()void ,)void  size(2) Largest target is 1
		 -> NULL(), 

    UART2$Read	PTR FTN()unsigned char  size(2) Largest target is 1
		 -> EUSART1_Read(), EUSART2_Read(), 

    UART2$RxCompleteCallbackRegister	PTR FTN(PTR FTN()void ,)void  size(2) Largest target is 1
		 -> NULL(), 

    UART2$TransmitDisable	PTR FTN()void  size(2) Largest target is 1
		 -> EUSART1_TransmitDisable(), EUSART2_TransmitDisable(), 

    UART2$TransmitEnable	PTR FTN()void  size(2) Largest target is 1
		 -> EUSART1_TransmitEnable(), EUSART2_TransmitEnable(), 

    UART2$TxCollisionCallbackRegister	PTR FTN(PTR FTN()void ,)void  size(2) Largest target is 1
		 -> NULL(), 

    UART2$TxCompleteCallbackRegister	PTR FTN(PTR FTN()void ,)void  size(2) Largest target is 1
		 -> NULL(), 

    UART2$Write	PTR FTN(unsigned char ,)void  size(2) Largest target is 1
		 -> EUSART1_Write(), EUSART2_Write(), 

    vfpfcnvrt@ap	PTR PTR void  size(1) Largest target is 1
		 -> printf@ap(COMRAM[1]), 

    vfpfcnvrt@cp	PTR unsigned char  size(1) Largest target is 14
		 -> STR_1(CODE[7]), STR_2(CODE[5]), STR_3(CODE[14]), STR_4(CODE[6]), 
		 -> STR_5(CODE[9]), STR_6(CODE[9]), 

    vfpfcnvrt@fmt	PTR PTR unsigned char  size(1) Largest target is 1
		 -> vfprintf@cfmt(COMRAM[1]), 

    vfpfcnvrt@fp	PTR struct _IO_FILE size(2) Largest target is 0
		 -> NULL(NULL[0]), 

    vfprintf@ap	PTR PTR void  size(1) Largest target is 1
		 -> printf@ap(COMRAM[1]), 

    vfprintf@cfmt	PTR unsigned char  size(1) Largest target is 14
		 -> STR_1(CODE[7]), STR_2(CODE[5]), STR_3(CODE[14]), STR_4(CODE[6]), 
		 -> STR_5(CODE[9]), STR_6(CODE[9]), 

    vfprintf@fmt	PTR const unsigned char  size(1) Largest target is 14
		 -> STR_1(CODE[7]), STR_2(CODE[5]), STR_3(CODE[14]), STR_4(CODE[6]), 
		 -> STR_5(CODE[9]), STR_6(CODE[9]), 

    vfprintf@fp	PTR struct _IO_FILE size(2) Largest target is 0
		 -> NULL(NULL[0]), 


Critical Paths under _main in COMRAM

    _INTERRUPT_Initialize->_INT0_SetInterruptHandler
    _INTERRUPT_Initialize->_INT1_SetInterruptHandler
    _INTERRUPT_Initialize->_INT2_SetInterruptHandler
    _BL_ExampleInitialize->_FTP_Initialize
    _FTP_Initialize->_COM_Initialize
    _FTP_Task->_OperationalBlockExecute
    _OperationalBlockExecute->_BL_BootCommandProcess
    _BL_BootCommandProcess->_BootloaderProcessorUnlock
    _printf->_vfprintf
    _vfprintf->_vfpfcnvrt
    _vfpfcnvrt->_fputc
    _fputc->_putch
    _putch->_EUSART2_IsTxReady
    _putch->_EUSART2_Write
    _BootloaderProcessorUnlock->_DownloadAreaErase
    _DownloadAreaErase->_FLASH_PageErase
    _BL_FlashWrite->_FLASH_PageErase
    _COM_FrameTransfer->_DataReceive
    _DataReceive->_EUSART1_ErrorGet
    _DataReceive->_EUSART2_ErrorGet
    _EUSART2_Initialize->_EUSART2_FramingErrorCallbackRegister
    _EUSART2_Initialize->_EUSART2_OverrunErrorCallbackRegister
    _EUSART1_Initialize->_EUSART1_FramingErrorCallbackRegister
    _EUSART1_Initialize->_EUSART1_OverrunErrorCallbackRegister
    _COM_FrameSet->_DataSend
    _DataSend->_EUSART1_ErrorGet
    _DataSend->_EUSART2_ErrorGet

Critical Paths under _main in BANK0

    _main->_BL_Example
    _BL_Example->_FTP_Task

Critical Paths under _main in BANK1

    None.

Critical Paths under _main in BANK2

    None.

Critical Paths under _main in BANK3

    None.

Critical Paths under _main in BANK4

    None.

Critical Paths under _main in BANK5

    None.

Call Graph Tables:

 ---------------------------------------------------------------------------------
 (Depth) Function   	        Calls       Base Space   Used Autos Params    Refs
 ---------------------------------------------------------------------------------
 (0) _main                                                 0     0      0   32186
                         _BL_Example
               _BL_ExampleInitialize
                  _SYSTEM_Initialize
                             _printf
 ---------------------------------------------------------------------------------
 (1) _SYSTEM_Initialize                                    0     0      0     912
                      _BL_Initialize
                   _CLOCK_Initialize
                 _EUSART1_Initialize
                 _EUSART2_Initialize
               _INTERRUPT_Initialize
                     _NVM_Initialize
             _PIN_MANAGER_Initialize
 ---------------------------------------------------------------------------------
 (2) _PIN_MANAGER_Initialize                               0     0      0       0
 ---------------------------------------------------------------------------------
 (2) _NVM_Initialize                                       0     0      0       0
                    _NVM_StatusClear
 ---------------------------------------------------------------------------------
 (2) _INTERRUPT_Initialize                                 0     0      0     294
           _INT0_SetInterruptHandler
           _INT1_SetInterruptHandler
           _INT2_SetInterruptHandler
 ---------------------------------------------------------------------------------
 (3) _INT2_SetInterruptHandler                             2     0      2      98
                                              0 COMRAM     2     0      2
 ---------------------------------------------------------------------------------
 (3) _INT1_SetInterruptHandler                             2     0      2      98
                                              0 COMRAM     2     0      2
 ---------------------------------------------------------------------------------
 (3) _INT0_SetInterruptHandler                             2     0      2      98
                                              0 COMRAM     2     0      2
 ---------------------------------------------------------------------------------
 (2) _CLOCK_Initialize                                     0     0      0       0
 ---------------------------------------------------------------------------------
 (1) _BL_ExampleInitialize                                 1     1      0     261
                                              4 COMRAM     1     1      0
                     _FTP_Initialize
                   _ForcedEntryCheck
 ---------------------------------------------------------------------------------
 (2) _ForcedEntryCheck                                     2     2      0      70
                                              0 COMRAM     2     2      0
 ---------------------------------------------------------------------------------
 (2) _FTP_Initialize                                       1     1      0     168
                                              3 COMRAM     1     1      0
                     _COM_Initialize
 ---------------------------------------------------------------------------------
 (3) _COM_Initialize                                       3     1      2     145
                                              0 COMRAM     3     1      2
 ---------------------------------------------------------------------------------
 (1) _BL_Example                                           3     3      0   27785
                                              3 BANK0      2     2      0
                _BL_ApplicationStart
                           _FTP_Task
 ---------------------------------------------------------------------------------
 (2) _FTP_Task                                             3     3      0   27751
                                              0 BANK0      3     3      0
                       _COM_FrameSet
                  _COM_FrameTransfer
            _OperationalBlockExecute
                    _ParserDataReset
                        _ResponseSet
            _TransportFailureCodeGet
                             _printf
 ---------------------------------------------------------------------------------
 (3) _TransportFailureCodeGet                              4     4      0      71
                                              0 COMRAM     4     4      0
 ---------------------------------------------------------------------------------
 (3) _ParserDataReset                                      2     2      0     102
                                              0 COMRAM     2     2      0
 ---------------------------------------------------------------------------------
 (3) _OperationalBlockExecute                              2     2      0   16351
                                             90 COMRAM     2     2      0
                       _AbortCodeGet
              _BL_BootCommandProcess
                      _BL_Initialize
              _ClientInfoResponseSet
                        _ResponseSet
                             _printf
 ---------------------------------------------------------------------------------
 (3) _ResponseSet                                          9     3      6    2476
                                              0 COMRAM     9     3      6
 ---------------------------------------------------------------------------------
 (4) _ClientInfoResponseSet                                3     2      1     214
                                              0 COMRAM     3     2      1
 ---------------------------------------------------------------------------------
 (2) _BL_Initialize                                        1     1      0      10
 ---------------------------------------------------------------------------------
 (4) _BL_BootCommandProcess                               34    30      4   10198
                                             56 COMRAM    34    30      4
                      _BL_FlashWrite
           _BL_MemoryUnlockKeysClear
            _BL_MemoryUnlockKeysInit
          _BootloaderProcessorUnlock
                             _printf
 ---------------------------------------------------------------------------------
 (1) _printf                                               8     3      5    3228
                                             29 COMRAM     6     1      5
                           _vfprintf
 ---------------------------------------------------------------------------------
 (2) _vfprintf                                             5     1      4    2601
                                             24 COMRAM     5     1      4
                          _vfpfcnvrt
 ---------------------------------------------------------------------------------
 (3) _vfpfcnvrt                                           14    10      4    2140
                                             11 COMRAM    13     9      4
                              _fputc
 ---------------------------------------------------------------------------------
 (4) _fputc                                                9     5      4    1056
                                              2 COMRAM     9     5      4
                              _putch
 ---------------------------------------------------------------------------------
 (5) _putch                                                1     1      0      99
                                              1 COMRAM     1     1      0
                  _EUSART2_IsTxReady
                      _EUSART2_Write
 ---------------------------------------------------------------------------------
 (5) _BootloaderProcessorUnlock                           25    23      2    2111
                                             34 COMRAM    22    20      2
                      _DeviceID_Read
                  _DownloadAreaErase
 ---------------------------------------------------------------------------------
 (6) _DownloadAreaErase                                   13     7      6    1473
                                             21 COMRAM    13     7      6
                    _FLASH_PageErase
                 _NVM_UnlockKeyClear
                   _NVM_UnlockKeySet
 ---------------------------------------------------------------------------------
 (6) _DeviceID_Read                                       21    18      3     316
                                              0 COMRAM    21    18      3
 ---------------------------------------------------------------------------------
 (5) _BL_MemoryUnlockKeysInit                              8     0      8     223
                                              0 COMRAM     8     0      8
 ---------------------------------------------------------------------------------
 (5) _BL_MemoryUnlockKeysClear                             0     0      0       0
 ---------------------------------------------------------------------------------
 (5) _BL_FlashWrite                                       23    15      8    4060
                                             21 COMRAM    23    15      8
               _FLASH_PageAddressGet
                    _FLASH_PageErase
                _FLASH_PageOffsetGet
                         _FLASH_Read
                     _FLASH_RowWrite
                         _NVM_IsBusy
                    _NVM_StatusClear
                      _NVM_StatusGet
                 _NVM_UnlockKeyClear
                   _NVM_UnlockKeySet
 ---------------------------------------------------------------------------------
 (7) _NVM_UnlockKeySet                                     2     0      2     602
                                              0 COMRAM     2     0      2
 ---------------------------------------------------------------------------------
 (7) _NVM_UnlockKeyClear                                   0     0      0       0
 ---------------------------------------------------------------------------------
 (6) _NVM_StatusGet                                        0     0      0       0
 ---------------------------------------------------------------------------------
 (3) _NVM_StatusClear                                      0     0      0       0
 ---------------------------------------------------------------------------------
 (6) _NVM_IsBusy                                           1     1      0      37
                                              0 COMRAM     1     1      0
 ---------------------------------------------------------------------------------
 (6) _FLASH_RowWrite                                      12     6      6     589
                                              0 COMRAM     8     2      6
 ---------------------------------------------------------------------------------
 (6) _FLASH_Read                                          20    16      4     729
                                              0 COMRAM    20    16      4
 ---------------------------------------------------------------------------------
 (6) _FLASH_PageOffsetGet                                  4     0      4     121
                                              0 COMRAM     4     0      4
 ---------------------------------------------------------------------------------
 (7) _FLASH_PageErase                                     21    17      4     493
                                              0 COMRAM    21    17      4
 ---------------------------------------------------------------------------------
 (6) _FLASH_PageAddressGet                                 6     2      4     211
                                              0 COMRAM     6     2      4
 ---------------------------------------------------------------------------------
 (4) _AbortCodeGet                                         4     4      0      77
                                              0 COMRAM     4     4      0
 ---------------------------------------------------------------------------------
 (3) _COM_FrameTransfer                                   16    13      3    2568
                                              8 COMRAM    16    13      3
                        _DataReceive
                  _EUSART1_IsRxReady *
                  _EUSART2_IsRxReady *
                _FrameCheckCalculate
 ---------------------------------------------------------------------------------
 (4) _DataReceive                                          6     3      3    1023
                                              2 COMRAM     6     3      3
               _EUSART1_Deinitialize *
                   _EUSART1_ErrorGet *
                 _EUSART1_Initialize *
                  _EUSART1_IsRxReady *
                       _EUSART1_Read *
               _EUSART2_Deinitialize *
                   _EUSART2_ErrorGet *
                 _EUSART2_Initialize *
                  _EUSART2_IsRxReady *
                       _EUSART2_Read *
 ---------------------------------------------------------------------------------
 (5) _EUSART2_Read                                         0     0      0       0
                                NULL *
_EUSART1_DefaultFramingErrorCallback *
_EUSART1_DefaultOverrunErrorCallback *
_EUSART2_DefaultFramingErrorCallback *
_EUSART2_DefaultOverrunErrorCallback *
 ---------------------------------------------------------------------------------
 (4) _EUSART2_IsRxReady                                    0     0      0       0
 ---------------------------------------------------------------------------------
 (2) _EUSART2_Initialize                                   0     0      0     304
_EUSART2_FramingErrorCallbackRegiste
_EUSART2_OverrunErrorCallbackRegiste
 ---------------------------------------------------------------------------------
 (3) _EUSART2_OverrunErrorCallbackRegister                 2     0      2     152
                                              0 COMRAM     2     0      2
 ---------------------------------------------------------------------------------
 (3) _EUSART2_FramingErrorCallbackRegister                 2     0      2     152
                                              0 COMRAM     2     0      2
 ---------------------------------------------------------------------------------
 (5) _EUSART2_Deinitialize                                 0     0      0       0
 ---------------------------------------------------------------------------------
 (5) _EUSART1_Read                                         0     0      0       0
                                NULL *
_EUSART1_DefaultFramingErrorCallback *
_EUSART1_DefaultOverrunErrorCallback *
_EUSART2_DefaultFramingErrorCallback *
_EUSART2_DefaultOverrunErrorCallback *
 ---------------------------------------------------------------------------------
 (6) _EUSART2_DefaultOverrunErrorCallback                  0     0      0       0
 ---------------------------------------------------------------------------------
 (6) _EUSART2_DefaultFramingErrorCallback                  0     0      0       0
 ---------------------------------------------------------------------------------
 (6) _EUSART1_DefaultOverrunErrorCallback                  0     0      0       0
 ---------------------------------------------------------------------------------
 (6) _EUSART1_DefaultFramingErrorCallback                  0     0      0       0
 ---------------------------------------------------------------------------------
 (6) NULL(Fake)                                            0     0      0       0
 ---------------------------------------------------------------------------------
 (4) _EUSART1_IsRxReady                                    0     0      0       0
 ---------------------------------------------------------------------------------
 (2) _EUSART1_Initialize                                   0     0      0     304
_EUSART1_FramingErrorCallbackRegiste
_EUSART1_OverrunErrorCallbackRegiste
 ---------------------------------------------------------------------------------
 (3) _EUSART1_OverrunErrorCallbackRegister                 2     0      2     152
                                              0 COMRAM     2     0      2
 ---------------------------------------------------------------------------------
 (3) _EUSART1_FramingErrorCallbackRegister                 2     0      2     152
                                              0 COMRAM     2     0      2
 ---------------------------------------------------------------------------------
 (5) _EUSART1_Deinitialize                                 0     0      0       0
 ---------------------------------------------------------------------------------
 (3) _COM_FrameSet                                        12     8      4    2634
                                              8 COMRAM    12     8      4
                           _DataSend
                _FrameCheckCalculate
 ---------------------------------------------------------------------------------
 (4) _FrameCheckCalculate                                  5     2      3     527
                                              0 COMRAM     5     2      3
 ---------------------------------------------------------------------------------
 (4) _DataSend                                             6     3      3    1088
                                              2 COMRAM     6     3      3
                   _EUSART1_ErrorGet *
                   _EUSART1_IsTxDone *
                  _EUSART1_IsTxReady *
                      _EUSART1_Write *
                   _EUSART2_ErrorGet *
                   _EUSART2_IsTxDone *
                  _EUSART2_IsTxReady *
                      _EUSART2_Write *
 ---------------------------------------------------------------------------------
 (6) _EUSART2_Write                                        1     1      0      31
                                              0 COMRAM     1     1      0
 ---------------------------------------------------------------------------------
 (6) _EUSART2_IsTxReady                                    1     1      0      37
                                              0 COMRAM     1     1      0
 ---------------------------------------------------------------------------------
 (5) _EUSART2_IsTxDone                                     0     0      0       0
 ---------------------------------------------------------------------------------
 (5) _EUSART2_ErrorGet                                     2     0      2       0
                                              0 COMRAM     2     0      2
 ---------------------------------------------------------------------------------
 (5) _EUSART1_Write                                        1     1      0      31
                                              0 COMRAM     1     1      0
 ---------------------------------------------------------------------------------
 (5) _EUSART1_IsTxReady                                    1     1      0      37
                                              0 COMRAM     1     1      0
 ---------------------------------------------------------------------------------
 (5) _EUSART1_IsTxDone                                     0     0      0       0
 ---------------------------------------------------------------------------------
 (5) _EUSART1_ErrorGet                                     2     0      2       0
                                              0 COMRAM     2     0      2
 ---------------------------------------------------------------------------------
 (2) _BL_ApplicationStart                                  0     0      0       0
 ---------------------------------------------------------------------------------
 Estimated maximum stack depth 7
 ---------------------------------------------------------------------------------

 Call Graph Graphs:

 _main (ROOT)
   _BL_Example
     _BL_ApplicationStart
     _FTP_Task
       _COM_FrameSet
         _DataSend
           _EUSART1_ErrorGet *
           _EUSART1_IsTxDone *
           _EUSART1_IsTxReady *
           _EUSART1_Write *
           _EUSART2_ErrorGet *
           _EUSART2_IsTxDone *
           _EUSART2_IsTxReady *
           _EUSART2_Write *
         _FrameCheckCalculate
       _COM_FrameTransfer
         _DataReceive
           _EUSART1_Deinitialize *
           _EUSART1_ErrorGet *
           _EUSART1_Initialize *
             _EUSART1_FramingErrorCallbackRegister
             _EUSART1_OverrunErrorCallbackRegister
           _EUSART1_IsRxReady *
           _EUSART1_Read *
             NULL(Fake) *
             _EUSART1_DefaultFramingErrorCallback *
             _EUSART1_DefaultOverrunErrorCallback *
             _EUSART2_DefaultFramingErrorCallback *
             _EUSART2_DefaultOverrunErrorCallback *
           _EUSART2_Deinitialize *
           _EUSART2_ErrorGet *
           _EUSART2_Initialize *
             _EUSART2_FramingErrorCallbackRegister
             _EUSART2_OverrunErrorCallbackRegister
           _EUSART2_IsRxReady *
           _EUSART2_Read *
             NULL(Fake) *
             _EUSART1_DefaultFramingErrorCallback *
             _EUSART1_DefaultOverrunErrorCallback *
             _EUSART2_DefaultFramingErrorCallback *
             _EUSART2_DefaultOverrunErrorCallback *
         _EUSART1_IsRxReady *
         _EUSART2_IsRxReady *
         _FrameCheckCalculate *
       _OperationalBlockExecute
         _AbortCodeGet
         _BL_BootCommandProcess
           _BL_FlashWrite
             _FLASH_PageAddressGet
             _FLASH_PageErase
             _FLASH_PageOffsetGet
             _FLASH_Read
             _FLASH_RowWrite
             _NVM_IsBusy
             _NVM_StatusClear
             _NVM_StatusGet
             _NVM_UnlockKeyClear
             _NVM_UnlockKeySet
           _BL_MemoryUnlockKeysClear
           _BL_MemoryUnlockKeysInit
           _BootloaderProcessorUnlock
             _DeviceID_Read
             _DownloadAreaErase
               _FLASH_PageErase
               _NVM_UnlockKeyClear
               _NVM_UnlockKeySet
           _printf
             _vfprintf
               _vfpfcnvrt
                 _fputc
                   _putch
                     _EUSART2_IsTxReady
                     _EUSART2_Write
         _BL_Initialize
         _ClientInfoResponseSet
         _ResponseSet
         _printf
       _ParserDataReset
       _ResponseSet
       _TransportFailureCodeGet
       _printf
   _BL_ExampleInitialize
     _FTP_Initialize
       _COM_Initialize
     _ForcedEntryCheck
   _SYSTEM_Initialize
     _BL_Initialize
     _CLOCK_Initialize
     _EUSART1_Initialize
     _EUSART2_Initialize
     _INTERRUPT_Initialize
       _INT0_SetInterruptHandler
       _INT1_SetInterruptHandler
       _INT2_SetInterruptHandler
     _NVM_Initialize
       _NVM_StatusClear
     _PIN_MANAGER_Initialize
   _printf

 Address spaces:
Name               Size   Autos  Total    Cost      Usage
BIGRAM             5FF      0       0      34        0.0%
EEDATA             100      0       0       0        0.0%
BITBANK5           100      0       0      13        0.0%
BANK5              100      0       0      14        0.0%
BITBANK4           100      0       0      11        0.0%
BANK4              100      0       0      12        0.0%
BITBANK3           100      0       0       9        0.0%
BANK3              100      0       0      10        0.0%
BITBANK2           100      0       0       7        0.0%
BANK2              100      0       0       8        0.0%
BITBANK1           100      0       0       5        0.0%
BANK1              100      0      AA       6       66.4%
BITBANK0            A0      0       0       3        0.0%
BANK0               A0      5      87       4       84.4%
BITCOMRAM           5F      0       0       0        0.0%
COMRAM              5F     5C      5E       1       98.9%
BITBIGSFRlll        24      0       0      32        0.0%
BITBIGSFRhllhhl     17      0       0      21        0.0%
BITBIGSFRhlhll       F      0       0      18        0.0%
BITBIGSFRllhl        D      0       0      31        0.0%
BITBIGSFRhllhhh      C      0       0      19        0.0%
BITBIGSFRllhhh       9      0       0      30        0.0%
BITBIGSFRlh          8      0       0      29        0.0%
BITBIGSFRhllhhl      7      0       0      22        0.0%
BITBIGSFRhlllhh      5      0       0      25        0.0%
BITBIGSFRhllllh      4      0       0      27        0.0%
BITBIGSFRhlllll      4      0       0      28        0.0%
BITBIGSFRhlhh        3      0       0      16        0.0%
BITBIGSFRhh          3      0       0      15        0.0%
BITBIGSFRhlllhl      2      0       0      26        0.0%
BITBIGSFRhlhlh       2      0       0      17        0.0%
BITBIGSFRhlllhh      1      0       0      24        0.0%
BITBIGSFRhllhhl      1      0       0      20        0.0%
BITBIGSFRhllhhl      1      0       0      23        0.0%
BIGSFR               0      0       0     200        0.0%
BITSFR_1             0      0       0     200        0.0%
SFR_1                0      0       0     200        0.0%
BITSFR               0      0       0     200        0.0%
SFR                  0      0       0     200        0.0%
STACK                0      0       0       2        0.0%
NULL                 0      0       0       0        0.0%
ABS                  0      0     18F      33        0.0%
DATA                 0      0     18F      35        0.0%
CODE                 0      0       0       0        0.0%


Microchip Technology PIC18 Macro Assembler V2.46 build 20240104201356 
Symbol Table                                                                                   Sat Jul 27 16:40:48 2024

                               ?_BL_ApplicationStart 0001                                          _rowWriteKey 007B  
                       DownloadAreaErase@errorStatus 001E                                                   l23 1D86  
                                                 l33 1E00                                                   l51 1F5C  
                                                 l27 1DBC                                                   l19 1D7C  
                                                 l36 1F66                                                   l37 1F7A  
                                                 l38 1F8C                                                   l39 1F8E  
                                                 l82 1332                                                   l68 159C  
                                                 l88 0DB8                                          ?_BL_Example 0001  
                    __end_of_OperationalBlockExecute 147E                         __end_of_BL_ExampleInitialize 1E02  
                          COM_FrameSet@sentByteCount 0011                                                  l110 0DBA  
                                                l204 1192                                                  l133 2010  
                                _FrameCheckCalculate 1F2A                                                  l134 2012  
                                                l207 11D8                                                  l232 147C  
                                                l129 108A                                                  l321 0F22  
                                                l209 11DE                                                  l242 1CA2  
                                                l250 1CEA                                                  l331 1668  
                                                l324 227E                                                  l501 1BE0  
                                                l421 0988                                                  l334 1B50  
                                                l511 1924                                                  l327 228A  
                                                l255 1E42                                                  l424 09A6  
                                                l521 17EE                                                  l513 1946  
                                                l265 19DC                                                  l281 1FE8  
                                                l506 18F2                                                  l338 1B6A  
                                                l274 1C42                                                  l508 1906  
                                                l372 20AE                                                  l196 112E  
                                                l525 21CE                                                  l517 17BE  
                                                l509 1916                                                  l621 229E  
                                                l519 17CC                                                  l528 22C6  
                                                l608 22A8                                                  l369 20D0  
                                                l537 18A2                                                  l810 2062  
                                                l546 2270                                                  l634 2294  
                                                l483 2038                                                  l563 210C  
                                                l484 203A                                                  l492 2300  
                                                l813 224E                                                  l805 2226  
                                                l397 09A4                                                  l823 1A64  
                                                l495 22B2                                                  l479 22F0  
                                                l816 22D0                                                  l840 217E  
                                                l832 22F6                                                  l488 21E6  
                                                l809 2060                                                  l905 1EF4  
                                                l761 1EBC                                                  l826 22E2  
                                                l498 22BC                                                  l836 219A  
                                                l908 2212                                                  l764 21FC  
                                                l676 1D76                                                  l829 2302  
                                                l598 1F28                                                  l960 22DA  
                                                l953 2088                                                  l954 208A  
                                                l970 22EA                                                  l957 2262  
                                                l949 223A                                                  l982 212A  
                                                l967 1AEC                                                  l992 2162  
                                  ??_ParserDataReset 0001                                                  l985 2304  
                                                l988 22FC                                                  l996 2146  
                                                _BSR 0FE0                           ??_INT0_SetInterruptHandler 0003  
       __end_of_EUSART2_FramingErrorCallbackRegister 2164               ??_EUSART2_FramingErrorCallbackRegister 0003  
              ?_EUSART2_FramingErrorCallbackRegister 0001                 _EUSART2_FramingErrorCallbackRegister 2148  
                                                tosl 0FFD                                                  wreg 0FE8  
                                         _TXSTA1bits 0FAC                                           _TXSTA2bits 0F72  
                                    ?_COM_Initialize 0001                                    ForcedEntryCheck@i 0002  
                                  _DownloadAreaErase 1AEE                                                 l5001 205C  
                                               l4201 1FE0                                                 l1730 21B4  
                                               l5011 19DE                                                 l4051 1FFC  
                                               l4203 1FE6                                                 l5005 223C  
                                               l5101 154C                                                 l5021 1A24  
                                               l5013 19E8                                                 l4053 2004  
                                               l4213 1F68                                                 l4141 228C  
                                               l4143 2272                                                 l5103 1564  
                                               l5023 1A32                                                 l5015 19F6  
                                               l5111 11F2                                                 l4055 200C  
                                               l4047 1FEA                                                 l4215 1F6A  
                                               l4207 1F5E                                                 l5009 22C8  
                                               l5041 2250                                                 l5033 22DE  
                                               l5105 159A                                                 l5025 1A36  
                                               l5017 19F8                                                 l5121 1252  
                                               l5113 1202                                                 l5201 1C56  
                                               l4049 1FEA                                                 l4217 1F88  
                                               l4137 22A0                                                 l4241 1F18  
                                               l4233 1EF6                                                 l2801 1D74  
                                               l5035 21FE                                                 l5051 1A7E  
                                               l5027 1A48                                                 l5019 1A0A  
                                               l5131 12EE                                                 l5123 1288  
                                               l5115 120A                                                 l5203 1C5E  
                                               l5211 1CA0                                                 l4139 2296  
                                               l4243 1F1A                                                 l4235 1EFC  
                                               l5045 22D2                                                 l5301 0F68  
                                               l5037 2228                                                 l5061 1ABE  
                                               l5053 1A80                                                 l5029 1A62  
                                               l5133 1314                                                 l5125 12BC  
                                               l5117 1216                                                 l5109 11E0  
                                               l5221 0BC0                                                 l5141 1948  
                                               l4237 1F08                                                 l5071 1F36  
                                               l5311 0FB8                                                 l5303 0F7A  
                                               l5063 1AD0                                                 l5055 1A92  
                                               l5047 1A66                                                 l5127 12C4  
                                               l5119 121A                                                 l5135 1318  
                                               l5231 0C32                                                 l5223 0BD2  
                                               l5151 1BE2                                                 l5143 1980  
                                               l4271 1DF0                                                 l4263 1DBE  
                                               l4239 1F0A                                                 l5081 147E  
                                               l5073 1F46                                                 l5321 1010  
                                               l5313 0FC8                                                 l5305 0F8C  
                                               l5065 1AEA                                                 l5057 1AAC  
                                               l5049 1A70                                                 l5129 12C8  
                                               l5137 1330                                                 l5241 0C72  
                                               l5233 0C44                                                 l5225 0BE2  
                                               l5209 1C66                                                 l4601 17BC  
                                               l1785 1E84                                                 l5153 1BF0  
                                               l5145 1988                                                 l4273 1DFA  
                                               l4265 1DC4                                                 l1778 0BB6  
                                               l5091 14B8                                                 l5083 1482  
                                               l5075 1F48                                                 l5315 0FDA  
                                               l5307 0F98                                                 l5059 1ABA  
                                               l5251 0CDA                                                 l5243 0C82  
                                               l5235 0C58                                                 l5227 0BEA  
                                               l5219 0BB8                                                 l4603 17E6  
                                               l5171 0E7C                                                 l5163 0DBC  
                                               l5155 1C0E                                                 l5147 19BE  
                                               l5411 1CBE                                                 l5403 1CA6  
                                               l4267 1DD6                                                 l4541 2076  
                                               l5093 14BC                                                 l5085 1494  
                                               l5077 1F5A                                                 l5069 1F2A  
                                               l5333 1050                                                 l5325 1026  
                                               l5317 0FEC                                                 l5309 0FB0  
                                               l5261 0D08                                                 l5253 0CDE  
                                               l5245 0C94                                                 l5237 0C60  
                                               l5229 0C20                                                 l4613 22B4  
                                               l4701 1880                                                 l1797 1732  
                                               l4621 09E0                                                 l5181 0ECE  
                                               l5173 0E8E                                                 l5165 0DBC  
                                               l5157 1C28                                                 l5149 19C0  
                                               l5413 1CE8                                                 l5405 1CAE  
                                               l5421 108C                                                 l4197 1FC0  
                                               l4269 1DDC                                                 l4543 2084  
                                               l5095 14F2                                                 l5087 14A4  
                                               l5327 1028                                                 l5319 0FFE  
                                               l5335 1054                                                 l5271 0D48  
                                               l5263 0D1A                                                 l5255 0CF0  
                                               l5247 0C98                                                 l5239 0C6A  
                                               l4703 188E                                                 l4551 2110  
                                               l4631 0A0E                                                 l4623 09E4  
                                               l4615 09A8                                                 l5191 0F1C  
                                               l5183 0EF8                                                 l5175 0E9A  
                                               l5167 0E52                                                 l5159 2280  
                                               l5351 1E2A                                                 l5343 1E02  
                                               l5407 1CB6                                                 l5431 10C8  
                                               l5423 1092                                                 l4199 1FCE  
                                               l4537 2064                                                 l5097 1522  
                                               l5089 14AC                                                 l5329 103A  
                                               l5337 1076                                                 l5273 0D58  
                                               l5265 0D22                                                 l5257 0CF8  
                                               l5249 0CB4                                                 l4609 17EC  
                                               l4801 18EC                                                 l4705 1892  
                                               l4721 1B30                                                 l4713 1AEE  
                                               l4553 2124                                                 l4561 168E  
                                               l4641 0A74                                                 l4625 09EE  
                                               l4617 09CA                                                 l5193 0F20  
                                               l5185 0F08                                                 l5177 0EA0  
                                               l5169 0E6A                                                 l5361 1348  
                                               l5353 1E2E                                                 l5441 1104  
                                               l5433 10DA                                                 l5425 10A6  
                                               l2793 2264                                                 l4539 2068  
                                               l4547 22E6                                                 l5099 1548  
                                               l5339 1088                                                 l5291 0F24  
                                               l5283 0DA8                                                 l5275 0D5A  
                                               l5259 0D04                                                 l5267 0D2A  
                                               l4731 1BC4                                                 l4811 1944  
                                               l4803 18F4                                                 l4571 22AA  
                                               l4707 1896                                                 l4715 1B0A  
                                               l4563 1698                                                 l4651 0AC0  
                                               l4627 0A00                                                 l4635 0A16  
                                               l4619 09D2                                                 l5187 0F10  
                                               l5179 0EB6                                                 l5371 1380  
                                               l5363 1350                                                 l5355 1334  
                                               l5451 1140                                                 l5443 1108  
                                               l5435 10E2                                                 l5427 10B8  
                                               l2795 1D32                                                 l5611 20D8  
                                               l5293 0F24                                                 l4821 2176  
                                               l5277 0D5E                                                 l5269 0D3C  
                                               l5285 0DB4                                                 l5197 1C46  
                                               l4581 1798                                                 l4741 1BDA  
                                               l4733 1BC8                                                 l4805 193E  
                                               l4573 22AE                                                 l4901 07A6  
                                               l4709 189A                                                 l4725 1B44  
                                               l4717 1B16                                                 l4549 2110  
                                               l4565 16B6                                                 l4557 166A  
                                               l4661 0AF4                                                 l4653 0AC6  
                                               l4645 0A98                                                 l4629 0A06  
                                               l4637 0A2C                                                 l5189 0F18  
                                               l5381 13F4                                                 l5373 139C  
                                               l5365 1354                                                 l5357 1338  
                                               l5349 1E1C                                                 l5453 114A  
                                               l5461 119A                                                 l5445 1110  
                                               l5437 10EA                                                 l5429 10C0  
                                               l2797 1D4A                                                 l5541 20F0  
                                               l5613 20E0                                                 l5295 0F36  
                                               l4815 2180                                                 l4823 22F2  
                                               l4831 213E                                                 l5279 0D7A  
                                               l5199 1C4E                                                 l4591 17A6  
                                               l4583 179C                                                 l4575 1734  
                                               l4743 1BDE                                                 l4735 1BCC  
                                               l4751 2026                                                 l4727 22FE  
                                               l4911 07EA                                                 l4903 07B2  
                                               l4719 1B2C                                                 l4567 16EC  
                                               l4559 167C                                                 l4671 0B56  
                                               l4663 0B08                                                 l4655 0AD6  
                                               l4647 0AAE                                                 l4639 0A4C  
                                               l5391 1428                                                 l5383 1410  
                                               l5375 13AE                                                 l5367 1358  
                                               l5359 1340                                                 l5463 11AA  
                                               l5455 1164                                                 l5447 1122  
                                               l5439 10FC                                                 l2799 1D6E  
                                               l5551 2108                                                 l5543 20F8  
                                               l5615 20E4                                                 l5607 20D2  
                                               l5297 0F48                                                 l4817 2192  
                                               l4833 22F8                                                 l4825 2148  
                                               l4593 17A8                                                 l4585 17A0  
                                               l4577 178C                                                 l4737 1BD2  
                                               l4729 1B6C                                                 l4753 2034  
                                               l4921 0834                                                 l4913 07EE  
                                               l4905 07C6                                                 l4665 0B1E  
                                               l4657 0ADE                                                 l4649 0ABC  
                                               l4681 0B90                                                 l4841 1E7C  
                                               l5393 142C                                                 l5385 1418  
                                               l5377 13CE                                                 l5369 1374  
                                               l5465 11C2                                                 l5457 117C  
                                               l5449 112A                                                 l5545 20FC  
                                               l5609 20D6                                                 l5299 0F50  
                                               l4819 2164                                                 l4827 215A  
                                               l4595 17AA                                                 l4587 17A2  
                                               l4579 1794                                                 l4739 1BD6  
                                               l4747 2014                                                 l4931 0878  
                                               l4923 0838                                                 l4915 0804  
                                               l4907 07DA                                                 l4691 184A  
                                               l4851 159E                                                 l4667 0B32  
                                               l4659 0AE2                                                 l4675 0B6C  
                                               l4835 1E44                                                 l5387 141C  
                                               l5379 13D6                                                 l5467 11D4  
                                               l5459 118E                                                 l5483 22EC  
                                               l5547 2100                                                 l4829 212C  
                                               l4773 21B6                                                 l4597 17AE  
                                               l4589 17A4                                                 l4781 18AE  
                                               l4749 2018                                                 l4765 21E4  
                                               l4757 21D0                                                 l4941 08D8  
                                               l4933 0884                                                 l4925 083C  
                                               l4909 07E2                                                 l4693 184C  
                                               l4861 15B4                                                 l4853 159E  
                                               l4669 0B54                                                 l4677 0B84  
                                               l4837 1E4C                                                 l4845 219C  
                                               l5397 144C                                                 l5469 11DC  
                                               l5493 1D90                                                 l5485 1D78  
                                               l5549 2104                                                 l4599 17B2  
                                               l4791 18C0                                                 l4783 18B6  
                                               l4759 21DE                                                 l4951 090C  
                                               l4943 08DC                                                 l4935 089E  
                                               l4919 0818                                                 l4927 0842  
                                               l4871 0694                                                 l4695 1850  
                                               l4687 17F0                                                 l4863 164A  
                                               l4855 15AE                                                 l4839 1E60  
                                               l4847 21A0                                                 l5399 147A  
                                               l5495 1DBC                                                 l5487 1D7E  
                                               l4769 22BE                                                 l4793 18C4  
                                               l4785 18B8                                                 l4777 18A4  
                                               l4961 0952                                                 l4953 091C  
                                               l4945 08EC                                                 l4937 08AE  
                                               l4929 0854                                                 l4881 06D8  
                                               l4873 06A0                                                 l4697 186A  
                                               l4689 1848                                                 l4865 1666  
                                               l4857 15AE                                                 l5489 1D88  
                                               l5691 1C7A                                                 l4795 18CC  
                                               l4787 18BA                                                 l4779 18A8  
                                               l4971 09A0                                                 l4963 095E  
                                               l4955 0928                                                 l4947 08F4  
                                               l4939 08BA                                                 l4891 073C  
                                               l4883 06EA                                                 l4875 06B2  
                                               l4699 1870                                                 l4859 15AE  
                                               l4981 1EA6                                                 l4797 18D8  
                                               l4789 18BC                                                 l4965 097C  
                                               l4957 093E                                                 l4893 077C  
                                               l4949 08F8                                                 l4877 06BA  
                                               l4869 20B0                                                 l4983 1EBE  
                                               l4991 2214                                                 l4799 18DC  
                                               l4967 0984                                                 l4959 0942  
                                               l4887 0722                                                 l4975 208C  
                                               l5687 1DA6                                                 l4985 1ED2  
                                               l4977 1E86                                                 l4969 0998  
                                               l4889 0726                                                 l5689 1CD2  
                                               l4995 203C                                                 l4987 1EDE  
                                               l4979 1E9A                                                 l4899 0784  
                                               l4997 2040                                                 l4989 21E8  
                                               l4999 204E                                                 STR_1 0681  
                                               STR_2 068E                                                 STR_3 0661  
                                               STR_4 0688                                                 STR_5 0678  
                                               STR_6 066F                                                 u3010 1DD6  
                                               u3011 1DD2                                                 u3020 1DF0  
                                               _IOCB 0F62                                                 u3021 1DEC  
                                               _LATA 0F89                                                 _LATB 0F8A  
                                               _LATC 0F8B                                                 u4000 1F5A  
                                               _LATD 0F8C                                                 u4001 1F56  
                                               _LATE 0F8D                                                 u4010 1494  
                                               u4011 1490                                                 u4020 14A4  
                                               u4100 11F2                                                 u4021 14A0  
                                               u4101 11EE                                                 u4110 1202  
                                               u4111 11FE                                                 u4040 14F2  
                                               u3400 16B6                                                 u4200 19DC  
                                               u4041 14EE                                                 u3401 16B2  
                                               u4201 19D8                                                 u4130 1252  
                                               u3410 16EC                                                 u4131 124E  
                                               u3411 16E8                                                 u4211 0E74  
                                               u4300 0C44                                                 u3500 0B2E  
                                               u4220 0E8E                                                 u4301 0C40  
                                               u3501 0B2A                                                 u4221 0E8A  
                                               u3350 2076                                                 u4070 1564  
                                               u4038 14CA                                                 u4150 1288  
                                               u4310 0C58                                                 u3430 17CC  
                                               u3510 0B68                                                 u3351 2072  
                                               u4071 1560                                                 u4039 14E2  
                                               u4151 1284                                                 u4311 0C54  
                                               u3431 17C8                                                 u3511 0B64  
                                               u4231 0EAA                                                 u3360 2084  
                                               u4400 0F48                                                 u4128 1228  
                                               u4320 0C82                                                 u3440 17E6  
                                               u3520 1B40                                                 u4240 0ECE  
                                               u3361 2080                                                 u4401 0F44  
                                               u4129 1240                                                 u4321 0C7E  
                                               u3441 17E2                                                 u3425 17BA  
                                               u3521 1B3C                                                 u4241 0ECA  
                                               u4090 159A                                                 u4058 1500  
                                               u4410 0F8C                                                 u4330 0C94  
                                               u3426 17BC                                                 u3610 193E  
                                               u3530 1B6A                                                 u3370 2124  
                                               u3450 09CA                                                 u4250 0F08  
                                               u4091 1596                                                 u4059 1522  
                                               u4411 0F88                                                 u4331 0C90  
                                               u3611 193A                                                 u3531 1B66  
                                               u3371 2120                                                 u3451 09C6  
                                               u4251 0F04                                                 u4068 1530  
                                               u4420 0FB0                                                 u3620 2192  
                                               u4148 1260                                                 u4340 0CF0  
                                               u4260 0BD2                                                 u3540 2026  
                                               u3700 071E                                                 u3380 167C  
                                               u3460 0A48                                                 u4500 13AE  
                                               u4069 1548                                                 u4421 0FAC  
                                               u3621 218E                                                 u4149 1278  
                                               u4341 0CEC                                                 u4261 0BCE  
                                               u3605 192C                                                 u3541 2022  
                                               u3701 071A                                                 u3381 1678  
                                               u3461 0A44                                                 u4501 13AA  
                                               u4430 0FDA                                                 u3630 2176  
                                               u4190 1330                                                 u4350 0D1A  
                                               u4270 0BE2                                                 u3606 192E  
                                               u3550 2034                                                 u3710 073C  
                                               u3390 168E                                                 u3470 0AD6  
                                               u4510 10B8                                                 u4431 0FD6  
                                               u3631 2172                                                 u4191 132C  
                                               u4351 0D16                                                 u4271 0BDE  
                                               u3551 2030                                                 u3711 0738  
                                               u3391 168A                                                 u3471 0AD2  
                                               u4511 10B4                                                 u4088 1572  
                                               u4440 0FEC                                                 u3640 215A  
                                               u4168 129E                                                 u4360 0D3C  
                                               u3560 21DE                                                 u3800 0952  
                                               u3720 07C6                                                 u4520 10DA  
                                               u4089 158A                                                 u4441 0FE8  
                                               u3641 2156                                                 u4169 12B6  
                                               u4361 0D38                                                 u3561 21DA  
                                               u3801 094E                                                 u3721 07C2  
                                               u4521 10D6                                                 u4450 0FFE  
                                               u3650 213E                                                 u4178 12D6  
                                               u4370 0D58                                                 u4290 0C20  
                                               u3570 18EC                                                 u3810 0998  
                                               u3730 07DA                                                 u3490 0B1E  
                                               u4530 10FC                                                 u4451 0FFA  
                                               u3651 213A                                                 u4179 12EE  
                                               u4371 0D54                                                 u4291 0C1C  
                                               u3571 18E8                                                 u3811 0994  
                                               u3731 07D6                                                 u3491 0B1A  
                                               u4531 10F8                                                 u4460 1022  
                                               u3820 2224                                                 u3900 1A48  
                                               u4188 12FC                                                 u4380 0D7A  
                                               u3580 1906                                                 u3740 0804  
                                               u3660 1E7C                                                 u4540 1122  
                                               u2860 1FFC                                                 u4461 101E  
                                               u3821 221E                                                 u3901 1A44  
                                               u4189 1314                                                 u4381 0D76  
                                               u3581 1902                                                 u3741 0800  
                                               u3485 0AF8                                                 u3661 1E78  
                                               u4541 111E                                                 u2861 1FF8  
                                               u3830 204E                                                 u4470 104C  
                                               u4390 0F36                                                 u3590 1924  
                                               u3750 0814                                                 u3670 06B2  
                                               u4550 1140                                                 u3831 204A  
                                               u4471 1048                                                 u4391 0F32  
                                               u3591 1920                                                 u3751 0810  
                                               u3671 06AE                                                 u4551 113C  
                                               u3840 205C                                                 u4480 1076  
                                               u3920 2238                                                 u4288 0BF8  
                                               u3760 0854                                                 u3680 06D4  
                                               u4560 118E                                                 u3841 2058  
                                               u4481 1072                                                 u3921 2232  
                                               u4289 0C10                                                 u3761 0850  
                                               u3681 06D0                                                 u4561 118A  
                                               u3930 2260                                                 u3850 224C  
                                               u3826 2226                                                 u3770 08AE  
                                               u3690 06EA                                                 u4490 1E42  
                                               u4570 11AA                                                 u2970 1FE0  
                                               u3931 225A                                                 u3851 2246  
                                               u3771 08AA                                                 u3691 06E6  
                                               u4491 1E3E                                                 u4571 11A6  
                                               u2971 1FDC                                                 u3940 1A7E  
                                               u3860 19F6                                                 u3780 08EC  
                                               u4580 11D4                                                 u2980 1F7A  
                                               u3941 1A7A                                                 u3861 19F2  
                                               u3781 08E8                                                 u4581 11D0  
                                               u2981 1F76                                                 u3926 223A  
                                               u3950 1A92                                                 u3918 1A4E  
                                               u3870 1A0A                                                 u3790 090C  
                                               u2990 1F88                                                 u3951 1A8E  
                                               u3919 1A62                                                 u3871 1A06  
                                               u3791 0908                                                 u2991 1F84  
                                               u3936 2262                                                 u3856 224E  
                                               u3970 1ABA                                                 u3890 1A32  
                                               u3971 1AB6                                                 u3891 1A2E  
                                               u3980 1AD0                                                 u3981 1ACC  
                                               u3968 1A98                                                 u3888 1A10  
                                               u3969 1AAC                                                 u3889 1A24  
                                               u3998 1AD6                                                 u3999 1AEA  
                                     ?_NVM_StatusGet 0001                             AbortCodeGet@targetStatus 0003  
                                               _WPUB 0F61                                        _EUSART1_Write 22DC  
                                 ?_DownloadAreaErase 0016                                        _EUSART2_Write 22E4  
                            __end_of_NVM_StatusClear 2302                                                 _dbuf 0100  
                                               _main 20D2                                        _BL_Initialize 2280  
                               ?_FrameCheckCalculate 0001                                        ?_EUSART1_Read 0001  
                                               _prec 0067                                        ?_EUSART2_Read 0001  
                                               fsr1h 0FE2                                                 fsr2h 0FDA  
                                               indf1 0FE7                                                 indf2 0FDF  
                                               fsr1l 0FE1                                                 fsr2l 0FD9  
                  COM_Initialize@maximumBufferLength 0001                                         _unlockKeyLow 005E  
                          ?_INT2_SetInterruptHandler 0001                                                 start 0000  
                                     ??_COM_FrameSet 000D                                       ?_BL_FlashWrite 0016  
                          COM_FrameTransfer@nextByte 0018                                  ??_DownloadAreaErase 001C  
                              ??_BL_ApplicationStart 0001                 COM_FrameTransfer@isReceiveWindowOpen 008A  
                                       ___param_bank 0000                                  BL_FlashWrite@buffer 001A  
                                BL_FlashWrite@length 001C                                  BL_FlashWrite@offset 0022  
                       __end_of_FLASH_PageAddressGet 21D0                                  BL_FlashWrite@result 002C  
                                        _DataReceive 11E0                                         _BAUDCON1bits 0FB8  
                                       _BAUDCON2bits 0F70                               FLASH_Read@tablePointer 0011  
                                        _writeBuffer 016A                                                ?_main 0001  
                              FTP_Task@transportCode 00E2                                                _EEADR 0FA9  
                                   __end_of_FTP_Task 11E0                                                _UART1 0631  
                                              _UART2 0601                                         vfpfcnvrt@fmt 000E  
                                              _TRISA 0F92                                                _TRISB 0F93  
                                              _TRISC 0F94                                                _TRISD 0F95  
                                              _TRISE 0F96                      __end_of_BL_MemoryUnlockKeysInit 20D2  
                                  _ftpResponseSender 00C4                             __end_of_NVM_UnlockKeySet 22B4  
                              __end_of_DeviceID_Read 18A4                            __end_of_DownloadAreaErase 1B6C  
       __end_of_EUSART1_FramingErrorCallbackRegister 219C               ??_EUSART1_FramingErrorCallbackRegister 0003  
              ?_EUSART1_FramingErrorCallbackRegister 0001                 _EUSART1_FramingErrorCallbackRegister 2180  
                                              _flags 0085                                 _ftpSpecialCharacters 00DF  
                                              _fputc 166A                           DownloadAreaErase@unlockKey 001C  
                                              _width 0065                                                _putch 210E  
                      __end_of_BL_BootCommandProcess 0F24                             _INT1_SetInterruptHandler 2296  
                                     ?_EUSART1_Write 0001                                        _unlockKeyHigh 005D  
                                     ?_EUSART2_Write 0001                                                pclath 0FFA  
                                              tablat 0FF5               FrameCheckCalculate@numBytesChecksummed 0005  
                                     ?_BL_Initialize 0001                                       ??_EUSART1_Read 0001  
                                              plusw0 0FEB                                                plusw1 0FE3  
                                              plusw2 0FDB                                       ??_EUSART2_Read 0001  
                              ??_FrameCheckCalculate 0004                                _EUSART1_AutoBaudQuery 0000  
                                              status 0FD8                                     __end_of_DataSend 159E  
                                        ?_NVM_IsBusy 0001                      __end_of_TransportFailureCodeGet 1CEC  
                             ForcedEntryCheck@result 0001                          FTP_Initialize@comInitStatus 0004  
                                   ??_FTP_Initialize 0004                                 BL_FlashWrite@address 0016  
                                    __initialization 1CEC                           __end_of_EUSART1_Initialize 1EBE  
                                       __end_of_main 20F0                                         _AbortCodeGet 1C44  
                               BL_FlashWrite@counter 0024                     BL_BootCommandProcess@bootDataPtr 0039  
                                             ??_main 005D                                        __activetblptr 0002  
                         __end_of_NVM_UnlockKeyClear 22BE         __end_of_EUSART2_OverrunErrorCallbackRegister 2148  
             ??_EUSART2_OverrunErrorCallbackRegister 0003                ?_EUSART2_OverrunErrorCallbackRegister 0001  
               _EUSART2_OverrunErrorCallbackRegister 212C                    BL_BootCommandProcess@memoryStatus 0055  
EUSART2_OverrunErrorCallbackRegister@callbackHandler 0001  EUSART2_FramingErrorCallbackRegister@callbackHandler 0001  
EUSART1_OverrunErrorCallbackRegister@callbackHandler 0001  EUSART1_FramingErrorCallbackRegister@callbackHandler 0001  
                         ??_BL_MemoryUnlockKeysClear 0001                          BL_MemoryUnlockKeysInit@keys 0001  
                         __end_of_EUSART2_Initialize 1EF6                           FrameCheckCalculate@ftpData 0001  
                                    ??_NVM_StatusGet 0001                                               ?_fputc 0003  
                                             _EEDATA 0FA8                                               _EECON2 0FA7  
                                             _ANSELA 0F38                                               ?_putch 0001  
                                             _ANSELB 0F39                                               _ANSELC 0F3A  
                                             _ANSELD 0F3B                                               _ANSELE 0F3C  
                                             _TABLAT 0FF5                              ResponseSet@responseData 0001  
                                             _RCREG1 0FAE                                               _RCREG2 0F74  
                                  ?_ForcedEntryCheck 0001                                               _RCSTA1 0FAB  
                                             _RCSTA2 0F71                                               _OSCCON 0FD3  
                                             _SPBRG1 0FAF                                               _SPBRG2 0F75  
                                   ?_NVM_StatusClear 0001                                  _FLASH_PageOffsetGet 22BE  
                                    ??_BL_FlashWrite 001E                                               _STKPTR 0FFC  
                               _BL_ExampleInitialize 1DBE                                               _TXREG1 0FAD  
                                             _TXREG2 0F73                                               _TXSTA1 0FAC  
                                             _TXSTA2 0F72                                   ??_ForcedEntryCheck 0001  
                      BL_FlashWrite@pageStartAddress 0028                                         vfprintf@cfmt 001D  
                                      ??_ResponseSet 0007                                _ClientInfoResponseSet 1BE2  
                                             clear_0 1D12                                               clear_1 1D1E  
                                             isa$std 0001                          _EUSART2_FramingErrorHandler 006B  
                                             _printf 219C                                 ?_FLASH_PageOffsetGet 0001  
                       COM_FrameTransfer@startOfWord 0015                         __end_of_EUSART1_Deinitialize 21FE  
                                  ?_CLOCK_Initialize 0001                                     _FTP_RETRY_BUFFER 008C  
                                   ParserDataReset@i 0001                                               fputc@c 0003  
                       _INT2_DefaultInterruptHandler 0000                                   ??_CLOCK_Initialize 0001  
                                       __mediumconst 0000                                 __end_of_COM_FrameSet 108C  
                                             tblptrh 0FF7                                               tblptrl 0FF6  
                                             tblptru 0FF8                                         ??_FLASH_Read 0005  
       __end_of_EUSART1_OverrunErrorCallbackRegister 2180               ??_EUSART1_OverrunErrorCallbackRegister 0003  
              ?_EUSART1_OverrunErrorCallbackRegister 0001                 _EUSART1_OverrunErrorCallbackRegister 2164  
                                   __end_of_vfprintf 1E86                                      ??_EUSART1_Write 0001  
                                    ??_EUSART2_Write 0001             INT2_SetInterruptHandler@InterruptHandler 0001  
           INT1_SetInterruptHandler@InterruptHandler 0001             INT0_SetInterruptHandler@InterruptHandler 0001  
                                    ??_BL_Initialize 0001                                 _FLASH_PageAddressGet 21B6  
                                   ??_NVM_Initialize 0001                                    _SYSTEM_Initialize 20F0  
                                         __accesstop 0060                              __end_of__initialization 1D28  
                                  _ftpTimeoutTLVData 00BA                                ?_BL_ExampleInitialize 0001  
                                 ?_SYSTEM_Initialize 0001                                        ___rparam_used 0001  
                               COM_FrameSet@nextByte 0014                                        __end_of_UART1 0661  
                                      __end_of_UART2 0631                            COM_FrameSet@processResult 0013  
                                          ?_FTP_Task 0001                                      _ParserDataReset 1E02  
                                     __pcstackCOMRAM 0001                       COM_FrameTransfer@isEscapedByte 0089  
                                       __pidataBANK0 1F90                                  ??_SYSTEM_Initialize 0003  
                                 __end_of_FLASH_Read 1BE2                                        __end_of_fputc 1734  
                                       ??_BL_Example 00E5                            _applicationFooter_absaddr 303E  
                                      __end_of_putch 212C                                ??_FLASH_PageOffsetGet 0005  
                                   ??_COM_Initialize 0003                                 __end_of_EUSART1_Read 1A66  
                               __end_of_EUSART2_Read 1AEE          __end_of_EUSART2_DefaultFramingErrorCallback 2306  
              ??_EUSART2_DefaultFramingErrorCallback 0001                 ?_EUSART2_DefaultFramingErrorCallback 0001  
                _EUSART2_DefaultFramingErrorCallback 2304                               _bootloaderCoreUnlocked 0087  
                                          ?_DataSend 0003                                  __end_of_ResponseSet 19DE  
             FLASH_PageErase@globalInterruptBitValue 0011                     __end_of_INT2_SetInterruptHandler 2296  
                                            ??_fputc 0007                            __end_of_SYSTEM_Initialize 210E  
                              ?_FLASH_PageAddressGet 0001                                              ??_putch 0002  
                                         __pbssBANK0 0060                                           __pbssBANK1 0100  
                                  DataReceive@length 0004                                _INT0_InterruptHandler 0079  
                                 __end_of_BL_Example 1DBE                                    DataReceive@status 0006  
                          ResponseSet@responseStatus 0004                    COM_FrameTransfer@receiveBufferPtr 0009  
                                         ??_FTP_Task 005D                       COM_FrameTransfer@processResult 0017  
                         COM_FrameSet@responseLength 000B                               ?_ClientInfoResponseSet 0001  
                                       ?_DataReceive 0003                                     _EUSART1_IsTxDone 223C  
                             _EUSART1_IsTxReady$1936 0001                                              ?_printf 001E  
                       __end_of_EUSART2_Deinitialize 2214                                     _EUSART1_ErrorGet 22C8  
                                   _EUSART2_IsTxDone 2250                           ??_INT1_SetInterruptHandler 0003  
                                         ??_DataSend 0006                                     _EUSART2_ErrorGet 22D2  
                                            _OSCCON2 0FD2                        DownloadAreaErase@startAddress 0016  
                                            _TBLPTRH 0FF7                                              _TBLPTRL 0FF6  
                                            _TBLPTRU 0FF8                                 DeviceID_Read@address 0001  
                TransportFailureCodeGet@targetStatus 0003                                    ?_NVM_UnlockKeySet 0001  
                                            _OSCTUNE 0F9B                                              _SPBRGH1 0FB0  
                                            _SPBRGH2 0F76                                   ??_NVM_UnlockKeySet 0003  
                   COM_FrameTransfer@receiveIndexPtr 000B                                       _FLASH_RowWrite 18A4  
                             ??_BL_ExampleInitialize 0005                              __end_of_ParserDataReset 1E44  
                            _OperationalBlockExecute 1334                          __end_of_BL_ApplicationStart 2280  
                                _FTP_RESPONSE_BUFFER 009F                                         ??_NVM_IsBusy 0001  
                              _EUSART2_AutoBaudQuery 0000                            ?_INT0_SetInterruptHandler 0001  
                                     _ftpRetrySender 00D0                                 _EUSART1_Deinitialize 21E8  
                             _EUSART1_TransmitEnable 0000                          FLASH_PageErase@tablePointer 0012  
                                            __Hparam 0000                                              __Lparam 0000  
                         FLASH_PageOffsetGet@address 0001                                            ?_vfprintf 0019  
                                       __psmallconst 0600                                 COM_Initialize@result 0003  
                                        _ResponseSet 1948                                              __pcinit 1CEC  
                                            __ramtop 0600                                              __ptext0 20D2  
                                            __ptext1 20F0                                              __ptext2 1D32  
                                            __ptext3 22EC                                              __ptext4 1EF6  
                                            __ptext5 228C                                              __ptext6 2296  
                                            __ptext7 22A0                                              __ptext8 2264  
                                            __ptext9 1DBE                                              _readKey 007F  
        __end_of_EUSART2_DefaultOverrunErrorCallback 22FE                ??_EUSART2_DefaultOverrunErrorCallback 0001  
               ?_EUSART2_DefaultOverrunErrorCallback 0001                  _EUSART2_DefaultOverrunErrorCallback 22F8  
                                 __end_of_NVM_IsBusy 203C                                   _EUSART1_Initialize 1E86  
                           ??_PIN_MANAGER_Initialize 0001                BootloaderProcessorUnlock@startAddress 0035  
                        __end_of_FrameCheckCalculate 1F5E                               ??_FLASH_PageAddressGet 0005  
                             __end_of_FLASH_RowWrite 1948                                 end_of_initialization 1D28  
                           _INT2_SetInterruptHandler 228C                                  ?_EUSART1_Initialize 0001  
                                     _ftpVersionData 00D9                                         DataSend@data 0003  
                                            fputc@fp 0005                                   _NVM_UnlockKeyClear 22B4  
                                      __Lmediumconst 0000                          _EUSART1_OverrunErrorHandler 006F  
                              _BL_BootCommandProcess 0DBC                                    ??_FLASH_PageErase 0005  
                              ?_EUSART1_Deinitialize 0001                  DownloadAreaErase@pageEraseUnlockKey 001A  
                 BootloaderProcessorUnlock@bufferPtr 0023                                    DataSend@byteIndex 0007  
                            _BL_MemoryUnlockKeysInit 20B0                                   _EUSART2_Initialize 1EBE  
                                       _COM_FrameSet 0F24                                    __end_of_vfpfcnvrt 0BB8  
                                ?_NVM_UnlockKeyClear 0001                                              postdec1 0FE5  
                                            postdec2 0FDD                                              postinc0 0FEE  
                                            postinc1 0FE6                                              postinc2 0FDE  
                                   vfpfcnvrt@convarg 0012                    ClientInfoResponseSet@responseData 0001  
                                         ??_vfprintf 001D                                 ??_EUSART1_Initialize 0003  
                                ?_EUSART2_Initialize 0001                                            _PORTAbits 0F80  
                              _INT1_InterruptHandler 0077                              _TransportFailureCodeGet 1CA4  
                                       _erasePageKey 0081                                 ??_NVM_UnlockKeyClear 0001  
                                    ?_FLASH_RowWrite 0001                                  EUSART1_Write@txData 0001  
                          ??_OperationalBlockExecute 005B                       BL_ExampleInitialize@initStatus 0005  
                               ??_EUSART2_Initialize 0003                                __end_of_NVM_StatusGet 21E8  
                                    _MaxBufferLength 0083                                     ?_ParserDataReset 0001  
                                       _EUSART1_Read 19DE                                         _EUSART2_Read 1A66  
                               _EUSART2_Deinitialize 21FE                                __end_of_BL_FlashWrite 09A8  
                                  _applicationFooter 303E                            NVM_UnlockKeySet@unlockKey 0001  
                               DataReceive@byteIndex 0007                             FLASH_RowWrite@dataBuffer 0005  
                          ?_BL_MemoryUnlockKeysClear 0001                                   BL_FlashWrite@index 0026  
                       __end_of_INTERRUPT_Initialize 1F2A                         _INT0_DefaultInterruptHandler 0000  
                               COM_FrameTransfer@fcs 0012                                          vfpfcnvrt@ap 000F  
                                        vfpfcnvrt@cp 0017                                          vfpfcnvrt@fp 000C  
                                          _BootState 008B                                AbortCodeGet@abortCode 0004  
                                     __end_of_printf 21B6                                  start_initialization 1CEC  
                                  _ftpVersionTLVData 00C0                                        _DeviceID_Read 17F0  
                       _ftpTransferParametersTLVData 00BD                                          putch@txData 0002  
                                    DataReceive@data 0003                                __end_of_EUSART1_Write 22E4  
                              __end_of_EUSART2_Write 22EC                               ?_BL_BootCommandProcess 0039  
                              __end_of_BL_Initialize 228C                               ??_EUSART1_Deinitialize 0001  
                           __end_of_EUSART1_IsTxDone 2250                            ??_BL_MemoryUnlockKeysInit 0009  
                          __end_of_applicationFooter 3040                             __end_of_EUSART1_ErrorGet 22D2  
                              ?_EUSART2_Deinitialize 0001                             __end_of_EUSART2_IsTxDone 2264  
                            ??_ClientInfoResponseSet 0002                             __end_of_EUSART2_ErrorGet 22DC  
                        __end_of_FLASH_PageOffsetGet 22C8                                          vfprintf@fmt 001B  
                                    _NVM_IsBusy$1007 0001                                          __pdataBANK0 00B2  
                COM_FrameTransfer@frameCheckSequence 0014                            ??_TransportFailureCodeGet 0001  
                                           ??_printf 0023                                          __pbssCOMRAM 005D  
                   __end_of_INT0_SetInterruptHandler 22AA                      FrameCheckCalculate@bufferLength 0003  
                                      __pcstackBANK0 00E2                                       ?_DeviceID_Read 0001  
                       FLASH_RowWrite@flashDataCount 0008                           ?_BootloaderProcessorUnlock 0023  
             BL_BootCommandProcess@bootCommandStatus 0056                            _generalCommandTimeoutData 00D6  
                                EUSART2_Write@txData 0001                           ResponseSet@responsePayload 0002  
                              _INT2_InterruptHandler 0075                                   _ftpCommandReceiver 00CA  
                             _PIN_MANAGER_Initialize 1D32                                        ?_AbortCodeGet 0001  
                   OperationalBlockExecute@abortCode 005B                           BL_BootCommandProcess@F6839 00B2  
                                   _ForcedEntryCheck 1F5E                                         ?_ResponseSet 0001  
                                  ??_NVM_StatusClear 0001                                          __smallconst 0600  
                         ??_INT2_SetInterruptHandler 0003                                             _BAUDCON1 0FB8  
                                           _BAUDCON2 0F70                                            _ftpHelper 0060  
                                  _EUSART1_IsRxReady 2214                                      _FLASH_PageErase 1734  
                                  _EUSART1_IsTxReady 203C                    __end_of_BootloaderProcessorUnlock 166A  
                           DownloadAreaErase@address 001F                                   ?_EUSART1_IsRxReady 0001  
                                 ?_EUSART1_IsTxReady 0001                                 _INTERRUPT_Initialize 1EF6  
                                  _EUSART2_IsRxReady 2228                     OperationalBlockExecute@firstTime 00C3  
                                  _EUSART2_IsTxReady 2064                                     _CLOCK_Initialize 2264  
                             ??_EUSART2_Deinitialize 0001                                             _LATAbits 0F89  
                                ??_EUSART1_IsRxReady 0001                                   ?_EUSART2_IsRxReady 0001  
                                ??_EUSART1_IsTxReady 0001                            ?_INT1_SetInterruptHandler 0001  
                                 ?_EUSART2_IsTxReady 0001                                             _FTP_Task 108C  
                                           _PIR1bits 0F9E                                             _PIR3bits 0FA4  
                                     ??_AbortCodeGet 0001                             COM_FrameTransfer@lowByte 0013  
                                           _RCONbits 0FD0                                  ??_EUSART2_IsRxReady 0001  
                                ??_EUSART2_IsTxReady 0001                                DeviceID_Read@deivceID 0010  
                                          _vfpfcnvrt 09A8                             COM_FrameTransfer@workPtr 0010  
               TransportFailureCodeGet@transportCode 0004                                       _FTP_Initialize 1FC0  
                          __end_of_EUSART1_IsRxReady 2228                                     ??_FLASH_RowWrite 0007  
                          __end_of_EUSART1_IsTxReady 2064                                      ??_DeviceID_Read 0004  
                                           _DataSend 147E                            __end_of_EUSART2_IsRxReady 223C  
                                         vfpfcnvrt@c 0018                                           vfpfcnvrt@x 0016  
                                        _INTCON2bits 0FF1                            __end_of_EUSART2_IsTxReady 208C  
                                        _INTCON3bits 0FF0                                            copy_data0 1D00  
                   __end_of_BL_MemoryUnlockKeysClear 20B0                                ?_INTERRUPT_Initialize 0001  
                           _INT0_SetInterruptHandler 22A0                                          _firstTimeIn 0086  
                                _EUSART1_AutoBaudSet 0000                          _EUSART2_OverrunErrorHandler 0069  
                            _EUSART1_TransmitDisable 0000                                           _EECON1bits 0FA6  
                                       ResponseSet@i 0009                     ResponseSet@responsePayloadLength 0005  
                                           __Hrparam 0000                                    FTP_Task@comResult 00E4  
                                         vfprintf@ap 001C                                             __Lrparam 0000  
                                         vfprintf@fp 0019                                       DataSend@length 0004  
                             __end_of_FTP_Initialize 1FEA                                           ?_vfpfcnvrt 000C  
                            __end_of_FLASH_PageErase 17F0                                       DataSend@status 0006  
        __end_of_EUSART1_DefaultFramingErrorCallback 2304                ??_EUSART1_DefaultFramingErrorCallback 0001  
               ?_EUSART1_DefaultFramingErrorCallback 0001                  _EUSART1_DefaultFramingErrorCallback 2302  
                             FLASH_PageErase@address 0001                                           _FLASH_Read 1B6C  
                            ??_BL_BootCommandProcess 003D                                             __ptext10 1F5E  
                                           __ptext11 1FC0                                             __ptext20 2280  
                                           __ptext12 1FEA                                             __ptext21 0DBC  
                                           __ptext13 1D78                                             __ptext30 20B0  
                                           __ptext22 219C                                             __ptext14 108C  
                                           __ptext31 208C                                             __ptext23 1E44  
                                           __ptext15 1CA4                                             __ptext40 22BE  
                                           __ptext32 0694                                             __ptext24 09A8  
                                           __ptext16 1E02                                             __ptext41 1734  
                                           __ptext33 22AA                                             __ptext25 166A  
                                           __ptext17 1334                                             __ptext50 1E86  
                                           __ptext42 21B6                                             __ptext34 22B4  
                                           __ptext26 210E                                             __ptext18 1948  
                                           __ptext51 1EBE                                             __ptext43 1C44  
                                           __ptext35 21D0                                             __ptext27 159E  
                                           __ptext19 1BE2                                             __ptext60 2164  
                                           __ptext52 212C                                             __ptext44 0BB8  
                                           __ptext36 22FE                                             __ptext28 1AEE  
                                           __ptext61 2180                                             __ptext53 2148  
                                           __ptext45 11E0                                             __ptext37 2014  
                                           __ptext29 17F0                                             __ptext70 2250  
                                           __ptext62 0F24                                             __ptext54 21E8  
                                           __ptext46 19DE                                             __ptext38 18A4  
                                           __ptext71 22C8                                             __ptext63 1F2A  
                                           __ptext55 21FE                                             __ptext47 1A66  
                                           __ptext39 1B6C                                             __ptext72 22D2  
                                           __ptext64 147E                                             __ptext56 22F2  
                                           __ptext48 2214                                             __ptext73 2272  
                                           __ptext65 22DC                                             __ptext57 22F8  
                                           __ptext49 2228                                             __ptext66 22E4  
                                           __ptext58 2302                                             __ptext67 203C  
                                           __ptext59 2304                                             __ptext68 2064  
                                           __ptext69 223C                                         _resetPending 0088  
                                _EUSART2_AutoBaudSet 0000                            DeviceID_Read@tablePointer 0012  
                                  ?_EUSART1_IsTxDone 0001                        COM_FrameSet@responseBufferPtr 0009  
                                  ?_EUSART1_ErrorGet 0001                                   ??_EUSART1_IsTxDone 0001  
                                  ?_EUSART2_IsTxDone 0001                   BL_BootCommandProcess@commandHeader 0057  
                                   _NVM_UnlockKeySet 22AA                                   ??_EUSART1_ErrorGet 0003  
                                  ?_EUSART2_ErrorGet 0001                                       _NVM_Initialize 22EC  
                                 ??_EUSART2_IsTxDone 0001                                             isa$xinst 0000  
                            _EUSART2_TransmitDisable 0000                        __end_of_ClientInfoResponseSet 1C44  
                                      ??_DataReceive 0006                                   ??_EUSART2_ErrorGet 0003  
                                           _vfprintf 1E44                                      ?_FTP_Initialize 0001  
                                          printf@fmt 001E                                           _BL_Example 1D78  
                        _EUSART1_FramingErrorHandler 0071                         _INT1_DefaultInterruptHandler 0000  
                        FLASH_PageAddressGet@address 0001                               _EUSART2_IsTxReady$2462 0001  
                                         _INTCONbits 0FF2                             ?_OperationalBlockExecute 0001  
                              FTP_Task@processResult 00E3                          ??_BootloaderProcessorUnlock 0025  
                             ??_INTERRUPT_Initialize 0003                                 __end_of_AbortCodeGet 1CA4  
                                     _COM_Initialize 1FEA                             __end_of_ForcedEntryCheck 1F90  
                                      _discoveryData 00DC                              ?_PIN_MANAGER_Initialize 0001  
                  BL_BootCommandProcess@bufferLength 003B                          FrameCheckCalculate@checksum 0004  
                           _BL_MemoryUnlockKeysClear 208C                                           _RCSTA1bits 0FAB  
                                         _RCSTA2bits 0F71                               __end_of_NVM_Initialize 22F2  
                                    _NVM_StatusClear 22FE                                   _FTP_RECEIVE_BUFFER 0120  
                             _EUSART2_TransmitEnable 0000                                    _COM_FrameTransfer 0BB8  
                                           printf@ap 0023                                FLASH_RowWrite@address 0001  
                                 ?_COM_FrameTransfer 0009                                          ??_vfpfcnvrt 0010  
                                   ?_FLASH_PageErase 0001                                   _eusart1RxLastError 0073  
                           __end_of_CLOCK_Initialize 2272                                     _byteWordWriteKey 007D  
                                  FLASH_Read@address 0001                 OperationalBlockExecute@processResult 005C  
                                ??_COM_FrameTransfer 000C                                  __end_of_DataReceive 1334  
              BL_BootCommandProcess@userProvidedKeys 004D                               __end_of_COM_Initialize 2014  
                   __end_of_INT1_SetInterruptHandler 22A0          __end_of_EUSART1_DefaultOverrunErrorCallback 22F8  
              ??_EUSART1_DefaultOverrunErrorCallback 0001                 ?_EUSART1_DefaultOverrunErrorCallback 0001  
                _EUSART1_DefaultOverrunErrorCallback 22F2                               COM_FrameSet@frameCheck 000F  
                                        ?_FLASH_Read 0001                                  _BL_ApplicationStart 2272  
                           ?_BL_MemoryUnlockKeysInit 0001                FLASH_RowWrite@globalInterruptBitValue 0007  
                     __end_of_PIN_MANAGER_Initialize 1D78                                        _NVM_StatusGet 21D0  
                                 _eusart2RxLastError 006D                            __p_applicationFooter_text 303E  
                                         _NVM_IsBusy 2014                            __end_of_COM_FrameTransfer 0DBC  
                                    ?_NVM_Initialize 0001                                        ?_COM_FrameSet 0009  
                                      _BL_FlashWrite 0694                            _BootloaderProcessorUnlock 159E  
                           ?_TransportFailureCodeGet 0001  
